ARM GAS  C:\Users\BLACK_~1\AppData\Local\Temp\cce6FS19.s 			page 1


   1              		.cpu cortex-m3
   2              		.arch armv7-m
   3              		.fpu softvfp
   4              		.eabi_attribute 20, 1
   5              		.eabi_attribute 21, 1
   6              		.eabi_attribute 23, 3
   7              		.eabi_attribute 24, 1
   8              		.eabi_attribute 25, 1
   9              		.eabi_attribute 26, 1
  10              		.eabi_attribute 30, 1
  11              		.eabi_attribute 34, 1
  12              		.eabi_attribute 18, 4
  13              		.file	"fifo.c"
  14              		.text
  15              	.Ltext0:
  16              		.cfi_sections	.debug_frame
  17              		.section	.text.FifoNext,"ax",%progbits
  18              		.align	1
  19              		.syntax unified
  20              		.thumb
  21              		.thumb_func
  23              	FifoNext:
  24              	.LVL0:
  25              	.LFB0:
  26              		.file 1 "User/Modbus/fifo.c"
   1:User/Modbus/fifo.c **** /*
   2:User/Modbus/fifo.c ****  / _____)             _              | |
   3:User/Modbus/fifo.c **** ( (____  _____ ____ _| |_ _____  ____| |__
   4:User/Modbus/fifo.c ****  \____ \| ___ |    (_   _) ___ |/ ___)  _ \
   5:User/Modbus/fifo.c ****  _____) ) ____| | | || |_| ____( (___| | | |
   6:User/Modbus/fifo.c **** (______/|_____)_|_|_| \__)_____)\____)_| |_|
   7:User/Modbus/fifo.c ****     (C)2013 Semtech
   8:User/Modbus/fifo.c **** 
   9:User/Modbus/fifo.c **** Description: Implements a FIFO buffer
  10:User/Modbus/fifo.c **** 
  11:User/Modbus/fifo.c **** License: Revised BSD License, see LICENSE.TXT file include in the project
  12:User/Modbus/fifo.c **** 
  13:User/Modbus/fifo.c **** Maintainer: Miguel Luis and Gregory Cristian
  14:User/Modbus/fifo.c **** */
  15:User/Modbus/fifo.c **** #include "fifo.h"
  16:User/Modbus/fifo.c **** 
  17:User/Modbus/fifo.c **** static uint16_t FifoNext( Fifo_t *fifo, uint16_t index )
  18:User/Modbus/fifo.c **** {
  27              		.loc 1 18 1 view -0
  28              		.cfi_startproc
  29              		@ args = 0, pretend = 0, frame = 0
  30              		@ frame_needed = 0, uses_anonymous_args = 0
  31              		@ link register save eliminated.
  19:User/Modbus/fifo.c ****     return ( index + 1 ) % fifo->Size;
  32              		.loc 1 19 5 view .LVU1
  33              		.loc 1 19 20 is_stmt 0 view .LVU2
  34 0000 0131     		adds	r1, r1, #1
  35              	.LVL1:
  36              		.loc 1 19 32 view .LVU3
  37 0002 0089     		ldrh	r0, [r0, #8]
  38              	.LVL2:
  39              		.loc 1 19 26 view .LVU4
ARM GAS  C:\Users\BLACK_~1\AppData\Local\Temp\cce6FS19.s 			page 2


  40 0004 91FBF0F3 		sdiv	r3, r1, r0
  41 0008 00FB1310 		mls	r0, r0, r3, r1
  20:User/Modbus/fifo.c **** }
  42              		.loc 1 20 1 view .LVU5
  43 000c 80B2     		uxth	r0, r0
  44 000e 7047     		bx	lr
  45              		.cfi_endproc
  46              	.LFE0:
  48              		.section	.text.FifoInit,"ax",%progbits
  49              		.align	1
  50              		.global	FifoInit
  51              		.syntax unified
  52              		.thumb
  53              		.thumb_func
  55              	FifoInit:
  56              	.LVL3:
  57              	.LFB1:
  21:User/Modbus/fifo.c **** 
  22:User/Modbus/fifo.c **** void FifoInit( Fifo_t *fifo, uint8_t *buffer, uint16_t size )
  23:User/Modbus/fifo.c **** {
  58              		.loc 1 23 1 is_stmt 1 view -0
  59              		.cfi_startproc
  60              		@ args = 0, pretend = 0, frame = 0
  61              		@ frame_needed = 0, uses_anonymous_args = 0
  62              		@ link register save eliminated.
  24:User/Modbus/fifo.c ****     fifo->Begin = 0;
  63              		.loc 1 24 5 view .LVU7
  64              		.loc 1 24 17 is_stmt 0 view .LVU8
  65 0000 0023     		movs	r3, #0
  66 0002 0380     		strh	r3, [r0]	@ movhi
  25:User/Modbus/fifo.c ****     fifo->End = 0;
  67              		.loc 1 25 5 is_stmt 1 view .LVU9
  68              		.loc 1 25 15 is_stmt 0 view .LVU10
  69 0004 4380     		strh	r3, [r0, #2]	@ movhi
  26:User/Modbus/fifo.c ****     fifo->Data = buffer;
  70              		.loc 1 26 5 is_stmt 1 view .LVU11
  71              		.loc 1 26 16 is_stmt 0 view .LVU12
  72 0006 4160     		str	r1, [r0, #4]
  27:User/Modbus/fifo.c ****     fifo->Size = size;
  73              		.loc 1 27 5 is_stmt 1 view .LVU13
  74              		.loc 1 27 16 is_stmt 0 view .LVU14
  75 0008 0281     		strh	r2, [r0, #8]	@ movhi
  28:User/Modbus/fifo.c **** }
  76              		.loc 1 28 1 view .LVU15
  77 000a 7047     		bx	lr
  78              		.cfi_endproc
  79              	.LFE1:
  81              		.section	.text.FifoPush,"ax",%progbits
  82              		.align	1
  83              		.global	FifoPush
  84              		.syntax unified
  85              		.thumb
  86              		.thumb_func
  88              	FifoPush:
  89              	.LVL4:
  90              	.LFB2:
  29:User/Modbus/fifo.c **** 
ARM GAS  C:\Users\BLACK_~1\AppData\Local\Temp\cce6FS19.s 			page 3


  30:User/Modbus/fifo.c **** void FifoPush( Fifo_t *fifo, uint8_t data )
  31:User/Modbus/fifo.c **** {
  91              		.loc 1 31 1 is_stmt 1 view -0
  92              		.cfi_startproc
  93              		@ args = 0, pretend = 0, frame = 0
  94              		@ frame_needed = 0, uses_anonymous_args = 0
  95              		.loc 1 31 1 is_stmt 0 view .LVU17
  96 0000 38B5     		push	{r3, r4, r5, lr}
  97              	.LCFI0:
  98              		.cfi_def_cfa_offset 16
  99              		.cfi_offset 3, -16
 100              		.cfi_offset 4, -12
 101              		.cfi_offset 5, -8
 102              		.cfi_offset 14, -4
 103 0002 0446     		mov	r4, r0
 104 0004 0D46     		mov	r5, r1
  32:User/Modbus/fifo.c ****     fifo->End = FifoNext( fifo, fifo->End );
 105              		.loc 1 32 5 is_stmt 1 view .LVU18
 106              		.loc 1 32 17 is_stmt 0 view .LVU19
 107 0006 4188     		ldrh	r1, [r0, #2]
 108              	.LVL5:
 109              		.loc 1 32 17 view .LVU20
 110 0008 FFF7FEFF 		bl	FifoNext
 111              	.LVL6:
 112              		.loc 1 32 15 view .LVU21
 113 000c 6080     		strh	r0, [r4, #2]	@ movhi
  33:User/Modbus/fifo.c ****     fifo->Data[fifo->End] = data;
 114              		.loc 1 33 5 is_stmt 1 view .LVU22
 115              		.loc 1 33 9 is_stmt 0 view .LVU23
 116 000e 6368     		ldr	r3, [r4, #4]
 117              		.loc 1 33 27 view .LVU24
 118 0010 1D54     		strb	r5, [r3, r0]
  34:User/Modbus/fifo.c **** }
 119              		.loc 1 34 1 view .LVU25
 120 0012 38BD     		pop	{r3, r4, r5, pc}
 121              		.loc 1 34 1 view .LVU26
 122              		.cfi_endproc
 123              	.LFE2:
 125              		.section	.text.FifoPop,"ax",%progbits
 126              		.align	1
 127              		.global	FifoPop
 128              		.syntax unified
 129              		.thumb
 130              		.thumb_func
 132              	FifoPop:
 133              	.LVL7:
 134              	.LFB3:
  35:User/Modbus/fifo.c **** 
  36:User/Modbus/fifo.c **** uint8_t FifoPop( Fifo_t *fifo )
  37:User/Modbus/fifo.c **** {
 135              		.loc 1 37 1 is_stmt 1 view -0
 136              		.cfi_startproc
 137              		@ args = 0, pretend = 0, frame = 0
 138              		@ frame_needed = 0, uses_anonymous_args = 0
 139              		.loc 1 37 1 is_stmt 0 view .LVU28
 140 0000 38B5     		push	{r3, r4, r5, lr}
 141              	.LCFI1:
ARM GAS  C:\Users\BLACK_~1\AppData\Local\Temp\cce6FS19.s 			page 4


 142              		.cfi_def_cfa_offset 16
 143              		.cfi_offset 3, -16
 144              		.cfi_offset 4, -12
 145              		.cfi_offset 5, -8
 146              		.cfi_offset 14, -4
 147 0002 0446     		mov	r4, r0
  38:User/Modbus/fifo.c ****     uint8_t data = fifo->Data[FifoNext( fifo, fifo->Begin )];
 148              		.loc 1 38 5 is_stmt 1 view .LVU29
 149              		.loc 1 38 24 is_stmt 0 view .LVU30
 150 0004 4568     		ldr	r5, [r0, #4]
 151              		.loc 1 38 31 view .LVU31
 152 0006 0188     		ldrh	r1, [r0]
 153 0008 FFF7FEFF 		bl	FifoNext
 154              	.LVL8:
 155              		.loc 1 38 31 view .LVU32
 156 000c 0346     		mov	r3, r0
 157              		.loc 1 38 13 view .LVU33
 158 000e 285C     		ldrb	r0, [r5, r0]	@ zero_extendqisi2
 159              	.LVL9:
  39:User/Modbus/fifo.c **** 
  40:User/Modbus/fifo.c ****     fifo->Begin = FifoNext( fifo, fifo->Begin );
 160              		.loc 1 40 5 is_stmt 1 view .LVU34
 161              		.loc 1 40 17 is_stmt 0 view .LVU35
 162 0010 2380     		strh	r3, [r4]	@ movhi
  41:User/Modbus/fifo.c ****     return data;
 163              		.loc 1 41 5 is_stmt 1 view .LVU36
  42:User/Modbus/fifo.c **** }
 164              		.loc 1 42 1 is_stmt 0 view .LVU37
 165 0012 38BD     		pop	{r3, r4, r5, pc}
 166              		.loc 1 42 1 view .LVU38
 167              		.cfi_endproc
 168              	.LFE3:
 170              		.section	.text.FifoFlush,"ax",%progbits
 171              		.align	1
 172              		.global	FifoFlush
 173              		.syntax unified
 174              		.thumb
 175              		.thumb_func
 177              	FifoFlush:
 178              	.LVL10:
 179              	.LFB4:
  43:User/Modbus/fifo.c **** 
  44:User/Modbus/fifo.c **** void FifoFlush( Fifo_t *fifo )
  45:User/Modbus/fifo.c **** {
 180              		.loc 1 45 1 is_stmt 1 view -0
 181              		.cfi_startproc
 182              		@ args = 0, pretend = 0, frame = 0
 183              		@ frame_needed = 0, uses_anonymous_args = 0
 184              		@ link register save eliminated.
  46:User/Modbus/fifo.c ****     fifo->Begin = 0;
 185              		.loc 1 46 5 view .LVU40
 186              		.loc 1 46 17 is_stmt 0 view .LVU41
 187 0000 0023     		movs	r3, #0
 188 0002 0380     		strh	r3, [r0]	@ movhi
  47:User/Modbus/fifo.c ****     fifo->End = 0;
 189              		.loc 1 47 5 is_stmt 1 view .LVU42
 190              		.loc 1 47 15 is_stmt 0 view .LVU43
ARM GAS  C:\Users\BLACK_~1\AppData\Local\Temp\cce6FS19.s 			page 5


 191 0004 4380     		strh	r3, [r0, #2]	@ movhi
  48:User/Modbus/fifo.c **** }
 192              		.loc 1 48 1 view .LVU44
 193 0006 7047     		bx	lr
 194              		.cfi_endproc
 195              	.LFE4:
 197              		.section	.text.IsFifoEmpty,"ax",%progbits
 198              		.align	1
 199              		.global	IsFifoEmpty
 200              		.syntax unified
 201              		.thumb
 202              		.thumb_func
 204              	IsFifoEmpty:
 205              	.LVL11:
 206              	.LFB5:
  49:User/Modbus/fifo.c **** 
  50:User/Modbus/fifo.c **** bool IsFifoEmpty( Fifo_t *fifo )
  51:User/Modbus/fifo.c **** {
 207              		.loc 1 51 1 is_stmt 1 view -0
 208              		.cfi_startproc
 209              		@ args = 0, pretend = 0, frame = 0
 210              		@ frame_needed = 0, uses_anonymous_args = 0
 211              		@ link register save eliminated.
  52:User/Modbus/fifo.c ****     return ( fifo->Begin == fifo->End );
 212              		.loc 1 52 5 view .LVU46
 213              		.loc 1 52 18 is_stmt 0 view .LVU47
 214 0000 0288     		ldrh	r2, [r0]
 215              		.loc 1 52 33 view .LVU48
 216 0002 4088     		ldrh	r0, [r0, #2]
 217              	.LVL12:
  53:User/Modbus/fifo.c **** }
 218              		.loc 1 53 1 view .LVU49
 219 0004 8242     		cmp	r2, r0
 220 0006 14BF     		ite	ne
 221 0008 0020     		movne	r0, #0
 222 000a 0120     		moveq	r0, #1
 223 000c 7047     		bx	lr
 224              		.cfi_endproc
 225              	.LFE5:
 227              		.section	.text.IsFifoFull,"ax",%progbits
 228              		.align	1
 229              		.global	IsFifoFull
 230              		.syntax unified
 231              		.thumb
 232              		.thumb_func
 234              	IsFifoFull:
 235              	.LVL13:
 236              	.LFB6:
  54:User/Modbus/fifo.c **** 
  55:User/Modbus/fifo.c **** bool IsFifoFull( Fifo_t *fifo )
  56:User/Modbus/fifo.c **** {
 237              		.loc 1 56 1 is_stmt 1 view -0
 238              		.cfi_startproc
 239              		@ args = 0, pretend = 0, frame = 0
 240              		@ frame_needed = 0, uses_anonymous_args = 0
 241              		.loc 1 56 1 is_stmt 0 view .LVU51
 242 0000 10B5     		push	{r4, lr}
ARM GAS  C:\Users\BLACK_~1\AppData\Local\Temp\cce6FS19.s 			page 6


 243              	.LCFI2:
 244              		.cfi_def_cfa_offset 8
 245              		.cfi_offset 4, -8
 246              		.cfi_offset 14, -4
 247 0002 0446     		mov	r4, r0
  57:User/Modbus/fifo.c ****     return ( FifoNext( fifo, fifo->End ) == fifo->Begin );
 248              		.loc 1 57 5 is_stmt 1 view .LVU52
 249              		.loc 1 57 14 is_stmt 0 view .LVU53
 250 0004 4188     		ldrh	r1, [r0, #2]
 251 0006 FFF7FEFF 		bl	FifoNext
 252              	.LVL14:
 253              		.loc 1 57 49 view .LVU54
 254 000a 2388     		ldrh	r3, [r4]
  58:User/Modbus/fifo.c **** }
 255              		.loc 1 58 1 view .LVU55
 256 000c 9842     		cmp	r0, r3
 257 000e 14BF     		ite	ne
 258 0010 0020     		movne	r0, #0
 259 0012 0120     		moveq	r0, #1
 260 0014 10BD     		pop	{r4, pc}
 261              		.loc 1 58 1 view .LVU56
 262              		.cfi_endproc
 263              	.LFE6:
 265              		.text
 266              	.Letext0:
 267              		.file 2 "e:\\gnu arm embedded toolchain\\10 2021.10\\arm-none-eabi\\include\\machine\\_default_typ
 268              		.file 3 "e:\\gnu arm embedded toolchain\\10 2021.10\\arm-none-eabi\\include\\sys\\_stdint.h"
 269              		.file 4 "User/Modbus/fifo.h"
ARM GAS  C:\Users\BLACK_~1\AppData\Local\Temp\cce6FS19.s 			page 7

