ARM GAS  /tmp/cc5tAqFh.s 			page 1


   1              		.cpu cortex-m3
   2              		.eabi_attribute 20, 1
   3              		.eabi_attribute 21, 1
   4              		.eabi_attribute 23, 3
   5              		.eabi_attribute 24, 1
   6              		.eabi_attribute 25, 1
   7              		.eabi_attribute 26, 1
   8              		.eabi_attribute 30, 1
   9              		.eabi_attribute 34, 1
  10              		.eabi_attribute 18, 4
  11              		.file	"modbus_crc.c"
  12              		.text
  13              	.Ltext0:
  14              		.cfi_sections	.debug_frame
  15              		.section	.text.Modbus_Create_Crc16,"ax",%progbits
  16              		.align	1
  17              		.global	Modbus_Create_Crc16
  18              		.arch armv7-m
  19              		.syntax unified
  20              		.thumb
  21              		.thumb_func
  22              		.fpu softvfp
  24              	Modbus_Create_Crc16:
  25              	.LVL0:
  26              	.LFB197:
  27              		.file 1 "User/Modbus/modbus_crc.c"
   1:User/Modbus/modbus_crc.c **** /* 
   2:User/Modbus/modbus_crc.c ****  * FreeModbus Libary: A portable Modbus implementation for Modbus ASCII/RTU.
   3:User/Modbus/modbus_crc.c ****  * Copyright (c) 2006-2018 Christian Walter <cwalter@embedded-solutions.at>
   4:User/Modbus/modbus_crc.c ****  * All rights reserved.
   5:User/Modbus/modbus_crc.c ****  *
   6:User/Modbus/modbus_crc.c ****  * Redistribution and use in source and binary forms, with or without
   7:User/Modbus/modbus_crc.c ****  * modification, are permitted provided that the following conditions
   8:User/Modbus/modbus_crc.c ****  * are met:
   9:User/Modbus/modbus_crc.c ****  * 1. Redistributions of source code must retain the above copyright
  10:User/Modbus/modbus_crc.c ****  *    notice, this list of conditions and the following disclaimer.
  11:User/Modbus/modbus_crc.c ****  * 2. Redistributions in binary form must reproduce the above copyright
  12:User/Modbus/modbus_crc.c ****  *    notice, this list of conditions and the following disclaimer in the
  13:User/Modbus/modbus_crc.c ****  *    documentation and/or other materials provided with the distribution.
  14:User/Modbus/modbus_crc.c ****  * 3. The name of the author may not be used to endorse or promote products
  15:User/Modbus/modbus_crc.c ****  *    derived from this software without specific prior written permission.
  16:User/Modbus/modbus_crc.c ****  *
  17:User/Modbus/modbus_crc.c ****  * THIS SOFTWARE IS PROVIDED BY THE AUTHOR ``AS IS'' AND ANY EXPRESS OR
  18:User/Modbus/modbus_crc.c ****  * IMPLIED WARRANTIES, INCLUDING, BUT NOT LIMITED TO, THE IMPLIED WARRANTIES
  19:User/Modbus/modbus_crc.c ****  * OF MERCHANTABILITY AND FITNESS FOR A PARTICULAR PURPOSE ARE DISCLAIMED.
  20:User/Modbus/modbus_crc.c ****  * IN NO EVENT SHALL THE AUTHOR BE LIABLE FOR ANY DIRECT, INDIRECT,
  21:User/Modbus/modbus_crc.c ****  * INCIDENTAL, SPECIAL, EXEMPLARY, OR CONSEQUENTIAL DAMAGES (INCLUDING, BUT
  22:User/Modbus/modbus_crc.c ****  * NOT LIMITED TO, PROCUREMENT OF SUBSTITUTE GOODS OR SERVICES; LOSS OF USE,
  23:User/Modbus/modbus_crc.c ****  * DATA, OR PROFITS; OR BUSINESS INTERRUPTION) HOWEVER CAUSED AND ON ANY
  24:User/Modbus/modbus_crc.c ****  * THEORY OF LIABILITY, WHETHER IN CONTRACT, STRICT LIABILITY, OR TORT
  25:User/Modbus/modbus_crc.c ****  * (INCLUDING NEGLIGENCE OR OTHERWISE) ARISING IN ANY WAY OUT OF THE USE OF
  26:User/Modbus/modbus_crc.c ****  * THIS SOFTWARE, EVEN IF ADVISED OF THE POSSIBILITY OF SUCH DAMAGE.
  27:User/Modbus/modbus_crc.c ****  *
  28:User/Modbus/modbus_crc.c ****  * File: $Id: mbcrc.c,v 1.7 2007/02/18 23:50:27 wolti Exp $
  29:User/Modbus/modbus_crc.c ****  */
  30:User/Modbus/modbus_crc.c **** 
  31:User/Modbus/modbus_crc.c **** /* ----------------------- Platform includes --------------------------------*/
ARM GAS  /tmp/cc5tAqFh.s 			page 2


  32:User/Modbus/modbus_crc.c **** #include "modbus_crc.h"
  33:User/Modbus/modbus_crc.c **** 
  34:User/Modbus/modbus_crc.c **** static const uint8_t table_crc_hi[] = {
  35:User/Modbus/modbus_crc.c ****     0x00, 0xC1, 0x81, 0x40, 0x01, 0xC0, 0x80, 0x41, 0x01, 0xC0, 0x80, 0x41,
  36:User/Modbus/modbus_crc.c ****     0x00, 0xC1, 0x81, 0x40, 0x01, 0xC0, 0x80, 0x41, 0x00, 0xC1, 0x81, 0x40,
  37:User/Modbus/modbus_crc.c ****     0x00, 0xC1, 0x81, 0x40, 0x01, 0xC0, 0x80, 0x41, 0x01, 0xC0, 0x80, 0x41,
  38:User/Modbus/modbus_crc.c ****     0x00, 0xC1, 0x81, 0x40, 0x00, 0xC1, 0x81, 0x40, 0x01, 0xC0, 0x80, 0x41,
  39:User/Modbus/modbus_crc.c ****     0x00, 0xC1, 0x81, 0x40, 0x01, 0xC0, 0x80, 0x41, 0x01, 0xC0, 0x80, 0x41,
  40:User/Modbus/modbus_crc.c ****     0x00, 0xC1, 0x81, 0x40, 0x01, 0xC0, 0x80, 0x41, 0x00, 0xC1, 0x81, 0x40,
  41:User/Modbus/modbus_crc.c ****     0x00, 0xC1, 0x81, 0x40, 0x01, 0xC0, 0x80, 0x41, 0x00, 0xC1, 0x81, 0x40,
  42:User/Modbus/modbus_crc.c ****     0x01, 0xC0, 0x80, 0x41, 0x01, 0xC0, 0x80, 0x41, 0x00, 0xC1, 0x81, 0x40,
  43:User/Modbus/modbus_crc.c ****     0x00, 0xC1, 0x81, 0x40, 0x01, 0xC0, 0x80, 0x41, 0x01, 0xC0, 0x80, 0x41,
  44:User/Modbus/modbus_crc.c ****     0x00, 0xC1, 0x81, 0x40, 0x01, 0xC0, 0x80, 0x41, 0x00, 0xC1, 0x81, 0x40,
  45:User/Modbus/modbus_crc.c ****     0x00, 0xC1, 0x81, 0x40, 0x01, 0xC0, 0x80, 0x41, 0x01, 0xC0, 0x80, 0x41,
  46:User/Modbus/modbus_crc.c ****     0x00, 0xC1, 0x81, 0x40, 0x00, 0xC1, 0x81, 0x40, 0x01, 0xC0, 0x80, 0x41, 
  47:User/Modbus/modbus_crc.c ****     0x00, 0xC1, 0x81, 0x40, 0x01, 0xC0, 0x80, 0x41, 0x01, 0xC0, 0x80, 0x41,
  48:User/Modbus/modbus_crc.c ****     0x00, 0xC1, 0x81, 0x40, 0x00, 0xC1, 0x81, 0x40, 0x01, 0xC0, 0x80, 0x41, 
  49:User/Modbus/modbus_crc.c ****     0x01, 0xC0, 0x80, 0x41, 0x00, 0xC1, 0x81, 0x40, 0x01, 0xC0, 0x80, 0x41,
  50:User/Modbus/modbus_crc.c ****     0x00, 0xC1, 0x81, 0x40, 0x00, 0xC1, 0x81, 0x40, 0x01, 0xC0, 0x80, 0x41,
  51:User/Modbus/modbus_crc.c ****     0x00, 0xC1, 0x81, 0x40, 0x01, 0xC0, 0x80, 0x41, 0x01, 0xC0, 0x80, 0x41, 
  52:User/Modbus/modbus_crc.c ****     0x00, 0xC1, 0x81, 0x40, 0x01, 0xC0, 0x80, 0x41, 0x00, 0xC1, 0x81, 0x40,
  53:User/Modbus/modbus_crc.c ****     0x00, 0xC1, 0x81, 0x40, 0x01, 0xC0, 0x80, 0x41, 0x01, 0xC0, 0x80, 0x41,
  54:User/Modbus/modbus_crc.c ****     0x00, 0xC1, 0x81, 0x40, 0x00, 0xC1, 0x81, 0x40, 0x01, 0xC0, 0x80, 0x41,
  55:User/Modbus/modbus_crc.c ****     0x00, 0xC1, 0x81, 0x40, 0x01, 0xC0, 0x80, 0x41, 0x01, 0xC0, 0x80, 0x41,
  56:User/Modbus/modbus_crc.c ****     0x00, 0xC1, 0x81, 0x40
  57:User/Modbus/modbus_crc.c **** };
  58:User/Modbus/modbus_crc.c **** 
  59:User/Modbus/modbus_crc.c **** static const uint8_t table_crc_lo[] = {
  60:User/Modbus/modbus_crc.c ****     0x00, 0xC0, 0xC1, 0x01, 0xC3, 0x03, 0x02, 0xC2, 0xC6, 0x06, 0x07, 0xC7,
  61:User/Modbus/modbus_crc.c ****     0x05, 0xC5, 0xC4, 0x04, 0xCC, 0x0C, 0x0D, 0xCD, 0x0F, 0xCF, 0xCE, 0x0E,
  62:User/Modbus/modbus_crc.c ****     0x0A, 0xCA, 0xCB, 0x0B, 0xC9, 0x09, 0x08, 0xC8, 0xD8, 0x18, 0x19, 0xD9,
  63:User/Modbus/modbus_crc.c ****     0x1B, 0xDB, 0xDA, 0x1A, 0x1E, 0xDE, 0xDF, 0x1F, 0xDD, 0x1D, 0x1C, 0xDC,
  64:User/Modbus/modbus_crc.c ****     0x14, 0xD4, 0xD5, 0x15, 0xD7, 0x17, 0x16, 0xD6, 0xD2, 0x12, 0x13, 0xD3,
  65:User/Modbus/modbus_crc.c ****     0x11, 0xD1, 0xD0, 0x10, 0xF0, 0x30, 0x31, 0xF1, 0x33, 0xF3, 0xF2, 0x32,
  66:User/Modbus/modbus_crc.c ****     0x36, 0xF6, 0xF7, 0x37, 0xF5, 0x35, 0x34, 0xF4, 0x3C, 0xFC, 0xFD, 0x3D,
  67:User/Modbus/modbus_crc.c ****     0xFF, 0x3F, 0x3E, 0xFE, 0xFA, 0x3A, 0x3B, 0xFB, 0x39, 0xF9, 0xF8, 0x38, 
  68:User/Modbus/modbus_crc.c ****     0x28, 0xE8, 0xE9, 0x29, 0xEB, 0x2B, 0x2A, 0xEA, 0xEE, 0x2E, 0x2F, 0xEF,
  69:User/Modbus/modbus_crc.c ****     0x2D, 0xED, 0xEC, 0x2C, 0xE4, 0x24, 0x25, 0xE5, 0x27, 0xE7, 0xE6, 0x26,
  70:User/Modbus/modbus_crc.c ****     0x22, 0xE2, 0xE3, 0x23, 0xE1, 0x21, 0x20, 0xE0, 0xA0, 0x60, 0x61, 0xA1,
  71:User/Modbus/modbus_crc.c ****     0x63, 0xA3, 0xA2, 0x62, 0x66, 0xA6, 0xA7, 0x67, 0xA5, 0x65, 0x64, 0xA4,
  72:User/Modbus/modbus_crc.c ****     0x6C, 0xAC, 0xAD, 0x6D, 0xAF, 0x6F, 0x6E, 0xAE, 0xAA, 0x6A, 0x6B, 0xAB, 
  73:User/Modbus/modbus_crc.c ****     0x69, 0xA9, 0xA8, 0x68, 0x78, 0xB8, 0xB9, 0x79, 0xBB, 0x7B, 0x7A, 0xBA,
  74:User/Modbus/modbus_crc.c ****     0xBE, 0x7E, 0x7F, 0xBF, 0x7D, 0xBD, 0xBC, 0x7C, 0xB4, 0x74, 0x75, 0xB5,
  75:User/Modbus/modbus_crc.c ****     0x77, 0xB7, 0xB6, 0x76, 0x72, 0xB2, 0xB3, 0x73, 0xB1, 0x71, 0x70, 0xB0,
  76:User/Modbus/modbus_crc.c ****     0x50, 0x90, 0x91, 0x51, 0x93, 0x53, 0x52, 0x92, 0x96, 0x56, 0x57, 0x97,
  77:User/Modbus/modbus_crc.c ****     0x55, 0x95, 0x94, 0x54, 0x9C, 0x5C, 0x5D, 0x9D, 0x5F, 0x9F, 0x9E, 0x5E,
  78:User/Modbus/modbus_crc.c ****     0x5A, 0x9A, 0x9B, 0x5B, 0x99, 0x59, 0x58, 0x98, 0x88, 0x48, 0x49, 0x89,
  79:User/Modbus/modbus_crc.c ****     0x4B, 0x8B, 0x8A, 0x4A, 0x4E, 0x8E, 0x8F, 0x4F, 0x8D, 0x4D, 0x4C, 0x8C,
  80:User/Modbus/modbus_crc.c ****     0x44, 0x84, 0x85, 0x45, 0x87, 0x47, 0x46, 0x86, 0x82, 0x42, 0x43, 0x83,
  81:User/Modbus/modbus_crc.c ****     0x41, 0x81, 0x80, 0x40
  82:User/Modbus/modbus_crc.c **** };
  83:User/Modbus/modbus_crc.c **** 
  84:User/Modbus/modbus_crc.c **** /**
  85:User/Modbus/modbus_crc.c ****  * Create modbus CRC 16 
  86:User/Modbus/modbus_crc.c ****  * @param  data   [description]
  87:User/Modbus/modbus_crc.c ****  * @param  length [description]
  88:User/Modbus/modbus_crc.c ****  * @return        [description]
ARM GAS  /tmp/cc5tAqFh.s 			page 3


  89:User/Modbus/modbus_crc.c ****  */
  90:User/Modbus/modbus_crc.c **** uint16_t  Modbus_Create_Crc16( uint8_t * data, uint16_t length)
  91:User/Modbus/modbus_crc.c **** {
  28              		.loc 1 91 1 view -0
  29              		.cfi_startproc
  30              		@ args = 0, pretend = 0, frame = 0
  31              		@ frame_needed = 0, uses_anonymous_args = 0
  32              		.loc 1 91 1 is_stmt 0 view .LVU1
  33 0000 00B5     		push	{lr}
  34              	.LCFI0:
  35              		.cfi_def_cfa_offset 4
  36              		.cfi_offset 14, -4
  92:User/Modbus/modbus_crc.c ****     uint8_t     uc_crc_hi = 0xFF, uc_crc_lo = 0xFF;
  37              		.loc 1 92 5 is_stmt 1 view .LVU2
  38              	.LVL1:
  93:User/Modbus/modbus_crc.c ****     uint16_t    index;
  39              		.loc 1 93 5 view .LVU3
  94:User/Modbus/modbus_crc.c **** 
  95:User/Modbus/modbus_crc.c ****     while(length--)
  40              		.loc 1 95 5 view .LVU4
  92:User/Modbus/modbus_crc.c ****     uint16_t    index;
  41              		.loc 1 92 35 is_stmt 0 view .LVU5
  42 0002 FF22     		movs	r2, #255
  92:User/Modbus/modbus_crc.c ****     uint16_t    index;
  43              		.loc 1 92 17 view .LVU6
  44 0004 9646     		mov	lr, r2
  45              		.loc 1 95 10 view .LVU7
  46 0006 0AE0     		b	.L2
  47              	.LVL2:
  48              	.L3:
  96:User/Modbus/modbus_crc.c ****     {
  97:User/Modbus/modbus_crc.c ****         index = uc_crc_lo ^ *(data++);
  49              		.loc 1 97 9 is_stmt 1 view .LVU8
  50              		.loc 1 97 29 is_stmt 0 view .LVU9
  51 0008 10F8013B 		ldrb	r3, [r0], #1	@ zero_extendqisi2
  52              	.LVL3:
  53              		.loc 1 97 15 view .LVU10
  54 000c 5340     		eors	r3, r3, r2
  55              	.LVL4:
  98:User/Modbus/modbus_crc.c ****         uc_crc_lo = (uint8_t)(uc_crc_hi ^ table_crc_hi[index]);
  56              		.loc 1 98 9 is_stmt 1 view .LVU11
  57              		.loc 1 98 55 is_stmt 0 view .LVU12
  58 000e 084A     		ldr	r2, .L5
  59              	.LVL5:
  60              		.loc 1 98 55 view .LVU13
  61 0010 D25C     		ldrb	r2, [r2, r3]	@ zero_extendqisi2
  62              		.loc 1 98 19 view .LVU14
  63 0012 82EA0E02 		eor	r2, r2, lr
  64              	.LVL6:
  99:User/Modbus/modbus_crc.c ****         uc_crc_hi = table_crc_lo[index];
  65              		.loc 1 99 9 is_stmt 1 view .LVU15
  66              		.loc 1 99 19 is_stmt 0 view .LVU16
  67 0016 0749     		ldr	r1, .L5+4
  68 0018 11F803E0 		ldrb	lr, [r1, r3]	@ zero_extendqisi2
  69              	.LVL7:
  95:User/Modbus/modbus_crc.c ****     {
  70              		.loc 1 95 17 view .LVU17
ARM GAS  /tmp/cc5tAqFh.s 			page 4


  71 001c 6146     		mov	r1, ip
  72              	.LVL8:
  73              	.L2:
  95:User/Modbus/modbus_crc.c ****     {
  74              		.loc 1 95 10 is_stmt 1 view .LVU18
  95:User/Modbus/modbus_crc.c ****     {
  75              		.loc 1 95 17 is_stmt 0 view .LVU19
  76 001e 4B1E     		subs	r3, r1, #1
  77 0020 1FFA83FC 		uxth	ip, r3
  78              	.LVL9:
  95:User/Modbus/modbus_crc.c ****     {
  79              		.loc 1 95 10 view .LVU20
  80 0024 0029     		cmp	r1, #0
  81 0026 EFD1     		bne	.L3
 100:User/Modbus/modbus_crc.c ****     }
 101:User/Modbus/modbus_crc.c **** 
 102:User/Modbus/modbus_crc.c ****     return (uint16_t)(uc_crc_hi << 8 | uc_crc_lo);
  82              		.loc 1 102 5 is_stmt 1 view .LVU21
 103:User/Modbus/modbus_crc.c **** 
 104:User/Modbus/modbus_crc.c **** }
  83              		.loc 1 104 1 is_stmt 0 view .LVU22
  84 0028 42EA0E20 		orr	r0, r2, lr, lsl #8
  85              	.LVL10:
  86              		.loc 1 104 1 view .LVU23
  87 002c 5DF804FB 		ldr	pc, [sp], #4
  88              	.L6:
  89              		.align	2
  90              	.L5:
  91 0030 00000000 		.word	.LANCHOR0
  92 0034 00000000 		.word	.LANCHOR1
  93              		.cfi_endproc
  94              	.LFE197:
  96              		.section	.text.Modbus_Check_Crc16,"ax",%progbits
  97              		.align	1
  98              		.global	Modbus_Check_Crc16
  99              		.syntax unified
 100              		.thumb
 101              		.thumb_func
 102              		.fpu softvfp
 104              	Modbus_Check_Crc16:
 105              	.LVL11:
 106              	.LFB198:
 105:User/Modbus/modbus_crc.c **** 
 106:User/Modbus/modbus_crc.c **** /**
 107:User/Modbus/modbus_crc.c ****  * Check integrity modbus
 108:User/Modbus/modbus_crc.c ****  * @param  data   [description]
 109:User/Modbus/modbus_crc.c ****  * @param  length [description]
 110:User/Modbus/modbus_crc.c ****  * @return        [description]
 111:User/Modbus/modbus_crc.c ****  */
 112:User/Modbus/modbus_crc.c **** uint8_t  Modbus_Check_Crc16(uint8_t * data, uint16_t length)
 113:User/Modbus/modbus_crc.c **** {
 107              		.loc 1 113 1 is_stmt 1 view -0
 108              		.cfi_startproc
 109              		@ args = 0, pretend = 0, frame = 0
 110              		@ frame_needed = 0, uses_anonymous_args = 0
 114:User/Modbus/modbus_crc.c ****     if (length < 4)
 111              		.loc 1 114 5 view .LVU25
ARM GAS  /tmp/cc5tAqFh.s 			page 5


 112              		.loc 1 114 8 is_stmt 0 view .LVU26
 113 0000 0329     		cmp	r1, #3
 114 0002 11D9     		bls	.L9
 113:User/Modbus/modbus_crc.c ****     if (length < 4)
 115              		.loc 1 113 1 view .LVU27
 116 0004 38B5     		push	{r3, r4, r5, lr}
 117              	.LCFI1:
 118              		.cfi_def_cfa_offset 16
 119              		.cfi_offset 3, -16
 120              		.cfi_offset 4, -12
 121              		.cfi_offset 5, -8
 122              		.cfi_offset 14, -4
 123 0006 0446     		mov	r4, r0
 124 0008 0D46     		mov	r5, r1
 115:User/Modbus/modbus_crc.c ****         return 0;
 116:User/Modbus/modbus_crc.c **** 
 117:User/Modbus/modbus_crc.c ****     uint16_t crc = Modbus_Create_Crc16(data, length - 2);
 125              		.loc 1 117 5 is_stmt 1 view .LVU28
 126              		.loc 1 117 20 is_stmt 0 view .LVU29
 127 000a 0239     		subs	r1, r1, #2
 128              	.LVL12:
 129              		.loc 1 117 20 view .LVU30
 130 000c 89B2     		uxth	r1, r1
 131 000e FFF7FEFF 		bl	Modbus_Create_Crc16
 132              	.LVL13:
 118:User/Modbus/modbus_crc.c ****     if ((data[length-1]<<8 | data[length-2]) == crc)            /* True */
 133              		.loc 1 118 5 is_stmt 1 view .LVU31
 134              		.loc 1 118 14 is_stmt 0 view .LVU32
 135 0012 2C44     		add	r4, r4, r5
 136              	.LVL14:
 137              		.loc 1 118 14 view .LVU33
 138 0014 14F8012C 		ldrb	r2, [r4, #-1]	@ zero_extendqisi2
 139              		.loc 1 118 34 view .LVU34
 140 0018 14F8023C 		ldrb	r3, [r4, #-2]	@ zero_extendqisi2
 141              		.loc 1 118 28 view .LVU35
 142 001c 43EA0223 		orr	r3, r3, r2, lsl #8
 143              		.loc 1 118 8 view .LVU36
 144 0020 8342     		cmp	r3, r0
 145 0022 03D0     		beq	.L10
 119:User/Modbus/modbus_crc.c ****         return 1;
 120:User/Modbus/modbus_crc.c **** 
 121:User/Modbus/modbus_crc.c ****     return 0;
 146              		.loc 1 121 12 view .LVU37
 147 0024 0020     		movs	r0, #0
 148              	.LVL15:
 149              	.L8:
 122:User/Modbus/modbus_crc.c **** }
 150              		.loc 1 122 1 view .LVU38
 151 0026 38BD     		pop	{r3, r4, r5, pc}
 152              	.LVL16:
 153              	.L9:
 154              	.LCFI2:
 155              		.cfi_def_cfa_offset 0
 156              		.cfi_restore 3
 157              		.cfi_restore 4
 158              		.cfi_restore 5
 159              		.cfi_restore 14
ARM GAS  /tmp/cc5tAqFh.s 			page 6


 115:User/Modbus/modbus_crc.c **** 
 160              		.loc 1 115 16 view .LVU39
 161 0028 0020     		movs	r0, #0
 162              	.LVL17:
 163              		.loc 1 122 1 view .LVU40
 164 002a 7047     		bx	lr
 165              	.LVL18:
 166              	.L10:
 167              	.LCFI3:
 168              		.cfi_def_cfa_offset 16
 169              		.cfi_offset 3, -16
 170              		.cfi_offset 4, -12
 171              		.cfi_offset 5, -8
 172              		.cfi_offset 14, -4
 119:User/Modbus/modbus_crc.c ****         return 1;
 173              		.loc 1 119 16 view .LVU41
 174 002c 0120     		movs	r0, #1
 175              	.LVL19:
 119:User/Modbus/modbus_crc.c ****         return 1;
 176              		.loc 1 119 16 view .LVU42
 177 002e FAE7     		b	.L8
 178              		.cfi_endproc
 179              	.LFE198:
 181              		.section	.rodata.table_crc_hi,"a"
 182              		.align	2
 183              		.set	.LANCHOR0,. + 0
 186              	table_crc_hi:
 187 0000 00C18140 		.ascii	"\000\301\201@\001\300\200A\001\300\200A\000\301\201"
 187      01C08041 
 187      01C08041 
 187      00C181
 188 000f 4001C080 		.ascii	"@\001\300\200A\000\301\201@\000\301\201@\001\300\200"
 188      4100C181 
 188      4000C181 
 188      4001C080 
 189 001f 4101C080 		.ascii	"A\001\300\200A\000\301\201@\000\301\201@\001\300\200"
 189      4100C181 
 189      4000C181 
 189      4001C080 
 190 002f 4100C181 		.ascii	"A\000\301\201@\001\300\200A\001\300\200A\000\301\201"
 190      4001C080 
 190      4101C080 
 190      4100C181 
 191 003f 4001C080 		.ascii	"@\001\300\200A\000\301\201@\000\301\201@\001\300\200"
 191      4100C181 
 191      4000C181 
 191      4001C080 
 192 004f 4100C181 		.ascii	"A\000\301\201@\001\300\200A\001\300\200A\000\301\201"
 192      4001C080 
 192      4101C080 
 192      4100C181 
 193 005f 4000C181 		.ascii	"@\000\301\201@\001\300\200A\001\300\200A\000\301\201"
 193      4001C080 
 193      4101C080 
 193      4100C181 
 194 006f 4001C080 		.ascii	"@\001\300\200A\000\301\201@\000\301\201@\001\300\200"
 194      4100C181 
ARM GAS  /tmp/cc5tAqFh.s 			page 7


 194      4000C181 
 194      4001C080 
 195 007f 4101C080 		.ascii	"A\001\300\200A\000\301\201@\000\301\201@\001\300\200"
 195      4100C181 
 195      4000C181 
 195      4001C080 
 196 008f 4100C181 		.ascii	"A\000\301\201@\001\300\200A\001\300\200A\000\301\201"
 196      4001C080 
 196      4101C080 
 196      4100C181 
 197 009f 4000C181 		.ascii	"@\000\301\201@\001\300\200A\001\300\200A\000\301\201"
 197      4001C080 
 197      4101C080 
 197      4100C181 
 198 00af 4001C080 		.ascii	"@\001\300\200A\000\301\201@\000\301\201@\001\300\200"
 198      4100C181 
 198      4000C181 
 198      4001C080 
 199 00bf 4100C181 		.ascii	"A\000\301\201@\001\300\200A\001\300\200A\000\301\201"
 199      4001C080 
 199      4101C080 
 199      4100C181 
 200 00cf 4001C080 		.ascii	"@\001\300\200A\000\301\201@\000\301\201@\001\300\200"
 200      4100C181 
 200      4000C181 
 200      4001C080 
 201 00df 4101C080 		.ascii	"A\001\300\200A\000\301\201@\000\301\201@\001\300\200"
 201      4100C181 
 201      4000C181 
 201      4001C080 
 202 00ef 4100C181 		.ascii	"A\000\301\201@\001\300\200A\001\300\200A\000\301\201"
 202      4001C080 
 202      4101C080 
 202      4100C181 
 203 00ff 40       		.ascii	"@"
 204              		.section	.rodata.table_crc_lo,"a"
 205              		.align	2
 206              		.set	.LANCHOR1,. + 0
 209              	table_crc_lo:
 210 0000 00C0C101 		.ascii	"\000\300\301\001\303\003\002\302\306\006\007\307\005"
 210      C30302C2 
 210      C60607C7 
 210      05
 211 000d C5C404CC 		.ascii	"\305\304\004\314\014\015\315\017\317\316\016\012\312"
 211      0C0DCD0F 
 211      CFCE0E0A 
 211      CA
 212 001a CB0BC909 		.ascii	"\313\013\311\011\010\310\330\030\031\331\033\333\332"
 212      08C8D818 
 212      19D91BDB 
 212      DA
 213 0027 1A1EDEDF 		.ascii	"\032\036\336\337\037\335\035\034\334\024\324\325\025"
 213      1FDD1D1C 
 213      DC14D4D5 
 213      15
 214 0034 D71716D6 		.ascii	"\327\027\026\326\322\022\023\323\021\321\320\020\360"
 214      D21213D3 
ARM GAS  /tmp/cc5tAqFh.s 			page 8


 214      11D1D010 
 214      F0
 215 0041 3031F133 		.ascii	"01\3613\363\36226\366\3677\36554\364<\374\375=\377?"
 215      F3F23236 
 215      F6F737F5 
 215      3534F43C 
 215      FCFD3DFF 
 216 0056 3EFEFA3A 		.ascii	">\376\372:;\3739\371\3708(\350\351)\353+*\352\356./"
 216      3BFB39F9 
 216      F83828E8 
 216      E929EB2B 
 216      2AEAEE2E 
 217 006b EF2DEDEC 		.ascii	"\357-\355\354,\344$%\345'\347\346&\"\342\343#\341! "
 217      2CE42425 
 217      E527E7E6 
 217      2622E2E3 
 217      23E12120 
 218 007f E0A06061 		.ascii	"\340\240`a\241c\243\242bf\246\247g\245ed\244l\254\255"
 218      A163A3A2 
 218      6266A6A7 
 218      67A56564 
 218      A46CACAD 
 219 0093 6DAF6F6E 		.ascii	"m\257on\256\252jk\253i\251\250hx\270\271y\273{z\272"
 219      AEAA6A6B 
 219      AB69A9A8 
 219      6878B8B9 
 219      79BB7B7A 
 220 00a8 BE7E7FBF 		.ascii	"\276~\177\277}\275\274|\264tu\265w\267\266vr\262\263"
 220      7DBDBC7C 
 220      B47475B5 
 220      77B7B676 
 220      72B2B3
 221 00bb 73B17170 		.ascii	"s\261qp\260P\220\221Q\223SR\222\226VW\227U\225\224T"
 221      B0509091 
 221      51935352 
 221      92965657 
 221      97559594 
 222 00d0 9C5C5D9D 		.ascii	"\234\\]\235_\237\236^Z\232\233[\231YX\230\210HI\211"
 222      5F9F9E5E 
 222      5A9A9B5B 
 222      99595898 
 222      88484989 
 223 00e4 4B8B8A4A 		.ascii	"K\213\212JN\216\217O\215ML\214D\204\205E\207GF\206\202"
 223      4E8E8F4F 
 223      8D4D4C8C 
 223      44848545 
 223      87474686 
 224 00f9 42438341 		.ascii	"BC\203A\201\200@"
 224      818040
 225              		.text
 226              	.Letext0:
 227              		.file 2 "/usr/lib/gcc/arm-none-eabi/10.3.1/include/stdint.h"
ARM GAS  /tmp/cc5tAqFh.s 			page 9

