ARM GAS  C:\Users\BLACK_~1\AppData\Local\Temp\ccwoWP7b.s 			page 1


   1              		.cpu cortex-m3
   2              		.arch armv7-m
   3              		.fpu softvfp
   4              		.eabi_attribute 20, 1
   5              		.eabi_attribute 21, 1
   6              		.eabi_attribute 23, 3
   7              		.eabi_attribute 24, 1
   8              		.eabi_attribute 25, 1
   9              		.eabi_attribute 26, 1
  10              		.eabi_attribute 30, 1
  11              		.eabi_attribute 34, 1
  12              		.eabi_attribute 18, 4
  13              		.file	"modbus_data.c"
  14              		.text
  15              	.Ltext0:
  16              		.cfi_sections	.debug_frame
  17              		.section	.text.Modbus_Master_DMA_Init,"ax",%progbits
  18              		.align	1
  19              		.global	Modbus_Master_DMA_Init
  20              		.syntax unified
  21              		.thumb
  22              		.thumb_func
  24              	Modbus_Master_DMA_Init:
  25              	.LVL0:
  26              	.LFB197:
  27              		.file 1 "User/Modbus/modbus_data.c"
   1:User/Modbus/modbus_data.c **** /*
   2:User/Modbus/modbus_data.c **** * @Author: duchien 
   3:User/Modbus/modbus_data.c **** * @Date:   2023-03-23
   4:User/Modbus/modbus_data.c **** * @Last Modified by:   duchien
   5:User/Modbus/modbus_data.c **** * @Last Modified time: 2023-03-23
   6:User/Modbus/modbus_data.c **** */
   7:User/Modbus/modbus_data.c **** 
   8:User/Modbus/modbus_data.c **** #include "modbus_data.h"
   9:User/Modbus/modbus_data.c **** #include "modbus_crc.h"
  10:User/Modbus/modbus_data.c **** #include "usart.h"
  11:User/Modbus/modbus_data.c **** 
  12:User/Modbus/modbus_data.c **** // Modbus Register
  13:User/Modbus/modbus_data.c **** Modbus_State_t slave;
  14:User/Modbus/modbus_data.c **** uint16_t modbus_holding_buf[NoB_HOLDING_REGISTER] = {0},
  15:User/Modbus/modbus_data.c **** 		modbus_input_buf[NoB_INPUT_REGISTER] = {0};
  16:User/Modbus/modbus_data.c **** uint16_t modbus_master_hold_buf[MB_MASTER_SLAVE_NUM][NoB_HOLDING_REGISTER];
  17:User/Modbus/modbus_data.c **** uint32_t modbus_tick_timeout;
  18:User/Modbus/modbus_data.c **** 
  19:User/Modbus/modbus_data.c **** void Modbus_Master_DMA_Init(void *dHUART, uint32_t ulBaudRate)
  20:User/Modbus/modbus_data.c **** {
  28              		.loc 1 20 1 view -0
  29              		.cfi_startproc
  30              		@ args = 0, pretend = 0, frame = 0
  31              		@ frame_needed = 0, uses_anonymous_args = 0
  32              		.loc 1 20 1 is_stmt 0 view .LVU1
  33 0000 08B5     		push	{r3, lr}
  34              	.LCFI0:
  35              		.cfi_def_cfa_offset 8
  36              		.cfi_offset 3, -8
  37              		.cfi_offset 14, -4
  21:User/Modbus/modbus_data.c ****     // init uart connect with slaver
ARM GAS  C:\Users\BLACK_~1\AppData\Local\Temp\ccwoWP7b.s 			page 2


  22:User/Modbus/modbus_data.c ****     MX_USART2_UART_Init(ulBaudRate);
  38              		.loc 1 22 5 is_stmt 1 view .LVU2
  39 0002 0846     		mov	r0, r1
  40              	.LVL1:
  41              		.loc 1 22 5 is_stmt 0 view .LVU3
  42 0004 FFF7FEFF 		bl	MX_USART2_UART_Init
  43              	.LVL2:
  23:User/Modbus/modbus_data.c **** }
  44              		.loc 1 23 1 view .LVU4
  45 0008 08BD     		pop	{r3, pc}
  46              		.cfi_endproc
  47              	.LFE197:
  49              		.section	.rodata.Modbus_Master_DMA_Process.str1.4,"aMS",%progbits,1
  50              		.align	2
  51              	.LC0:
  52 0000 43686563 		.ascii	"Check CRC Error @@\000"
  52      6B204352 
  52      43204572 
  52      726F7220 
  52      404000
  53              		.section	.text.Modbus_Master_DMA_Process,"ax",%progbits
  54              		.align	1
  55              		.global	Modbus_Master_DMA_Process
  56              		.syntax unified
  57              		.thumb
  58              		.thumb_func
  60              	Modbus_Master_DMA_Process:
  61              	.LFB198:
  24:User/Modbus/modbus_data.c **** 
  25:User/Modbus/modbus_data.c **** 
  26:User/Modbus/modbus_data.c **** MB_Error_Code_t Modbus_Master_DMA_Process(void)
  27:User/Modbus/modbus_data.c **** {
  62              		.loc 1 27 1 is_stmt 1 view -0
  63              		.cfi_startproc
  64              		@ args = 0, pretend = 0, frame = 0
  65              		@ frame_needed = 0, uses_anonymous_args = 0
  28:User/Modbus/modbus_data.c ****     // id | fc | reg_addH | reg_addL | reg_dataH | reg_dataL | crcH | crcL
  29:User/Modbus/modbus_data.c **** 
  30:User/Modbus/modbus_data.c ****     if (dma_uart2_rx.state) // da nhan xong frame modbus => xu ly
  66              		.loc 1 30 5 view .LVU6
  67              		.loc 1 30 21 is_stmt 0 view .LVU7
  68 0000 274B     		ldr	r3, .L17
  69 0002 93F80134 		ldrb	r3, [r3, #1025]	@ zero_extendqisi2
  70              		.loc 1 30 8 view .LVU8
  71 0006 002B     		cmp	r3, #0
  72 0008 49D0     		beq	.L12
  27:User/Modbus/modbus_data.c ****     // id | fc | reg_addH | reg_addL | reg_dataH | reg_dataL | crcH | crcL
  73              		.loc 1 27 1 view .LVU9
  74 000a 10B5     		push	{r4, lr}
  75              	.LCFI1:
  76              		.cfi_def_cfa_offset 8
  77              		.cfi_offset 4, -8
  78              		.cfi_offset 14, -4
  31:User/Modbus/modbus_data.c ****     {
  32:User/Modbus/modbus_data.c ****         if (dma_uart2_rx.data[0] == slave.id && Modbus_Check_Crc16(dma_uart2_rx.data, dma_uart2_rx.
  79              		.loc 1 32 9 is_stmt 1 view .LVU10
  80              		.loc 1 32 30 is_stmt 0 view .LVU11
ARM GAS  C:\Users\BLACK_~1\AppData\Local\Temp\ccwoWP7b.s 			page 3


  81 000c 244B     		ldr	r3, .L17
  82 000e 5A78     		ldrb	r2, [r3, #1]	@ zero_extendqisi2
  83              		.loc 1 32 42 view .LVU12
  84 0010 244B     		ldr	r3, .L17+4
  85 0012 1B78     		ldrb	r3, [r3]	@ zero_extendqisi2
  86              		.loc 1 32 12 view .LVU13
  87 0014 9A42     		cmp	r2, r3
  88 0016 3DD1     		bne	.L5
  89              		.loc 1 32 49 discriminator 1 view .LVU14
  90 0018 2148     		ldr	r0, .L17
  91 001a B0F80214 		ldrh	r1, [r0, #1026]
  92 001e 0130     		adds	r0, r0, #1
  93 0020 FFF7FEFF 		bl	Modbus_Check_Crc16
  94              	.LVL3:
  95              		.loc 1 32 46 discriminator 1 view .LVU15
  96 0024 0028     		cmp	r0, #0
  97 0026 35D0     		beq	.L5
  33:User/Modbus/modbus_data.c ****         {
  34:User/Modbus/modbus_data.c ****             switch (dma_uart2_rx.data[1])       // Check Function code
  98              		.loc 1 34 13 is_stmt 1 view .LVU16
  99              		.loc 1 34 38 is_stmt 0 view .LVU17
 100 0028 1D4B     		ldr	r3, .L17
 101 002a 9B78     		ldrb	r3, [r3, #2]	@ zero_extendqisi2
 102              		.loc 1 34 13 view .LVU18
 103 002c 032B     		cmp	r3, #3
 104 002e 0AD0     		beq	.L16
 105              	.L6:
  35:User/Modbus/modbus_data.c ****             {
  36:User/Modbus/modbus_data.c ****                 case R_HOLD_REGS:   // fc is read
  37:User/Modbus/modbus_data.c ****                 {
  38:User/Modbus/modbus_data.c ****                     uint8_t id_slaver;
  39:User/Modbus/modbus_data.c ****                     uint16_t total_reg;
  40:User/Modbus/modbus_data.c ****                     id_slaver = dma_uart2_rx.data[0];
  41:User/Modbus/modbus_data.c **** 					total_reg = dma_uart2_rx.data[2]/2;
  42:User/Modbus/modbus_data.c **** 
  43:User/Modbus/modbus_data.c ****                     if(id_slaver > MB_MASTER_SLAVE_NUM || slave.reg_hold_start + total_reg > NoB_HO
  44:User/Modbus/modbus_data.c ****                         return;
  45:User/Modbus/modbus_data.c ****                     for(int i = slave.reg_hold_start, j = 3; i < slave.reg_hold_start + total_reg; 
  46:User/Modbus/modbus_data.c ****                     {
  47:User/Modbus/modbus_data.c ****                         modbus_master_hold_buf[id_slaver-1][i] = dma_uart2_rx.data[j] << 8 | dma_ua
  48:User/Modbus/modbus_data.c ****                     }
  49:User/Modbus/modbus_data.c ****                     break;
  50:User/Modbus/modbus_data.c ****                 }
  51:User/Modbus/modbus_data.c ****                 case W_SINGLE_REG: // single write
  52:User/Modbus/modbus_data.c **** 
  53:User/Modbus/modbus_data.c ****                     break;
  54:User/Modbus/modbus_data.c **** 
  55:User/Modbus/modbus_data.c ****                 default:
  56:User/Modbus/modbus_data.c ****                     break;
  57:User/Modbus/modbus_data.c ****             }
  58:User/Modbus/modbus_data.c ****         }
  59:User/Modbus/modbus_data.c ****         else
  60:User/Modbus/modbus_data.c ****         {
  61:User/Modbus/modbus_data.c ****             printf("Check CRC Error @@\n");
  62:User/Modbus/modbus_data.c ****             return MC_IDERR;
  63:User/Modbus/modbus_data.c ****         }
  64:User/Modbus/modbus_data.c ****         /* Reset */
ARM GAS  C:\Users\BLACK_~1\AppData\Local\Temp\ccwoWP7b.s 			page 4


  65:User/Modbus/modbus_data.c ****         slave.index = WATTING_OK;
 106              		.loc 1 65 9 is_stmt 1 view .LVU19
 107              		.loc 1 65 21 is_stmt 0 view .LVU20
 108 0030 1C4A     		ldr	r2, .L17+4
 109 0032 0223     		movs	r3, #2
 110 0034 D372     		strb	r3, [r2, #11]
  66:User/Modbus/modbus_data.c ****         slave.wait = NOWAIT;
 111              		.loc 1 66 9 is_stmt 1 view .LVU21
 112              		.loc 1 66 20 is_stmt 0 view .LVU22
 113 0036 0023     		movs	r3, #0
 114 0038 9372     		strb	r3, [r2, #10]
  67:User/Modbus/modbus_data.c ****         dma_uart2_rx.state = 0;
 115              		.loc 1 67 9 is_stmt 1 view .LVU23
 116              		.loc 1 67 28 is_stmt 0 view .LVU24
 117 003a 194A     		ldr	r2, .L17
 118 003c 82F80134 		strb	r3, [r2, #1025]
  68:User/Modbus/modbus_data.c ****         dma_uart2_rx.length = 0;
 119              		.loc 1 68 9 is_stmt 1 view .LVU25
 120              		.loc 1 68 29 is_stmt 0 view .LVU26
 121 0040 A2F80234 		strh	r3, [r2, #1026]	@ movhi
  69:User/Modbus/modbus_data.c ****     }
  70:User/Modbus/modbus_data.c ****     
  71:User/Modbus/modbus_data.c **** }
 122              		.loc 1 71 1 view .LVU27
 123 0044 2AE0     		b	.L3
 124              	.L16:
 125              	.LBB2:
  38:User/Modbus/modbus_data.c ****                     uint16_t total_reg;
 126              		.loc 1 38 21 is_stmt 1 view .LVU28
  39:User/Modbus/modbus_data.c ****                     id_slaver = dma_uart2_rx.data[0];
 127              		.loc 1 39 21 view .LVU29
  40:User/Modbus/modbus_data.c **** 					total_reg = dma_uart2_rx.data[2]/2;
 128              		.loc 1 40 21 view .LVU30
  40:User/Modbus/modbus_data.c **** 					total_reg = dma_uart2_rx.data[2]/2;
 129              		.loc 1 40 31 is_stmt 0 view .LVU31
 130 0046 164B     		ldr	r3, .L17
 131 0048 93F801E0 		ldrb	lr, [r3, #1]	@ zero_extendqisi2
 132              	.LVL4:
  41:User/Modbus/modbus_data.c **** 
 133              		.loc 1 41 6 is_stmt 1 view .LVU32
  41:User/Modbus/modbus_data.c **** 
 134              		.loc 1 41 35 is_stmt 0 view .LVU33
 135 004c 93F803C0 		ldrb	ip, [r3, #3]	@ zero_extendqisi2
  41:User/Modbus/modbus_data.c **** 
 136              		.loc 1 41 16 view .LVU34
 137 0050 4FEA5C0C 		lsr	ip, ip, #1
 138              	.LVL5:
  43:User/Modbus/modbus_data.c ****                         return;
 139              		.loc 1 43 21 is_stmt 1 view .LVU35
  43:User/Modbus/modbus_data.c ****                         return;
 140              		.loc 1 43 23 is_stmt 0 view .LVU36
 141 0054 BEF1100F 		cmp	lr, #16
 142 0058 20D8     		bhi	.L3
  43:User/Modbus/modbus_data.c ****                         return;
 143              		.loc 1 43 64 discriminator 1 view .LVU37
 144 005a 124B     		ldr	r3, .L17+4
 145 005c 5A88     		ldrh	r2, [r3, #2]
ARM GAS  C:\Users\BLACK_~1\AppData\Local\Temp\ccwoWP7b.s 			page 5


  43:User/Modbus/modbus_data.c ****                         return;
 146              		.loc 1 43 80 discriminator 1 view .LVU38
 147 005e 9444     		add	ip, ip, r2
 148              	.LVL6:
  43:User/Modbus/modbus_data.c ****                         return;
 149              		.loc 1 43 56 discriminator 1 view .LVU39
 150 0060 BCF1C80F 		cmp	ip, #200
 151 0064 1ADC     		bgt	.L3
 152              	.LBB3:
  45:User/Modbus/modbus_data.c ****                     {
 153              		.loc 1 45 55 view .LVU40
 154 0066 0321     		movs	r1, #3
 155 0068 11E0     		b	.L8
 156              	.LVL7:
 157              	.L9:
  47:User/Modbus/modbus_data.c ****                     }
 158              		.loc 1 47 25 is_stmt 1 discriminator 3 view .LVU41
  47:User/Modbus/modbus_data.c ****                     }
 159              		.loc 1 47 83 is_stmt 0 discriminator 3 view .LVU42
 160 006a 0D4B     		ldr	r3, .L17
 161              	.LVL8:
  47:User/Modbus/modbus_data.c ****                     }
 162              		.loc 1 47 83 discriminator 3 view .LVU43
 163 006c 5818     		adds	r0, r3, r1
 164 006e 4478     		ldrb	r4, [r0, #1]	@ zero_extendqisi2
  47:User/Modbus/modbus_data.c ****                     }
 165              		.loc 1 47 114 discriminator 3 view .LVU44
 166 0070 481C     		adds	r0, r1, #1
  47:User/Modbus/modbus_data.c ****                     }
 167              		.loc 1 47 111 discriminator 3 view .LVU45
 168 0072 0344     		add	r3, r3, r0
 169              	.LVL9:
  47:User/Modbus/modbus_data.c ****                     }
 170              		.loc 1 47 111 discriminator 3 view .LVU46
 171 0074 5878     		ldrb	r0, [r3, #1]	@ zero_extendqisi2
  47:User/Modbus/modbus_data.c ****                     }
 172              		.loc 1 47 57 discriminator 3 view .LVU47
 173 0076 0EF1FF33 		add	r3, lr, #-1
  47:User/Modbus/modbus_data.c ****                     }
 174              		.loc 1 47 92 discriminator 3 view .LVU48
 175 007a 40EA0420 		orr	r0, r0, r4, lsl #8
  47:User/Modbus/modbus_data.c ****                     }
 176              		.loc 1 47 64 discriminator 3 view .LVU49
 177 007e C824     		movs	r4, #200
 178 0080 04FB0323 		mla	r3, r4, r3, r2
 179 0084 084C     		ldr	r4, .L17+8
 180 0086 24F81300 		strh	r0, [r4, r3, lsl #1]	@ movhi
  45:User/Modbus/modbus_data.c ****                     {
 181              		.loc 1 45 100 is_stmt 1 discriminator 3 view .LVU50
  45:User/Modbus/modbus_data.c ****                     {
 182              		.loc 1 45 101 is_stmt 0 discriminator 3 view .LVU51
 183 008a 0132     		adds	r2, r2, #1
 184              	.LVL10:
  45:User/Modbus/modbus_data.c ****                     {
 185              		.loc 1 45 107 discriminator 3 view .LVU52
 186 008c 0231     		adds	r1, r1, #2
 187              	.LVL11:
ARM GAS  C:\Users\BLACK_~1\AppData\Local\Temp\ccwoWP7b.s 			page 6


 188              	.L8:
  45:User/Modbus/modbus_data.c ****                     {
 189              		.loc 1 45 62 is_stmt 1 discriminator 1 view .LVU53
  45:User/Modbus/modbus_data.c ****                     {
 190              		.loc 1 45 21 is_stmt 0 discriminator 1 view .LVU54
 191 008e 9445     		cmp	ip, r2
 192 0090 EBDC     		bgt	.L9
 193 0092 CDE7     		b	.L6
 194              	.LVL12:
 195              	.L5:
  45:User/Modbus/modbus_data.c ****                     {
 196              		.loc 1 45 21 discriminator 1 view .LVU55
 197              	.LBE3:
 198              	.LBE2:
  61:User/Modbus/modbus_data.c ****             return MC_IDERR;
 199              		.loc 1 61 13 is_stmt 1 view .LVU56
 200 0094 0548     		ldr	r0, .L17+12
 201 0096 FFF7FEFF 		bl	puts
 202              	.LVL13:
  62:User/Modbus/modbus_data.c ****         }
 203              		.loc 1 62 13 view .LVU57
  62:User/Modbus/modbus_data.c ****         }
 204              		.loc 1 62 20 is_stmt 0 view .LVU58
 205 009a 0220     		movs	r0, #2
 206              	.L3:
 207              		.loc 1 71 1 view .LVU59
 208 009c 10BD     		pop	{r4, pc}
 209              	.L12:
 210              	.LCFI2:
 211              		.cfi_def_cfa_offset 0
 212              		.cfi_restore 4
 213              		.cfi_restore 14
 214 009e 7047     		bx	lr
 215              	.L18:
 216              		.align	2
 217              	.L17:
 218 00a0 00000000 		.word	dma_uart2_rx
 219 00a4 00000000 		.word	.LANCHOR0
 220 00a8 00000000 		.word	modbus_master_hold_buf
 221 00ac 00000000 		.word	.LC0
 222              		.cfi_endproc
 223              	.LFE198:
 225              		.section	.text.Modbus_Master_Read_HoldRegs,"ax",%progbits
 226              		.align	1
 227              		.global	Modbus_Master_Read_HoldRegs
 228              		.syntax unified
 229              		.thumb
 230              		.thumb_func
 232              	Modbus_Master_Read_HoldRegs:
 233              	.LVL14:
 234              	.LFB199:
  72:User/Modbus/modbus_data.c **** 
  73:User/Modbus/modbus_data.c **** // Doc gia tri thanh ghi
  74:User/Modbus/modbus_data.c **** MB_Error_Code_t Modbus_Master_Read_HoldRegs(uint8_t id, uint16_t start_reg, uint16_t total_num, uin
  75:User/Modbus/modbus_data.c **** {
 235              		.loc 1 75 1 is_stmt 1 view -0
 236              		.cfi_startproc
ARM GAS  C:\Users\BLACK_~1\AppData\Local\Temp\ccwoWP7b.s 			page 7


 237              		@ args = 0, pretend = 0, frame = 8
 238              		@ frame_needed = 0, uses_anonymous_args = 0
 239              		.loc 1 75 1 is_stmt 0 view .LVU61
 240 0000 30B5     		push	{r4, r5, lr}
 241              	.LCFI3:
 242              		.cfi_def_cfa_offset 12
 243              		.cfi_offset 4, -12
 244              		.cfi_offset 5, -8
 245              		.cfi_offset 14, -4
 246 0002 83B0     		sub	sp, sp, #12
 247              	.LCFI4:
 248              		.cfi_def_cfa_offset 24
  76:User/Modbus/modbus_data.c ****     MB_Error_Code_t mbStatus = MB_ENOERR;
 249              		.loc 1 76 5 is_stmt 1 view .LVU62
 250              	.LVL15:
  77:User/Modbus/modbus_data.c **** 
  78:User/Modbus/modbus_data.c ****     switch (slave.index)
 251              		.loc 1 78 5 view .LVU63
 252              		.loc 1 78 18 is_stmt 0 view .LVU64
 253 0004 234C     		ldr	r4, .L26
 254 0006 E47A     		ldrb	r4, [r4, #11]	@ zero_extendqisi2
 255              		.loc 1 78 5 view .LVU65
 256 0008 012C     		cmp	r4, #1
 257 000a 29D0     		beq	.L20
 258 000c 022C     		cmp	r4, #2
 259 000e 3AD0     		beq	.L21
 260 0010 0CB1     		cbz	r4, .L25
 261              	.LVL16:
 262              	.L19:
  79:User/Modbus/modbus_data.c ****     {
  80:User/Modbus/modbus_data.c ****         case NOWAIT:
  81:User/Modbus/modbus_data.c ****             // transmit data
  82:User/Modbus/modbus_data.c ****             slave.id = id;
  83:User/Modbus/modbus_data.c ****             slave.reg_hold_start = start_reg;
  84:User/Modbus/modbus_data.c ****             slave.reg_hold_total = total_num;
  85:User/Modbus/modbus_data.c ****             uint8_t payload[8] = {id, R_HOLD_REGS, start_reg<<8, start_reg, total_num<<8, total_num
  86:User/Modbus/modbus_data.c ****             uint16_t i = Modbus_Create_Crc16(payload, 6);
  87:User/Modbus/modbus_data.c ****             payload[6] = (uint8_t)i;
  88:User/Modbus/modbus_data.c ****             payload[7] = (uint8_t)(i>>8);
  89:User/Modbus/modbus_data.c ****             mbStatus = Uart2_Send_Data(payload, 8);
  90:User/Modbus/modbus_data.c ****             slave.index = slave.wait = WAITING;
  91:User/Modbus/modbus_data.c ****             slave.time_out = HAL_GetTick();
  92:User/Modbus/modbus_data.c ****             break;
  93:User/Modbus/modbus_data.c ****         case WAITING:
  94:User/Modbus/modbus_data.c ****             // check time out
  95:User/Modbus/modbus_data.c ****             if(HAL_GetTick() - slave.time_out >= timeout && slave.wait == WAITING)
  96:User/Modbus/modbus_data.c ****             {
  97:User/Modbus/modbus_data.c ****                     slave.status = MB_ETIMEDOUT;
  98:User/Modbus/modbus_data.c ****                     slave.index = slave.wait = NOWAIT;
  99:User/Modbus/modbus_data.c ****                     // printf("error time out\n");
 100:User/Modbus/modbus_data.c ****                     return mbStatus;
 101:User/Modbus/modbus_data.c ****             }
 102:User/Modbus/modbus_data.c ****             break;
 103:User/Modbus/modbus_data.c ****         case WATTING_OK:
 104:User/Modbus/modbus_data.c ****             // respont data ok
 105:User/Modbus/modbus_data.c ****             slave.index = NOWAIT;
 106:User/Modbus/modbus_data.c ****             slave.status = MB_ENOERR;
ARM GAS  C:\Users\BLACK_~1\AppData\Local\Temp\ccwoWP7b.s 			page 8


 107:User/Modbus/modbus_data.c ****             return 0;
 108:User/Modbus/modbus_data.c ****         default:
 109:User/Modbus/modbus_data.c ****             break;
 110:User/Modbus/modbus_data.c ****     }
 111:User/Modbus/modbus_data.c **** }
 263              		.loc 1 111 1 view .LVU66
 264 0012 03B0     		add	sp, sp, #12
 265              	.LCFI5:
 266              		.cfi_remember_state
 267              		.cfi_def_cfa_offset 12
 268              		@ sp needed
 269 0014 30BD     		pop	{r4, r5, pc}
 270              	.LVL17:
 271              	.L25:
 272              	.LCFI6:
 273              		.cfi_restore_state
 274              	.LBB4:
  82:User/Modbus/modbus_data.c ****             slave.reg_hold_start = start_reg;
 275              		.loc 1 82 13 is_stmt 1 view .LVU67
  82:User/Modbus/modbus_data.c ****             slave.reg_hold_start = start_reg;
 276              		.loc 1 82 22 is_stmt 0 view .LVU68
 277 0016 1F4C     		ldr	r4, .L26
 278 0018 2070     		strb	r0, [r4]
  83:User/Modbus/modbus_data.c ****             slave.reg_hold_total = total_num;
 279              		.loc 1 83 13 is_stmt 1 view .LVU69
  83:User/Modbus/modbus_data.c ****             slave.reg_hold_total = total_num;
 280              		.loc 1 83 34 is_stmt 0 view .LVU70
 281 001a 6180     		strh	r1, [r4, #2]	@ movhi
  84:User/Modbus/modbus_data.c ****             uint8_t payload[8] = {id, R_HOLD_REGS, start_reg<<8, start_reg, total_num<<8, total_num
 282              		.loc 1 84 13 is_stmt 1 view .LVU71
  84:User/Modbus/modbus_data.c ****             uint8_t payload[8] = {id, R_HOLD_REGS, start_reg<<8, start_reg, total_num<<8, total_num
 283              		.loc 1 84 34 is_stmt 0 view .LVU72
 284 001c A280     		strh	r2, [r4, #4]	@ movhi
  85:User/Modbus/modbus_data.c ****             uint16_t i = Modbus_Create_Crc16(payload, 6);
 285              		.loc 1 85 13 is_stmt 1 view .LVU73
  85:User/Modbus/modbus_data.c ****             uint16_t i = Modbus_Create_Crc16(payload, 6);
 286              		.loc 1 85 21 is_stmt 0 view .LVU74
 287 001e 0023     		movs	r3, #0
 288              	.LVL18:
  85:User/Modbus/modbus_data.c ****             uint16_t i = Modbus_Create_Crc16(payload, 6);
 289              		.loc 1 85 21 view .LVU75
 290 0020 0093     		str	r3, [sp]
 291 0022 0193     		str	r3, [sp, #4]
 292 0024 8DF80000 		strb	r0, [sp]
 293 0028 0323     		movs	r3, #3
 294 002a 8DF80130 		strb	r3, [sp, #1]
 295 002e 8DF80310 		strb	r1, [sp, #3]
 296 0032 8DF80520 		strb	r2, [sp, #5]
  86:User/Modbus/modbus_data.c ****             payload[6] = (uint8_t)i;
 297              		.loc 1 86 13 is_stmt 1 view .LVU76
  86:User/Modbus/modbus_data.c ****             payload[6] = (uint8_t)i;
 298              		.loc 1 86 26 is_stmt 0 view .LVU77
 299 0036 0621     		movs	r1, #6
 300              	.LVL19:
  86:User/Modbus/modbus_data.c ****             payload[6] = (uint8_t)i;
 301              		.loc 1 86 26 view .LVU78
 302 0038 6846     		mov	r0, sp
ARM GAS  C:\Users\BLACK_~1\AppData\Local\Temp\ccwoWP7b.s 			page 9


 303              	.LVL20:
  86:User/Modbus/modbus_data.c ****             payload[6] = (uint8_t)i;
 304              		.loc 1 86 26 view .LVU79
 305 003a FFF7FEFF 		bl	Modbus_Create_Crc16
 306              	.LVL21:
  87:User/Modbus/modbus_data.c ****             payload[7] = (uint8_t)(i>>8);
 307              		.loc 1 87 13 is_stmt 1 view .LVU80
  87:User/Modbus/modbus_data.c ****             payload[7] = (uint8_t)(i>>8);
 308              		.loc 1 87 24 is_stmt 0 view .LVU81
 309 003e 8DF80600 		strb	r0, [sp, #6]
  88:User/Modbus/modbus_data.c ****             mbStatus = Uart2_Send_Data(payload, 8);
 310              		.loc 1 88 13 is_stmt 1 view .LVU82
  88:User/Modbus/modbus_data.c ****             mbStatus = Uart2_Send_Data(payload, 8);
 311              		.loc 1 88 26 is_stmt 0 view .LVU83
 312 0042 C0F30720 		ubfx	r0, r0, #8, #8
 313              	.LVL22:
  88:User/Modbus/modbus_data.c ****             mbStatus = Uart2_Send_Data(payload, 8);
 314              		.loc 1 88 24 view .LVU84
 315 0046 8DF80700 		strb	r0, [sp, #7]
  89:User/Modbus/modbus_data.c ****             slave.index = slave.wait = WAITING;
 316              		.loc 1 89 13 is_stmt 1 view .LVU85
  89:User/Modbus/modbus_data.c ****             slave.index = slave.wait = WAITING;
 317              		.loc 1 89 24 is_stmt 0 view .LVU86
 318 004a 0821     		movs	r1, #8
 319 004c 6846     		mov	r0, sp
 320 004e FFF7FEFF 		bl	Uart2_Send_Data
 321              	.LVL23:
  90:User/Modbus/modbus_data.c ****             slave.time_out = HAL_GetTick();
 322              		.loc 1 90 13 is_stmt 1 view .LVU87
  90:User/Modbus/modbus_data.c ****             slave.time_out = HAL_GetTick();
 323              		.loc 1 90 38 is_stmt 0 view .LVU88
 324 0052 0123     		movs	r3, #1
 325 0054 A372     		strb	r3, [r4, #10]
  90:User/Modbus/modbus_data.c ****             slave.time_out = HAL_GetTick();
 326              		.loc 1 90 25 view .LVU89
 327 0056 E372     		strb	r3, [r4, #11]
  91:User/Modbus/modbus_data.c ****             break;
 328              		.loc 1 91 13 is_stmt 1 view .LVU90
  91:User/Modbus/modbus_data.c ****             break;
 329              		.loc 1 91 30 is_stmt 0 view .LVU91
 330 0058 FFF7FEFF 		bl	HAL_GetTick
 331              	.LVL24:
  91:User/Modbus/modbus_data.c ****             break;
 332              		.loc 1 91 28 view .LVU92
 333 005c E080     		strh	r0, [r4, #6]	@ movhi
  92:User/Modbus/modbus_data.c ****         case WAITING:
 334              		.loc 1 92 13 is_stmt 1 view .LVU93
 335 005e D8E7     		b	.L19
 336              	.LVL25:
 337              	.L20:
  92:User/Modbus/modbus_data.c ****         case WAITING:
 338              		.loc 1 92 13 is_stmt 0 view .LVU94
 339 0060 1D46     		mov	r5, r3
  95:User/Modbus/modbus_data.c ****             {
 340              		.loc 1 95 13 is_stmt 1 view .LVU95
  95:User/Modbus/modbus_data.c ****             {
 341              		.loc 1 95 16 is_stmt 0 view .LVU96
ARM GAS  C:\Users\BLACK_~1\AppData\Local\Temp\ccwoWP7b.s 			page 10


 342 0062 FFF7FEFF 		bl	HAL_GetTick
 343              	.LVL26:
  95:User/Modbus/modbus_data.c ****             {
 344              		.loc 1 95 37 view .LVU97
 345 0066 0B4B     		ldr	r3, .L26
 346 0068 DB88     		ldrh	r3, [r3, #6]
  95:User/Modbus/modbus_data.c ****             {
 347              		.loc 1 95 30 view .LVU98
 348 006a C01A     		subs	r0, r0, r3
  95:User/Modbus/modbus_data.c ****             {
 349              		.loc 1 95 15 view .LVU99
 350 006c A842     		cmp	r0, r5
 351 006e D0D3     		bcc	.L19
  95:User/Modbus/modbus_data.c ****             {
 352              		.loc 1 95 66 discriminator 1 view .LVU100
 353 0070 084B     		ldr	r3, .L26
 354 0072 9B7A     		ldrb	r3, [r3, #10]	@ zero_extendqisi2
  95:User/Modbus/modbus_data.c ****             {
 355              		.loc 1 95 58 discriminator 1 view .LVU101
 356 0074 012B     		cmp	r3, #1
 357 0076 CCD1     		bne	.L19
  97:User/Modbus/modbus_data.c ****                     slave.index = slave.wait = NOWAIT;
 358              		.loc 1 97 21 is_stmt 1 view .LVU102
  97:User/Modbus/modbus_data.c ****                     slave.index = slave.wait = NOWAIT;
 359              		.loc 1 97 34 is_stmt 0 view .LVU103
 360 0078 064B     		ldr	r3, .L26
 361 007a 0322     		movs	r2, #3
 362 007c 1A81     		strh	r2, [r3, #8]	@ movhi
  98:User/Modbus/modbus_data.c ****                     // printf("error time out\n");
 363              		.loc 1 98 21 is_stmt 1 view .LVU104
  98:User/Modbus/modbus_data.c ****                     // printf("error time out\n");
 364              		.loc 1 98 46 is_stmt 0 view .LVU105
 365 007e 0022     		movs	r2, #0
 366 0080 9A72     		strb	r2, [r3, #10]
  98:User/Modbus/modbus_data.c ****                     // printf("error time out\n");
 367              		.loc 1 98 33 view .LVU106
 368 0082 DA72     		strb	r2, [r3, #11]
 100:User/Modbus/modbus_data.c ****             }
 369              		.loc 1 100 21 is_stmt 1 view .LVU107
 100:User/Modbus/modbus_data.c ****             }
 370              		.loc 1 100 28 is_stmt 0 view .LVU108
 371 0084 03E0     		b	.L23
 372              	.LVL27:
 373              	.L21:
 105:User/Modbus/modbus_data.c ****             slave.status = MB_ENOERR;
 374              		.loc 1 105 13 is_stmt 1 view .LVU109
 105:User/Modbus/modbus_data.c ****             slave.status = MB_ENOERR;
 375              		.loc 1 105 25 is_stmt 0 view .LVU110
 376 0086 034B     		ldr	r3, .L26
 377              	.LVL28:
 105:User/Modbus/modbus_data.c ****             slave.status = MB_ENOERR;
 378              		.loc 1 105 25 view .LVU111
 379 0088 0022     		movs	r2, #0
 380              	.LVL29:
 105:User/Modbus/modbus_data.c ****             slave.status = MB_ENOERR;
 381              		.loc 1 105 25 view .LVU112
 382 008a DA72     		strb	r2, [r3, #11]
ARM GAS  C:\Users\BLACK_~1\AppData\Local\Temp\ccwoWP7b.s 			page 11


 106:User/Modbus/modbus_data.c ****             return 0;
 383              		.loc 1 106 13 is_stmt 1 view .LVU113
 106:User/Modbus/modbus_data.c ****             return 0;
 384              		.loc 1 106 26 is_stmt 0 view .LVU114
 385 008c 1A81     		strh	r2, [r3, #8]	@ movhi
 107:User/Modbus/modbus_data.c ****         default:
 386              		.loc 1 107 13 is_stmt 1 view .LVU115
 387              	.LVL30:
 388              	.L23:
 107:User/Modbus/modbus_data.c ****         default:
 389              		.loc 1 107 13 is_stmt 0 view .LVU116
 390              	.LBE4:
 391              		.loc 1 111 1 discriminator 1 view .LVU117
 392 008e 0020     		movs	r0, #0
 393 0090 BFE7     		b	.L19
 394              	.L27:
 395 0092 00BF     		.align	2
 396              	.L26:
 397 0094 00000000 		.word	.LANCHOR0
 398              		.cfi_endproc
 399              	.LFE199:
 401              		.global	modbus_tick_timeout
 402              		.global	modbus_master_hold_buf
 403              		.global	modbus_input_buf
 404              		.global	modbus_holding_buf
 405              		.global	slave
 406              		.section	.bss.modbus_holding_buf,"aw",%nobits
 407              		.align	2
 410              	modbus_holding_buf:
 411 0000 00000000 		.space	400
 411      00000000 
 411      00000000 
 411      00000000 
 411      00000000 
 412              		.section	.bss.modbus_input_buf,"aw",%nobits
 413              		.align	2
 416              	modbus_input_buf:
 417 0000 00000000 		.space	400
 417      00000000 
 417      00000000 
 417      00000000 
 417      00000000 
 418              		.section	.bss.modbus_master_hold_buf,"aw",%nobits
 419              		.align	2
 422              	modbus_master_hold_buf:
 423 0000 00000000 		.space	6400
 423      00000000 
 423      00000000 
 423      00000000 
 423      00000000 
 424              		.section	.bss.modbus_tick_timeout,"aw",%nobits
 425              		.align	2
 428              	modbus_tick_timeout:
 429 0000 00000000 		.space	4
 430              		.section	.bss.slave,"aw",%nobits
 431              		.align	2
 432              		.set	.LANCHOR0,. + 0
ARM GAS  C:\Users\BLACK_~1\AppData\Local\Temp\ccwoWP7b.s 			page 12


 435              	slave:
 436 0000 00000000 		.space	12
 436      00000000 
 436      00000000 
 437              		.text
 438              	.Letext0:
 439              		.file 2 "e:\\gnu arm embedded toolchain\\10 2021.10\\arm-none-eabi\\include\\machine\\_default_typ
 440              		.file 3 "e:\\gnu arm embedded toolchain\\10 2021.10\\arm-none-eabi\\include\\sys\\_stdint.h"
 441              		.file 4 "User/Modbus/modbus_data.h"
 442              		.file 5 "User/Modbus/usart.h"
 443              		.file 6 "User/Modbus/modbus_crc.h"
 444              		.file 7 "Inc/stm32f1xx_hal.h"
 445              		.file 8 "<built-in>"
ARM GAS  C:\Users\BLACK_~1\AppData\Local\Temp\ccwoWP7b.s 			page 13


DEFINED SYMBOLS
                            *ABS*:00000000 modbus_data.c
C:\Users\BLACK_~1\AppData\Local\Temp\ccwoWP7b.s:18     .text.Modbus_Master_DMA_Init:00000000 $t
C:\Users\BLACK_~1\AppData\Local\Temp\ccwoWP7b.s:24     .text.Modbus_Master_DMA_Init:00000000 Modbus_Master_DMA_Init
C:\Users\BLACK_~1\AppData\Local\Temp\ccwoWP7b.s:50     .rodata.Modbus_Master_DMA_Process.str1.4:00000000 $d
C:\Users\BLACK_~1\AppData\Local\Temp\ccwoWP7b.s:54     .text.Modbus_Master_DMA_Process:00000000 $t
C:\Users\BLACK_~1\AppData\Local\Temp\ccwoWP7b.s:60     .text.Modbus_Master_DMA_Process:00000000 Modbus_Master_DMA_Process
C:\Users\BLACK_~1\AppData\Local\Temp\ccwoWP7b.s:218    .text.Modbus_Master_DMA_Process:000000a0 $d
C:\Users\BLACK_~1\AppData\Local\Temp\ccwoWP7b.s:422    .bss.modbus_master_hold_buf:00000000 modbus_master_hold_buf
C:\Users\BLACK_~1\AppData\Local\Temp\ccwoWP7b.s:226    .text.Modbus_Master_Read_HoldRegs:00000000 $t
C:\Users\BLACK_~1\AppData\Local\Temp\ccwoWP7b.s:232    .text.Modbus_Master_Read_HoldRegs:00000000 Modbus_Master_Read_HoldRegs
C:\Users\BLACK_~1\AppData\Local\Temp\ccwoWP7b.s:397    .text.Modbus_Master_Read_HoldRegs:00000094 $d
C:\Users\BLACK_~1\AppData\Local\Temp\ccwoWP7b.s:428    .bss.modbus_tick_timeout:00000000 modbus_tick_timeout
C:\Users\BLACK_~1\AppData\Local\Temp\ccwoWP7b.s:416    .bss.modbus_input_buf:00000000 modbus_input_buf
C:\Users\BLACK_~1\AppData\Local\Temp\ccwoWP7b.s:410    .bss.modbus_holding_buf:00000000 modbus_holding_buf
C:\Users\BLACK_~1\AppData\Local\Temp\ccwoWP7b.s:435    .bss.slave:00000000 slave
C:\Users\BLACK_~1\AppData\Local\Temp\ccwoWP7b.s:407    .bss.modbus_holding_buf:00000000 $d
C:\Users\BLACK_~1\AppData\Local\Temp\ccwoWP7b.s:413    .bss.modbus_input_buf:00000000 $d
C:\Users\BLACK_~1\AppData\Local\Temp\ccwoWP7b.s:419    .bss.modbus_master_hold_buf:00000000 $d
C:\Users\BLACK_~1\AppData\Local\Temp\ccwoWP7b.s:425    .bss.modbus_tick_timeout:00000000 $d
C:\Users\BLACK_~1\AppData\Local\Temp\ccwoWP7b.s:431    .bss.slave:00000000 $d

UNDEFINED SYMBOLS
MX_USART2_UART_Init
Modbus_Check_Crc16
puts
dma_uart2_rx
Modbus_Create_Crc16
Uart2_Send_Data
HAL_GetTick
