ARM GAS  C:\Users\BLACK_~1\AppData\Local\Temp\ccLnqA3n.s 			page 1


   1              		.cpu cortex-m3
   2              		.arch armv7-m
   3              		.fpu softvfp
   4              		.eabi_attribute 20, 1
   5              		.eabi_attribute 21, 1
   6              		.eabi_attribute 23, 3
   7              		.eabi_attribute 24, 1
   8              		.eabi_attribute 25, 1
   9              		.eabi_attribute 26, 1
  10              		.eabi_attribute 30, 1
  11              		.eabi_attribute 34, 1
  12              		.eabi_attribute 18, 4
  13              		.file	"portserial.c"
  14              		.text
  15              	.Ltext0:
  16              		.cfi_sections	.debug_frame
  17              		.section	.text.xMBPortSerialInit,"ax",%progbits
  18              		.align	1
  19              		.global	xMBPortSerialInit
  20              		.syntax unified
  21              		.thumb
  22              		.thumb_func
  24              	xMBPortSerialInit:
  25              	.LVL0:
  26              	.LFB65:
  27              		.file 1 "FreeModbus/port/portserial.c"
   1:FreeModbus/port/portserial.c **** #include "port.h"
   2:FreeModbus/port/portserial.c **** #include "mb.h"
   3:FreeModbus/port/portserial.c **** #include "mbport.h"
   4:FreeModbus/port/portserial.c **** #include "usart.h"
   5:FreeModbus/port/portserial.c **** #include "portserial.h"
   6:FreeModbus/port/portserial.c **** 
   7:FreeModbus/port/portserial.c **** #if MB_SLAVE_RTU_ENABLED > 0 || MB_SLAVE_ASCII_ENABLED > 0
   8:FreeModbus/port/portserial.c **** 
   9:FreeModbus/port/portserial.c **** /* ----------------------- Static variables ---------------------------------*/
  10:FreeModbus/port/portserial.c **** UART_HandleTypeDef *uart;
  11:FreeModbus/port/portserial.c **** uint8_t singlechar;
  12:FreeModbus/port/portserial.c **** 
  13:FreeModbus/port/portserial.c **** /* ----------------------- User defenitions ---------------------------------*/
  14:FreeModbus/port/portserial.c **** // #define RS485_RTS_LOW	HAL_GPIO_WritePin(RS485_RTS_GPIO_Port, RS485_RTS_Pin, GPIO_PIN_RESET)
  15:FreeModbus/port/portserial.c **** // #define RS485_RTS_HIGH 	HAL_GPIO_WritePin(RS485_RTS_GPIO_Port, RS485_RTS_Pin, GPIO_PIN_SET)
  16:FreeModbus/port/portserial.c **** 
  17:FreeModbus/port/portserial.c **** 
  18:FreeModbus/port/portserial.c **** /* ----------------------- Start implementation -----------------------------*/
  19:FreeModbus/port/portserial.c **** BOOL xMBPortSerialInit( void *dHUART, ULONG ulBaudRate, void *dHTIM )
  20:FreeModbus/port/portserial.c **** {
  28              		.loc 1 20 1 view -0
  29              		.cfi_startproc
  30              		@ args = 0, pretend = 0, frame = 0
  31              		@ frame_needed = 0, uses_anonymous_args = 0
  32              		@ link register save eliminated.
  21:FreeModbus/port/portserial.c **** 	uart = (UART_HandleTypeDef *)dHUART;
  33              		.loc 1 21 2 view .LVU1
  34              		.loc 1 21 7 is_stmt 0 view .LVU2
  35 0000 014B     		ldr	r3, .L2
  36 0002 1860     		str	r0, [r3]
  22:FreeModbus/port/portserial.c **** 
ARM GAS  C:\Users\BLACK_~1\AppData\Local\Temp\ccLnqA3n.s 			page 2


  23:FreeModbus/port/portserial.c **** 	return TRUE;
  37              		.loc 1 23 2 is_stmt 1 view .LVU3
  24:FreeModbus/port/portserial.c **** }
  38              		.loc 1 24 1 is_stmt 0 view .LVU4
  39 0004 0120     		movs	r0, #1
  40              	.LVL1:
  41              		.loc 1 24 1 view .LVU5
  42 0006 7047     		bx	lr
  43              	.L3:
  44              		.align	2
  45              	.L2:
  46 0008 00000000 		.word	.LANCHOR0
  47              		.cfi_endproc
  48              	.LFE65:
  50              		.section	.text.vMBPortSerialEnable,"ax",%progbits
  51              		.align	1
  52              		.global	vMBPortSerialEnable
  53              		.syntax unified
  54              		.thumb
  55              		.thumb_func
  57              	vMBPortSerialEnable:
  58              	.LVL2:
  59              	.LFB66:
  25:FreeModbus/port/portserial.c **** 
  26:FreeModbus/port/portserial.c **** void vMBPortSerialEnable(BOOL xRxEnable, BOOL xTxEnable)
  27:FreeModbus/port/portserial.c **** {
  60              		.loc 1 27 1 is_stmt 1 view -0
  61              		.cfi_startproc
  62              		@ args = 0, pretend = 0, frame = 0
  63              		@ frame_needed = 0, uses_anonymous_args = 0
  64              		.loc 1 27 1 is_stmt 0 view .LVU7
  65 0000 10B5     		push	{r4, lr}
  66              	.LCFI0:
  67              		.cfi_def_cfa_offset 8
  68              		.cfi_offset 4, -8
  69              		.cfi_offset 14, -4
  70 0002 0C46     		mov	r4, r1
  28:FreeModbus/port/portserial.c **** 	if(xRxEnable)
  71              		.loc 1 28 2 is_stmt 1 view .LVU8
  72              		.loc 1 28 4 is_stmt 0 view .LVU9
  73 0004 50B1     		cbz	r0, .L5
  29:FreeModbus/port/portserial.c **** 	{
  30:FreeModbus/port/portserial.c **** 		//RS485_RTS_LOW;
  31:FreeModbus/port/portserial.c **** 		HAL_UART_Receive_IT(uart, &singlechar, 1);
  74              		.loc 1 31 3 is_stmt 1 view .LVU10
  75 0006 0122     		movs	r2, #1
  76 0008 0949     		ldr	r1, .L10
  77              	.LVL3:
  78              		.loc 1 31 3 is_stmt 0 view .LVU11
  79 000a 0A4B     		ldr	r3, .L10+4
  80 000c 1868     		ldr	r0, [r3]
  81              	.LVL4:
  82              		.loc 1 31 3 view .LVU12
  83 000e FFF7FEFF 		bl	HAL_UART_Receive_IT
  84              	.LVL5:
  85              	.L6:
  32:FreeModbus/port/portserial.c **** 	}	
ARM GAS  C:\Users\BLACK_~1\AppData\Local\Temp\ccLnqA3n.s 			page 3


  33:FreeModbus/port/portserial.c **** 	else
  34:FreeModbus/port/portserial.c **** 	{
  35:FreeModbus/port/portserial.c **** 		HAL_UART_AbortReceive_IT(uart);
  36:FreeModbus/port/portserial.c **** 	}
  37:FreeModbus/port/portserial.c **** 
  38:FreeModbus/port/portserial.c **** 	if(xTxEnable)
  86              		.loc 1 38 2 is_stmt 1 view .LVU13
  87              		.loc 1 38 4 is_stmt 0 view .LVU14
  88 0012 44B1     		cbz	r4, .L7
  39:FreeModbus/port/portserial.c **** 	{
  40:FreeModbus/port/portserial.c **** 		//RS485_RTS_HIGH;
  41:FreeModbus/port/portserial.c **** 		pxMBFrameCBTransmitterEmpty();
  89              		.loc 1 41 3 is_stmt 1 view .LVU15
  90 0014 084B     		ldr	r3, .L10+8
  91 0016 1B68     		ldr	r3, [r3]
  92 0018 9847     		blx	r3
  93              	.LVL6:
  94              	.L4:
  42:FreeModbus/port/portserial.c **** 	}
  43:FreeModbus/port/portserial.c **** 	else
  44:FreeModbus/port/portserial.c **** 	{
  45:FreeModbus/port/portserial.c **** 		HAL_UART_AbortTransmit_IT(uart);
  46:FreeModbus/port/portserial.c **** 	}
  47:FreeModbus/port/portserial.c **** }
  95              		.loc 1 47 1 is_stmt 0 view .LVU16
  96 001a 10BD     		pop	{r4, pc}
  97              	.LVL7:
  98              	.L5:
  35:FreeModbus/port/portserial.c **** 	}
  99              		.loc 1 35 3 is_stmt 1 view .LVU17
 100 001c 054B     		ldr	r3, .L10+4
 101 001e 1868     		ldr	r0, [r3]
 102              	.LVL8:
  35:FreeModbus/port/portserial.c **** 	}
 103              		.loc 1 35 3 is_stmt 0 view .LVU18
 104 0020 FFF7FEFF 		bl	HAL_UART_AbortReceive_IT
 105              	.LVL9:
  35:FreeModbus/port/portserial.c **** 	}
 106              		.loc 1 35 3 view .LVU19
 107 0024 F5E7     		b	.L6
 108              	.L7:
  45:FreeModbus/port/portserial.c **** 	}
 109              		.loc 1 45 3 is_stmt 1 view .LVU20
 110 0026 034B     		ldr	r3, .L10+4
 111 0028 1868     		ldr	r0, [r3]
 112 002a FFF7FEFF 		bl	HAL_UART_AbortTransmit_IT
 113              	.LVL10:
 114              		.loc 1 47 1 is_stmt 0 view .LVU21
 115 002e F4E7     		b	.L4
 116              	.L11:
 117              		.align	2
 118              	.L10:
 119 0030 00000000 		.word	.LANCHOR1
 120 0034 00000000 		.word	.LANCHOR0
 121 0038 00000000 		.word	pxMBFrameCBTransmitterEmpty
 122              		.cfi_endproc
 123              	.LFE66:
ARM GAS  C:\Users\BLACK_~1\AppData\Local\Temp\ccLnqA3n.s 			page 4


 125              		.section	.text.vMBPortClose,"ax",%progbits
 126              		.align	1
 127              		.global	vMBPortClose
 128              		.syntax unified
 129              		.thumb
 130              		.thumb_func
 132              	vMBPortClose:
 133              	.LFB67:
  48:FreeModbus/port/portserial.c **** 
  49:FreeModbus/port/portserial.c **** void vMBPortClose(void)
  50:FreeModbus/port/portserial.c **** {
 134              		.loc 1 50 1 is_stmt 1 view -0
 135              		.cfi_startproc
 136              		@ args = 0, pretend = 0, frame = 0
 137              		@ frame_needed = 0, uses_anonymous_args = 0
 138 0000 10B5     		push	{r4, lr}
 139              	.LCFI1:
 140              		.cfi_def_cfa_offset 8
 141              		.cfi_offset 4, -8
 142              		.cfi_offset 14, -4
  51:FreeModbus/port/portserial.c **** 	HAL_UART_AbortReceive_IT(uart);
 143              		.loc 1 51 2 view .LVU23
 144 0002 044C     		ldr	r4, .L14
 145 0004 2068     		ldr	r0, [r4]
 146 0006 FFF7FEFF 		bl	HAL_UART_AbortReceive_IT
 147              	.LVL11:
  52:FreeModbus/port/portserial.c **** 	HAL_UART_AbortTransmit_IT(uart);
 148              		.loc 1 52 2 view .LVU24
 149 000a 2068     		ldr	r0, [r4]
 150 000c FFF7FEFF 		bl	HAL_UART_AbortTransmit_IT
 151              	.LVL12:
  53:FreeModbus/port/portserial.c **** }
 152              		.loc 1 53 1 is_stmt 0 view .LVU25
 153 0010 10BD     		pop	{r4, pc}
 154              	.L15:
 155 0012 00BF     		.align	2
 156              	.L14:
 157 0014 00000000 		.word	.LANCHOR0
 158              		.cfi_endproc
 159              	.LFE67:
 161              		.section	.text.xMBPortSerialPutByte,"ax",%progbits
 162              		.align	1
 163              		.global	xMBPortSerialPutByte
 164              		.syntax unified
 165              		.thumb
 166              		.thumb_func
 168              	xMBPortSerialPutByte:
 169              	.LVL13:
 170              	.LFB68:
  54:FreeModbus/port/portserial.c **** 
  55:FreeModbus/port/portserial.c **** BOOL xMBPortSerialPutByte(CHAR ucByte)
  56:FreeModbus/port/portserial.c **** {
 171              		.loc 1 56 1 is_stmt 1 view -0
 172              		.cfi_startproc
 173              		@ args = 0, pretend = 0, frame = 8
 174              		@ frame_needed = 0, uses_anonymous_args = 0
 175              		.loc 1 56 1 is_stmt 0 view .LVU27
ARM GAS  C:\Users\BLACK_~1\AppData\Local\Temp\ccLnqA3n.s 			page 5


 176 0000 00B5     		push	{lr}
 177              	.LCFI2:
 178              		.cfi_def_cfa_offset 4
 179              		.cfi_offset 14, -4
 180 0002 83B0     		sub	sp, sp, #12
 181              	.LCFI3:
 182              		.cfi_def_cfa_offset 16
 183 0004 8DF80700 		strb	r0, [sp, #7]
  57:FreeModbus/port/portserial.c **** 	HAL_UART_Transmit_IT(uart, (uint8_t*)&ucByte, 1);
 184              		.loc 1 57 2 is_stmt 1 view .LVU28
 185 0008 0122     		movs	r2, #1
 186 000a 0DF10701 		add	r1, sp, #7
 187 000e 044B     		ldr	r3, .L18
 188 0010 1868     		ldr	r0, [r3]
 189              	.LVL14:
 190              		.loc 1 57 2 is_stmt 0 view .LVU29
 191 0012 FFF7FEFF 		bl	HAL_UART_Transmit_IT
 192              	.LVL15:
  58:FreeModbus/port/portserial.c **** 	return TRUE;
 193              		.loc 1 58 2 is_stmt 1 view .LVU30
  59:FreeModbus/port/portserial.c **** }
 194              		.loc 1 59 1 is_stmt 0 view .LVU31
 195 0016 0120     		movs	r0, #1
 196 0018 03B0     		add	sp, sp, #12
 197              	.LCFI4:
 198              		.cfi_def_cfa_offset 4
 199              		@ sp needed
 200 001a 5DF804FB 		ldr	pc, [sp], #4
 201              	.L19:
 202 001e 00BF     		.align	2
 203              	.L18:
 204 0020 00000000 		.word	.LANCHOR0
 205              		.cfi_endproc
 206              	.LFE68:
 208              		.section	.text.xMBPortSerialPutBytes,"ax",%progbits
 209              		.align	1
 210              		.global	xMBPortSerialPutBytes
 211              		.syntax unified
 212              		.thumb
 213              		.thumb_func
 215              	xMBPortSerialPutBytes:
 216              	.LVL16:
 217              	.LFB69:
  60:FreeModbus/port/portserial.c **** 
  61:FreeModbus/port/portserial.c **** BOOL xMBPortSerialPutBytes(volatile UCHAR *ucByte, USHORT usSize)
  62:FreeModbus/port/portserial.c **** {
 218              		.loc 1 62 1 is_stmt 1 view -0
 219              		.cfi_startproc
 220              		@ args = 0, pretend = 0, frame = 0
 221              		@ frame_needed = 0, uses_anonymous_args = 0
 222              		.loc 1 62 1 is_stmt 0 view .LVU33
 223 0000 08B5     		push	{r3, lr}
 224              	.LCFI5:
 225              		.cfi_def_cfa_offset 8
 226              		.cfi_offset 3, -8
 227              		.cfi_offset 14, -4
 228 0002 0A46     		mov	r2, r1
ARM GAS  C:\Users\BLACK_~1\AppData\Local\Temp\ccLnqA3n.s 			page 6


  63:FreeModbus/port/portserial.c **** 	HAL_UART_Transmit_IT(uart, (uint8_t *)ucByte, usSize);
 229              		.loc 1 63 2 is_stmt 1 view .LVU34
 230 0004 0146     		mov	r1, r0
 231              	.LVL17:
 232              		.loc 1 63 2 is_stmt 0 view .LVU35
 233 0006 034B     		ldr	r3, .L22
 234 0008 1868     		ldr	r0, [r3]
 235              	.LVL18:
 236              		.loc 1 63 2 view .LVU36
 237 000a FFF7FEFF 		bl	HAL_UART_Transmit_IT
 238              	.LVL19:
  64:FreeModbus/port/portserial.c **** 	return TRUE;
 239              		.loc 1 64 2 is_stmt 1 view .LVU37
  65:FreeModbus/port/portserial.c **** }
 240              		.loc 1 65 1 is_stmt 0 view .LVU38
 241 000e 0120     		movs	r0, #1
 242 0010 08BD     		pop	{r3, pc}
 243              	.L23:
 244 0012 00BF     		.align	2
 245              	.L22:
 246 0014 00000000 		.word	.LANCHOR0
 247              		.cfi_endproc
 248              	.LFE69:
 250              		.section	.text.xMBPortSerialGetByte,"ax",%progbits
 251              		.align	1
 252              		.global	xMBPortSerialGetByte
 253              		.syntax unified
 254              		.thumb
 255              		.thumb_func
 257              	xMBPortSerialGetByte:
 258              	.LVL20:
 259              	.LFB70:
  66:FreeModbus/port/portserial.c **** 
  67:FreeModbus/port/portserial.c **** BOOL xMBPortSerialGetByte(CHAR * pucByte)
  68:FreeModbus/port/portserial.c **** {
 260              		.loc 1 68 1 is_stmt 1 view -0
 261              		.cfi_startproc
 262              		@ args = 0, pretend = 0, frame = 0
 263              		@ frame_needed = 0, uses_anonymous_args = 0
 264              		@ link register save eliminated.
  69:FreeModbus/port/portserial.c **** 	*pucByte = (uint8_t)(singlechar);
 265              		.loc 1 69 2 view .LVU40
 266              		.loc 1 69 11 is_stmt 0 view .LVU41
 267 0000 024B     		ldr	r3, .L25
 268 0002 1B78     		ldrb	r3, [r3]	@ zero_extendqisi2
 269 0004 0370     		strb	r3, [r0]
  70:FreeModbus/port/portserial.c **** 	return TRUE;
 270              		.loc 1 70 2 is_stmt 1 view .LVU42
  71:FreeModbus/port/portserial.c **** }
 271              		.loc 1 71 1 is_stmt 0 view .LVU43
 272 0006 0120     		movs	r0, #1
 273              	.LVL21:
 274              		.loc 1 71 1 view .LVU44
 275 0008 7047     		bx	lr
 276              	.L26:
 277 000a 00BF     		.align	2
 278              	.L25:
ARM GAS  C:\Users\BLACK_~1\AppData\Local\Temp\ccLnqA3n.s 			page 7


 279 000c 00000000 		.word	.LANCHOR1
 280              		.cfi_endproc
 281              	.LFE70:
 283              		.section	.text.Mbslave_uart_rx_handler,"ax",%progbits
 284              		.align	1
 285              		.global	Mbslave_uart_rx_handler
 286              		.syntax unified
 287              		.thumb
 288              		.thumb_func
 290              	Mbslave_uart_rx_handler:
 291              	.LFB71:
  72:FreeModbus/port/portserial.c **** void Mbslave_uart_rx_handler(void)
  73:FreeModbus/port/portserial.c **** {
 292              		.loc 1 73 1 is_stmt 1 view -0
 293              		.cfi_startproc
 294              		@ args = 0, pretend = 0, frame = 0
 295              		@ frame_needed = 0, uses_anonymous_args = 0
 296 0000 08B5     		push	{r3, lr}
 297              	.LCFI6:
 298              		.cfi_def_cfa_offset 8
 299              		.cfi_offset 3, -8
 300              		.cfi_offset 14, -4
  74:FreeModbus/port/portserial.c **** 	pxMBFrameCBByteReceived();
 301              		.loc 1 74 2 view .LVU46
 302 0002 054B     		ldr	r3, .L29
 303 0004 1B68     		ldr	r3, [r3]
 304 0006 9847     		blx	r3
 305              	.LVL22:
  75:FreeModbus/port/portserial.c **** 	//printf("RX: %s \r\n", singlechar);
  76:FreeModbus/port/portserial.c **** 	HAL_UART_Receive_IT(uart, &singlechar, 1);
 306              		.loc 1 76 2 view .LVU47
 307 0008 0122     		movs	r2, #1
 308 000a 0449     		ldr	r1, .L29+4
 309 000c 044B     		ldr	r3, .L29+8
 310 000e 1868     		ldr	r0, [r3]
 311 0010 FFF7FEFF 		bl	HAL_UART_Receive_IT
 312              	.LVL23:
  77:FreeModbus/port/portserial.c **** }
 313              		.loc 1 77 1 is_stmt 0 view .LVU48
 314 0014 08BD     		pop	{r3, pc}
 315              	.L30:
 316 0016 00BF     		.align	2
 317              	.L29:
 318 0018 00000000 		.word	pxMBFrameCBByteReceived
 319 001c 00000000 		.word	.LANCHOR1
 320 0020 00000000 		.word	.LANCHOR0
 321              		.cfi_endproc
 322              	.LFE71:
 324              		.section	.text.Mbslave_uart_tx_handler,"ax",%progbits
 325              		.align	1
 326              		.global	Mbslave_uart_tx_handler
 327              		.syntax unified
 328              		.thumb
 329              		.thumb_func
 331              	Mbslave_uart_tx_handler:
 332              	.LFB72:
  78:FreeModbus/port/portserial.c **** void Mbslave_uart_tx_handler(void)
ARM GAS  C:\Users\BLACK_~1\AppData\Local\Temp\ccLnqA3n.s 			page 8


  79:FreeModbus/port/portserial.c **** {
 333              		.loc 1 79 1 is_stmt 1 view -0
 334              		.cfi_startproc
 335              		@ args = 0, pretend = 0, frame = 0
 336              		@ frame_needed = 0, uses_anonymous_args = 0
 337 0000 08B5     		push	{r3, lr}
 338              	.LCFI7:
 339              		.cfi_def_cfa_offset 8
 340              		.cfi_offset 3, -8
 341              		.cfi_offset 14, -4
  80:FreeModbus/port/portserial.c **** 	pxMBFrameCBTransmitterEmpty();
 342              		.loc 1 80 2 view .LVU50
 343 0002 024B     		ldr	r3, .L33
 344 0004 1B68     		ldr	r3, [r3]
 345 0006 9847     		blx	r3
 346              	.LVL24:
  81:FreeModbus/port/portserial.c **** 
  82:FreeModbus/port/portserial.c **** }
 347              		.loc 1 82 1 is_stmt 0 view .LVU51
 348 0008 08BD     		pop	{r3, pc}
 349              	.L34:
 350 000a 00BF     		.align	2
 351              	.L33:
 352 000c 00000000 		.word	pxMBFrameCBTransmitterEmpty
 353              		.cfi_endproc
 354              	.LFE72:
 356              		.global	singlechar
 357              		.global	uart
 358              		.section	.bss.singlechar,"aw",%nobits
 359              		.set	.LANCHOR1,. + 0
 362              	singlechar:
 363 0000 00       		.space	1
 364              		.section	.bss.uart,"aw",%nobits
 365              		.align	2
 366              		.set	.LANCHOR0,. + 0
 369              	uart:
 370 0000 00000000 		.space	4
 371              		.text
 372              	.Letext0:
 373              		.file 2 "e:\\gnu arm embedded toolchain\\10 2021.10\\arm-none-eabi\\include\\machine\\_default_typ
 374              		.file 3 "e:\\gnu arm embedded toolchain\\10 2021.10\\arm-none-eabi\\include\\sys\\_stdint.h"
 375              		.file 4 "Drivers/CMSIS/Device/ST/STM32F1xx/Include/stm32f103xe.h"
 376              		.file 5 "Drivers/STM32F1xx_HAL_Driver/Inc/stm32f1xx_hal_def.h"
 377              		.file 6 "Drivers/STM32F1xx_HAL_Driver/Inc/stm32f1xx_hal_dma.h"
 378              		.file 7 "Drivers/STM32F1xx_HAL_Driver/Inc/stm32f1xx_hal_uart.h"
 379              		.file 8 "FreeModbus/port/port.h"
 380              		.file 9 "FreeModbus/include/mbport.h"
ARM GAS  C:\Users\BLACK_~1\AppData\Local\Temp\ccLnqA3n.s 			page 9

