ARM GAS  C:\Users\BLACK_~1\AppData\Local\Temp\ccMUZxU1.s 			page 1


   1              		.cpu cortex-m3
   2              		.arch armv7-m
   3              		.fpu softvfp
   4              		.eabi_attribute 20, 1
   5              		.eabi_attribute 21, 1
   6              		.eabi_attribute 23, 3
   7              		.eabi_attribute 24, 1
   8              		.eabi_attribute 25, 1
   9              		.eabi_attribute 26, 1
  10              		.eabi_attribute 30, 1
  11              		.eabi_attribute 34, 1
  12              		.eabi_attribute 18, 4
  13              		.file	"portserial_m.c"
  14              		.text
  15              	.Ltext0:
  16              		.cfi_sections	.debug_frame
  17              		.section	.text.xMBMasterPortSerialInit,"ax",%progbits
  18              		.align	1
  19              		.global	xMBMasterPortSerialInit
  20              		.syntax unified
  21              		.thumb
  22              		.thumb_func
  24              	xMBMasterPortSerialInit:
  25              	.LVL0:
  26              	.LFB65:
  27              		.file 1 "FreeModbus/port/portserial_m.c"
   1:FreeModbus/port/portserial_m.c **** #include "port.h"
   2:FreeModbus/port/portserial_m.c **** #include "mb.h"
   3:FreeModbus/port/portserial_m.c **** #include "mbport.h"
   4:FreeModbus/port/portserial_m.c **** #include "usart.h"
   5:FreeModbus/port/portserial_m.c **** #include "portserial_m.h"
   6:FreeModbus/port/portserial_m.c **** 
   7:FreeModbus/port/portserial_m.c **** extern UART_HandleTypeDef *uart;
   8:FreeModbus/port/portserial_m.c **** extern uint8_t singlechar;
   9:FreeModbus/port/portserial_m.c **** 
  10:FreeModbus/port/portserial_m.c **** #if MB_MASTER_RTU_ENABLED > 0 || MB_MASTER_ASCII_ENABLED > 0
  11:FreeModbus/port/portserial_m.c **** 
  12:FreeModbus/port/portserial_m.c **** /* ----------------------- Static variables ---------------------------------*/
  13:FreeModbus/port/portserial_m.c **** UART_HandleTypeDef *uart_m;
  14:FreeModbus/port/portserial_m.c **** uint8_t singlechar_m;
  15:FreeModbus/port/portserial_m.c **** 
  16:FreeModbus/port/portserial_m.c **** /* ----------------------- User defenitions ---------------------------------*/
  17:FreeModbus/port/portserial_m.c **** // #define RS485_MASTER_RTS_LOW	HAL_GPIO_WritePin(RS485_RTS_GPIO_Port, RS485_RTS_Pin, GPIO_PIN_RESE
  18:FreeModbus/port/portserial_m.c **** // #define RS485_MASTER_RTS_HIGH 	HAL_GPIO_WritePin(RS485_RTS_GPIO_Port, RS485_RTS_Pin, GPIO_PIN_SE
  19:FreeModbus/port/portserial_m.c **** 
  20:FreeModbus/port/portserial_m.c **** /* ----------------------- Start implementation -----------------------------*/
  21:FreeModbus/port/portserial_m.c **** 
  22:FreeModbus/port/portserial_m.c **** BOOL xMBMasterPortSerialInit(void *dHUART, ULONG ulBaudRate, void *dHTIM)
  23:FreeModbus/port/portserial_m.c **** {
  28              		.loc 1 23 1 view -0
  29              		.cfi_startproc
  30              		@ args = 0, pretend = 0, frame = 0
  31              		@ frame_needed = 0, uses_anonymous_args = 0
  32              		@ link register save eliminated.
  24:FreeModbus/port/portserial_m.c **** 	uart_m = (UART_HandleTypeDef *)dHUART;
  33              		.loc 1 24 2 view .LVU1
  34              		.loc 1 24 9 is_stmt 0 view .LVU2
ARM GAS  C:\Users\BLACK_~1\AppData\Local\Temp\ccMUZxU1.s 			page 2


  35 0000 014B     		ldr	r3, .L2
  36 0002 1860     		str	r0, [r3]
  25:FreeModbus/port/portserial_m.c **** 
  26:FreeModbus/port/portserial_m.c **** 	return TRUE;
  37              		.loc 1 26 2 is_stmt 1 view .LVU3
  27:FreeModbus/port/portserial_m.c **** }
  38              		.loc 1 27 1 is_stmt 0 view .LVU4
  39 0004 0120     		movs	r0, #1
  40              	.LVL1:
  41              		.loc 1 27 1 view .LVU5
  42 0006 7047     		bx	lr
  43              	.L3:
  44              		.align	2
  45              	.L2:
  46 0008 00000000 		.word	.LANCHOR0
  47              		.cfi_endproc
  48              	.LFE65:
  50              		.section	.text.vMBMasterPortSerialEnable,"ax",%progbits
  51              		.align	1
  52              		.global	vMBMasterPortSerialEnable
  53              		.syntax unified
  54              		.thumb
  55              		.thumb_func
  57              	vMBMasterPortSerialEnable:
  58              	.LVL2:
  59              	.LFB66:
  28:FreeModbus/port/portserial_m.c **** 
  29:FreeModbus/port/portserial_m.c **** void vMBMasterPortSerialEnable(BOOL xRxEnable, BOOL xTxEnable)
  30:FreeModbus/port/portserial_m.c **** {
  60              		.loc 1 30 1 is_stmt 1 view -0
  61              		.cfi_startproc
  62              		@ args = 0, pretend = 0, frame = 0
  63              		@ frame_needed = 0, uses_anonymous_args = 0
  64              		.loc 1 30 1 is_stmt 0 view .LVU7
  65 0000 10B5     		push	{r4, lr}
  66              	.LCFI0:
  67              		.cfi_def_cfa_offset 8
  68              		.cfi_offset 4, -8
  69              		.cfi_offset 14, -4
  70 0002 0C46     		mov	r4, r1
  31:FreeModbus/port/portserial_m.c **** 	if(xRxEnable)
  71              		.loc 1 31 2 is_stmt 1 view .LVU8
  72              		.loc 1 31 4 is_stmt 0 view .LVU9
  73 0004 50B1     		cbz	r0, .L5
  32:FreeModbus/port/portserial_m.c **** 	{
  33:FreeModbus/port/portserial_m.c **** 		//RS485_MASTER_RTS_LOW;
  34:FreeModbus/port/portserial_m.c **** 		HAL_UART_Receive_IT(uart_m, &singlechar_m, 1);
  74              		.loc 1 34 3 is_stmt 1 view .LVU10
  75 0006 0122     		movs	r2, #1
  76 0008 0949     		ldr	r1, .L10
  77              	.LVL3:
  78              		.loc 1 34 3 is_stmt 0 view .LVU11
  79 000a 0A4B     		ldr	r3, .L10+4
  80 000c 1868     		ldr	r0, [r3]
  81              	.LVL4:
  82              		.loc 1 34 3 view .LVU12
  83 000e FFF7FEFF 		bl	HAL_UART_Receive_IT
ARM GAS  C:\Users\BLACK_~1\AppData\Local\Temp\ccMUZxU1.s 			page 3


  84              	.LVL5:
  85              	.L6:
  35:FreeModbus/port/portserial_m.c **** 	}
  36:FreeModbus/port/portserial_m.c **** 	else
  37:FreeModbus/port/portserial_m.c **** 	{
  38:FreeModbus/port/portserial_m.c **** 		HAL_UART_AbortReceive_IT(uart_m);
  39:FreeModbus/port/portserial_m.c **** 	}
  40:FreeModbus/port/portserial_m.c **** 
  41:FreeModbus/port/portserial_m.c **** 	if(xTxEnable)
  86              		.loc 1 41 2 is_stmt 1 view .LVU13
  87              		.loc 1 41 4 is_stmt 0 view .LVU14
  88 0012 44B1     		cbz	r4, .L7
  42:FreeModbus/port/portserial_m.c **** 	{
  43:FreeModbus/port/portserial_m.c **** 		//RS485_MASTER_RTS_HIGH;
  44:FreeModbus/port/portserial_m.c **** 		pxMBMasterFrameCBTransmitterEmpty();
  89              		.loc 1 44 3 is_stmt 1 view .LVU15
  90 0014 084B     		ldr	r3, .L10+8
  91 0016 1B68     		ldr	r3, [r3]
  92 0018 9847     		blx	r3
  93              	.LVL6:
  94              	.L4:
  45:FreeModbus/port/portserial_m.c **** 	}
  46:FreeModbus/port/portserial_m.c **** 	else
  47:FreeModbus/port/portserial_m.c **** 	{
  48:FreeModbus/port/portserial_m.c **** 		HAL_UART_AbortTransmit_IT(uart_m);
  49:FreeModbus/port/portserial_m.c **** 	}
  50:FreeModbus/port/portserial_m.c **** }
  95              		.loc 1 50 1 is_stmt 0 view .LVU16
  96 001a 10BD     		pop	{r4, pc}
  97              	.LVL7:
  98              	.L5:
  38:FreeModbus/port/portserial_m.c **** 	}
  99              		.loc 1 38 3 is_stmt 1 view .LVU17
 100 001c 054B     		ldr	r3, .L10+4
 101 001e 1868     		ldr	r0, [r3]
 102              	.LVL8:
  38:FreeModbus/port/portserial_m.c **** 	}
 103              		.loc 1 38 3 is_stmt 0 view .LVU18
 104 0020 FFF7FEFF 		bl	HAL_UART_AbortReceive_IT
 105              	.LVL9:
  38:FreeModbus/port/portserial_m.c **** 	}
 106              		.loc 1 38 3 view .LVU19
 107 0024 F5E7     		b	.L6
 108              	.L7:
  48:FreeModbus/port/portserial_m.c **** 	}
 109              		.loc 1 48 3 is_stmt 1 view .LVU20
 110 0026 034B     		ldr	r3, .L10+4
 111 0028 1868     		ldr	r0, [r3]
 112 002a FFF7FEFF 		bl	HAL_UART_AbortTransmit_IT
 113              	.LVL10:
 114              		.loc 1 50 1 is_stmt 0 view .LVU21
 115 002e F4E7     		b	.L4
 116              	.L11:
 117              		.align	2
 118              	.L10:
 119 0030 00000000 		.word	.LANCHOR1
 120 0034 00000000 		.word	.LANCHOR0
ARM GAS  C:\Users\BLACK_~1\AppData\Local\Temp\ccMUZxU1.s 			page 4


 121 0038 00000000 		.word	pxMBMasterFrameCBTransmitterEmpty
 122              		.cfi_endproc
 123              	.LFE66:
 125              		.section	.text.vMBMasterPortClose,"ax",%progbits
 126              		.align	1
 127              		.global	vMBMasterPortClose
 128              		.syntax unified
 129              		.thumb
 130              		.thumb_func
 132              	vMBMasterPortClose:
 133              	.LFB67:
  51:FreeModbus/port/portserial_m.c **** 
  52:FreeModbus/port/portserial_m.c **** void vMBMasterPortClose(void)
  53:FreeModbus/port/portserial_m.c **** {
 134              		.loc 1 53 1 is_stmt 1 view -0
 135              		.cfi_startproc
 136              		@ args = 0, pretend = 0, frame = 0
 137              		@ frame_needed = 0, uses_anonymous_args = 0
 138 0000 10B5     		push	{r4, lr}
 139              	.LCFI1:
 140              		.cfi_def_cfa_offset 8
 141              		.cfi_offset 4, -8
 142              		.cfi_offset 14, -4
  54:FreeModbus/port/portserial_m.c **** 	HAL_UART_AbortReceive_IT(uart_m);
 143              		.loc 1 54 2 view .LVU23
 144 0002 044C     		ldr	r4, .L14
 145 0004 2068     		ldr	r0, [r4]
 146 0006 FFF7FEFF 		bl	HAL_UART_AbortReceive_IT
 147              	.LVL11:
  55:FreeModbus/port/portserial_m.c **** 	HAL_UART_AbortTransmit_IT(uart_m);
 148              		.loc 1 55 2 view .LVU24
 149 000a 2068     		ldr	r0, [r4]
 150 000c FFF7FEFF 		bl	HAL_UART_AbortTransmit_IT
 151              	.LVL12:
  56:FreeModbus/port/portserial_m.c **** }
 152              		.loc 1 56 1 is_stmt 0 view .LVU25
 153 0010 10BD     		pop	{r4, pc}
 154              	.L15:
 155 0012 00BF     		.align	2
 156              	.L14:
 157 0014 00000000 		.word	.LANCHOR0
 158              		.cfi_endproc
 159              	.LFE67:
 161              		.section	.text.xMBMasterPortSerialPutBytes,"ax",%progbits
 162              		.align	1
 163              		.global	xMBMasterPortSerialPutBytes
 164              		.syntax unified
 165              		.thumb
 166              		.thumb_func
 168              	xMBMasterPortSerialPutBytes:
 169              	.LVL13:
 170              	.LFB68:
  57:FreeModbus/port/portserial_m.c **** 
  58:FreeModbus/port/portserial_m.c **** BOOL xMBMasterPortSerialPutBytes(volatile UCHAR *ucByte, USHORT usSize)
  59:FreeModbus/port/portserial_m.c **** {
 171              		.loc 1 59 1 is_stmt 1 view -0
 172              		.cfi_startproc
ARM GAS  C:\Users\BLACK_~1\AppData\Local\Temp\ccMUZxU1.s 			page 5


 173              		@ args = 0, pretend = 0, frame = 0
 174              		@ frame_needed = 0, uses_anonymous_args = 0
 175              		.loc 1 59 1 is_stmt 0 view .LVU27
 176 0000 08B5     		push	{r3, lr}
 177              	.LCFI2:
 178              		.cfi_def_cfa_offset 8
 179              		.cfi_offset 3, -8
 180              		.cfi_offset 14, -4
 181 0002 0A46     		mov	r2, r1
  60:FreeModbus/port/portserial_m.c **** 	HAL_UART_Transmit_IT(uart_m, (uint8_t *)ucByte, usSize);
 182              		.loc 1 60 2 is_stmt 1 view .LVU28
 183 0004 0146     		mov	r1, r0
 184              	.LVL14:
 185              		.loc 1 60 2 is_stmt 0 view .LVU29
 186 0006 034B     		ldr	r3, .L18
 187 0008 1868     		ldr	r0, [r3]
 188              	.LVL15:
 189              		.loc 1 60 2 view .LVU30
 190 000a FFF7FEFF 		bl	HAL_UART_Transmit_IT
 191              	.LVL16:
  61:FreeModbus/port/portserial_m.c **** 	return TRUE;
 192              		.loc 1 61 2 is_stmt 1 view .LVU31
  62:FreeModbus/port/portserial_m.c **** }
 193              		.loc 1 62 1 is_stmt 0 view .LVU32
 194 000e 0120     		movs	r0, #1
 195 0010 08BD     		pop	{r3, pc}
 196              	.L19:
 197 0012 00BF     		.align	2
 198              	.L18:
 199 0014 00000000 		.word	.LANCHOR0
 200              		.cfi_endproc
 201              	.LFE68:
 203              		.section	.text.xMBMasterPortSerialPutByte,"ax",%progbits
 204              		.align	1
 205              		.global	xMBMasterPortSerialPutByte
 206              		.syntax unified
 207              		.thumb
 208              		.thumb_func
 210              	xMBMasterPortSerialPutByte:
 211              	.LVL17:
 212              	.LFB69:
  63:FreeModbus/port/portserial_m.c **** 
  64:FreeModbus/port/portserial_m.c **** BOOL xMBMasterPortSerialPutByte(CHAR ucByte)
  65:FreeModbus/port/portserial_m.c **** {
 213              		.loc 1 65 1 is_stmt 1 view -0
 214              		.cfi_startproc
 215              		@ args = 0, pretend = 0, frame = 8
 216              		@ frame_needed = 0, uses_anonymous_args = 0
 217              		.loc 1 65 1 is_stmt 0 view .LVU34
 218 0000 00B5     		push	{lr}
 219              	.LCFI3:
 220              		.cfi_def_cfa_offset 4
 221              		.cfi_offset 14, -4
 222 0002 83B0     		sub	sp, sp, #12
 223              	.LCFI4:
 224              		.cfi_def_cfa_offset 16
 225 0004 8DF80700 		strb	r0, [sp, #7]
ARM GAS  C:\Users\BLACK_~1\AppData\Local\Temp\ccMUZxU1.s 			page 6


  66:FreeModbus/port/portserial_m.c **** 	HAL_UART_Transmit_IT(uart_m, (uint8_t*)&ucByte, 1);
 226              		.loc 1 66 2 is_stmt 1 view .LVU35
 227 0008 0122     		movs	r2, #1
 228 000a 0DF10701 		add	r1, sp, #7
 229 000e 044B     		ldr	r3, .L22
 230 0010 1868     		ldr	r0, [r3]
 231              	.LVL18:
 232              		.loc 1 66 2 is_stmt 0 view .LVU36
 233 0012 FFF7FEFF 		bl	HAL_UART_Transmit_IT
 234              	.LVL19:
  67:FreeModbus/port/portserial_m.c **** 	return TRUE;
 235              		.loc 1 67 2 is_stmt 1 view .LVU37
  68:FreeModbus/port/portserial_m.c **** }
 236              		.loc 1 68 1 is_stmt 0 view .LVU38
 237 0016 0120     		movs	r0, #1
 238 0018 03B0     		add	sp, sp, #12
 239              	.LCFI5:
 240              		.cfi_def_cfa_offset 4
 241              		@ sp needed
 242 001a 5DF804FB 		ldr	pc, [sp], #4
 243              	.L23:
 244 001e 00BF     		.align	2
 245              	.L22:
 246 0020 00000000 		.word	.LANCHOR0
 247              		.cfi_endproc
 248              	.LFE69:
 250              		.section	.text.xMBMasterPortSerialGetByte,"ax",%progbits
 251              		.align	1
 252              		.global	xMBMasterPortSerialGetByte
 253              		.syntax unified
 254              		.thumb
 255              		.thumb_func
 257              	xMBMasterPortSerialGetByte:
 258              	.LVL20:
 259              	.LFB70:
  69:FreeModbus/port/portserial_m.c **** 
  70:FreeModbus/port/portserial_m.c **** BOOL xMBMasterPortSerialGetByte(CHAR * pucByte)
  71:FreeModbus/port/portserial_m.c **** {
 260              		.loc 1 71 1 is_stmt 1 view -0
 261              		.cfi_startproc
 262              		@ args = 0, pretend = 0, frame = 0
 263              		@ frame_needed = 0, uses_anonymous_args = 0
 264              		@ link register save eliminated.
  72:FreeModbus/port/portserial_m.c **** 	*pucByte = (uint8_t)(singlechar_m);
 265              		.loc 1 72 2 view .LVU40
 266              		.loc 1 72 11 is_stmt 0 view .LVU41
 267 0000 024B     		ldr	r3, .L25
 268 0002 1B78     		ldrb	r3, [r3]	@ zero_extendqisi2
 269 0004 0370     		strb	r3, [r0]
  73:FreeModbus/port/portserial_m.c **** 	return TRUE;
 270              		.loc 1 73 2 is_stmt 1 view .LVU42
  74:FreeModbus/port/portserial_m.c **** }
 271              		.loc 1 74 1 is_stmt 0 view .LVU43
 272 0006 0120     		movs	r0, #1
 273              	.LVL21:
 274              		.loc 1 74 1 view .LVU44
 275 0008 7047     		bx	lr
ARM GAS  C:\Users\BLACK_~1\AppData\Local\Temp\ccMUZxU1.s 			page 7


 276              	.L26:
 277 000a 00BF     		.align	2
 278              	.L25:
 279 000c 00000000 		.word	.LANCHOR1
 280              		.cfi_endproc
 281              	.LFE70:
 283              		.section	.text.MBmaster_uart_rx_handhler,"ax",%progbits
 284              		.align	1
 285              		.global	MBmaster_uart_rx_handhler
 286              		.syntax unified
 287              		.thumb
 288              		.thumb_func
 290              	MBmaster_uart_rx_handhler:
 291              	.LFB71:
  75:FreeModbus/port/portserial_m.c **** void MBmaster_uart_rx_handhler(void)
  76:FreeModbus/port/portserial_m.c **** {
 292              		.loc 1 76 1 is_stmt 1 view -0
 293              		.cfi_startproc
 294              		@ args = 0, pretend = 0, frame = 0
 295              		@ frame_needed = 0, uses_anonymous_args = 0
 296 0000 08B5     		push	{r3, lr}
 297              	.LCFI6:
 298              		.cfi_def_cfa_offset 8
 299              		.cfi_offset 3, -8
 300              		.cfi_offset 14, -4
  77:FreeModbus/port/portserial_m.c **** 	pxMBMasterFrameCBByteReceived();
 301              		.loc 1 77 2 view .LVU46
 302 0002 044B     		ldr	r3, .L29
 303 0004 1B68     		ldr	r3, [r3]
 304 0006 9847     		blx	r3
 305              	.LVL22:
  78:FreeModbus/port/portserial_m.c **** 	// printf("RX %s \r\n", singlechar_m);
  79:FreeModbus/port/portserial_m.c **** 	HAL_UART_Receive_IT(&uart_m, &singlechar_m, 1);
 306              		.loc 1 79 2 view .LVU47
 307 0008 0122     		movs	r2, #1
 308 000a 0349     		ldr	r1, .L29+4
 309 000c 0348     		ldr	r0, .L29+8
 310 000e FFF7FEFF 		bl	HAL_UART_Receive_IT
 311              	.LVL23:
  80:FreeModbus/port/portserial_m.c **** }
 312              		.loc 1 80 1 is_stmt 0 view .LVU48
 313 0012 08BD     		pop	{r3, pc}
 314              	.L30:
 315              		.align	2
 316              	.L29:
 317 0014 00000000 		.word	pxMBMasterFrameCBByteReceived
 318 0018 00000000 		.word	.LANCHOR1
 319 001c 00000000 		.word	.LANCHOR0
 320              		.cfi_endproc
 321              	.LFE71:
 323              		.section	.text.MBmaster_uart_tx_handhler,"ax",%progbits
 324              		.align	1
 325              		.global	MBmaster_uart_tx_handhler
 326              		.syntax unified
 327              		.thumb
 328              		.thumb_func
 330              	MBmaster_uart_tx_handhler:
ARM GAS  C:\Users\BLACK_~1\AppData\Local\Temp\ccMUZxU1.s 			page 8


 331              	.LFB72:
  81:FreeModbus/port/portserial_m.c **** void MBmaster_uart_tx_handhler(void)
  82:FreeModbus/port/portserial_m.c **** {
 332              		.loc 1 82 1 is_stmt 1 view -0
 333              		.cfi_startproc
 334              		@ args = 0, pretend = 0, frame = 0
 335              		@ frame_needed = 0, uses_anonymous_args = 0
 336 0000 08B5     		push	{r3, lr}
 337              	.LCFI7:
 338              		.cfi_def_cfa_offset 8
 339              		.cfi_offset 3, -8
 340              		.cfi_offset 14, -4
  83:FreeModbus/port/portserial_m.c **** 	pxMBMasterFrameCBTransmitterEmpty();
 341              		.loc 1 83 2 view .LVU50
 342 0002 024B     		ldr	r3, .L33
 343 0004 1B68     		ldr	r3, [r3]
 344 0006 9847     		blx	r3
 345              	.LVL24:
  84:FreeModbus/port/portserial_m.c **** }
 346              		.loc 1 84 1 is_stmt 0 view .LVU51
 347 0008 08BD     		pop	{r3, pc}
 348              	.L34:
 349 000a 00BF     		.align	2
 350              	.L33:
 351 000c 00000000 		.word	pxMBMasterFrameCBTransmitterEmpty
 352              		.cfi_endproc
 353              	.LFE72:
 355              		.global	singlechar_m
 356              		.global	uart_m
 357              		.section	.bss.singlechar_m,"aw",%nobits
 358              		.set	.LANCHOR1,. + 0
 361              	singlechar_m:
 362 0000 00       		.space	1
 363              		.section	.bss.uart_m,"aw",%nobits
 364              		.align	2
 365              		.set	.LANCHOR0,. + 0
 368              	uart_m:
 369 0000 00000000 		.space	4
 370              		.text
 371              	.Letext0:
 372              		.file 2 "e:\\gnu arm embedded toolchain\\10 2021.10\\arm-none-eabi\\include\\machine\\_default_typ
 373              		.file 3 "e:\\gnu arm embedded toolchain\\10 2021.10\\arm-none-eabi\\include\\sys\\_stdint.h"
 374              		.file 4 "Drivers/CMSIS/Device/ST/STM32F1xx/Include/stm32f103xe.h"
 375              		.file 5 "Drivers/STM32F1xx_HAL_Driver/Inc/stm32f1xx_hal_def.h"
 376              		.file 6 "Drivers/STM32F1xx_HAL_Driver/Inc/stm32f1xx_hal_dma.h"
 377              		.file 7 "Drivers/STM32F1xx_HAL_Driver/Inc/stm32f1xx_hal_uart.h"
 378              		.file 8 "FreeModbus/port/port.h"
 379              		.file 9 "FreeModbus/include/mbport.h"
ARM GAS  C:\Users\BLACK_~1\AppData\Local\Temp\ccMUZxU1.s 			page 9

