ARM GAS  C:\Users\BLACK_~1\AppData\Local\Temp\cc93ziiB.s 			page 1


   1              		.cpu cortex-m3
   2              		.arch armv7-m
   3              		.fpu softvfp
   4              		.eabi_attribute 20, 1
   5              		.eabi_attribute 21, 1
   6              		.eabi_attribute 23, 3
   7              		.eabi_attribute 24, 1
   8              		.eabi_attribute 25, 1
   9              		.eabi_attribute 26, 1
  10              		.eabi_attribute 30, 1
  11              		.eabi_attribute 34, 1
  12              		.eabi_attribute 18, 4
  13              		.file	"porttimer_m.c"
  14              		.text
  15              	.Ltext0:
  16              		.cfi_sections	.debug_frame
  17              		.section	.text.xMBMasterPortTimersInit,"ax",%progbits
  18              		.align	1
  19              		.global	xMBMasterPortTimersInit
  20              		.syntax unified
  21              		.thumb
  22              		.thumb_func
  24              	xMBMasterPortTimersInit:
  25              	.LVL0:
  26              	.LFB65:
  27              		.file 1 "FreeModbus/port/porttimer_m.c"
   1:FreeModbus/port/porttimer_m.c **** #include "port.h"
   2:FreeModbus/port/porttimer_m.c **** #include "mb.h"
   3:FreeModbus/port/porttimer_m.c **** #include "mb_m.h"
   4:FreeModbus/port/porttimer_m.c **** #include "mbport.h"
   5:FreeModbus/port/porttimer_m.c **** #include "tim.h"
   6:FreeModbus/port/porttimer_m.c **** #include "timeout.h"
   7:FreeModbus/port/porttimer_m.c **** #include "porttimer_m.h"
   8:FreeModbus/port/porttimer_m.c **** 
   9:FreeModbus/port/porttimer_m.c **** #if MB_MASTER_RTU_ENABLED > 0 || MB_MASTER_ASCII_ENABLED > 0
  10:FreeModbus/port/porttimer_m.c **** 
  11:FreeModbus/port/porttimer_m.c **** /* ----------------------- User defenitions ---------------------------------*/
  12:FreeModbus/port/porttimer_m.c **** extern TIM_HandleTypeDef *tim;
  13:FreeModbus/port/porttimer_m.c **** extern uint16_t timeout;
  14:FreeModbus/port/porttimer_m.c **** extern volatile uint16_t counter;
  15:FreeModbus/port/porttimer_m.c **** 
  16:FreeModbus/port/porttimer_m.c **** TIM_HandleTypeDef *tim_m;
  17:FreeModbus/port/porttimer_m.c **** static uint16_t timeout_m = 0;
  18:FreeModbus/port/porttimer_m.c **** volatile uint16_t counter_m = 0;
  19:FreeModbus/port/porttimer_m.c **** static TO_TypeDef _to_master;
  20:FreeModbus/port/porttimer_m.c **** /* ----------------------- Start implementation -----------------------------*/
  21:FreeModbus/port/porttimer_m.c **** BOOL xMBMasterPortTimersInit( USHORT usTimeOut50us, void *dHTIM )
  22:FreeModbus/port/porttimer_m.c **** {
  28              		.loc 1 22 1 view -0
  29              		.cfi_startproc
  30              		@ args = 0, pretend = 0, frame = 0
  31              		@ frame_needed = 0, uses_anonymous_args = 0
  32              		@ link register save eliminated.
  23:FreeModbus/port/porttimer_m.c **** 	tim_m = (TIM_HandleTypeDef *)dHTIM;
  33              		.loc 1 23 2 view .LVU1
  34              		.loc 1 23 8 is_stmt 0 view .LVU2
  35 0000 024B     		ldr	r3, .L2
ARM GAS  C:\Users\BLACK_~1\AppData\Local\Temp\cc93ziiB.s 			page 2


  36 0002 1960     		str	r1, [r3]
  24:FreeModbus/port/porttimer_m.c **** 	timeout_m = usTimeOut50us;
  37              		.loc 1 24 2 is_stmt 1 view .LVU3
  38              		.loc 1 24 12 is_stmt 0 view .LVU4
  39 0004 024B     		ldr	r3, .L2+4
  40 0006 1880     		strh	r0, [r3]	@ movhi
  25:FreeModbus/port/porttimer_m.c ****     return TRUE;
  41              		.loc 1 25 5 is_stmt 1 view .LVU5
  26:FreeModbus/port/porttimer_m.c **** }
  42              		.loc 1 26 1 is_stmt 0 view .LVU6
  43 0008 0120     		movs	r0, #1
  44              	.LVL1:
  45              		.loc 1 26 1 view .LVU7
  46 000a 7047     		bx	lr
  47              	.L3:
  48              		.align	2
  49              	.L2:
  50 000c 00000000 		.word	.LANCHOR0
  51 0010 00000000 		.word	.LANCHOR1
  52              		.cfi_endproc
  53              	.LFE65:
  55              		.section	.text.vMBMasterPortTimersT35Enable,"ax",%progbits
  56              		.align	1
  57              		.global	vMBMasterPortTimersT35Enable
  58              		.syntax unified
  59              		.thumb
  60              		.thumb_func
  62              	vMBMasterPortTimersT35Enable:
  63              	.LFB66:
  27:FreeModbus/port/porttimer_m.c **** 
  28:FreeModbus/port/porttimer_m.c **** void vMBMasterPortTimersT35Enable()
  29:FreeModbus/port/porttimer_m.c **** {
  64              		.loc 1 29 1 is_stmt 1 view -0
  65              		.cfi_startproc
  66              		@ args = 0, pretend = 0, frame = 0
  67              		@ frame_needed = 0, uses_anonymous_args = 0
  68 0000 08B5     		push	{r3, lr}
  69              	.LCFI0:
  70              		.cfi_def_cfa_offset 8
  71              		.cfi_offset 3, -8
  72              		.cfi_offset 14, -4
  30:FreeModbus/port/porttimer_m.c ****     vMBMasterSetCurTimerMode(MB_TMODE_T35);
  73              		.loc 1 30 5 view .LVU9
  74 0002 0020     		movs	r0, #0
  75 0004 FFF7FEFF 		bl	vMBMasterSetCurTimerMode
  76              	.LVL2:
  31:FreeModbus/port/porttimer_m.c **** 	counter_m = 0;
  77              		.loc 1 31 2 view .LVU10
  78              		.loc 1 31 12 is_stmt 0 view .LVU11
  79 0008 034B     		ldr	r3, .L6
  80 000a 0022     		movs	r2, #0
  81 000c 1A80     		strh	r2, [r3]	@ movhi
  32:FreeModbus/port/porttimer_m.c **** 	// TO_Start(&_to_master, 5);
  33:FreeModbus/port/porttimer_m.c **** 	HAL_TIM_Base_Start_IT(tim_m);
  82              		.loc 1 33 2 is_stmt 1 view .LVU12
  83 000e 034B     		ldr	r3, .L6+4
  84 0010 1868     		ldr	r0, [r3]
ARM GAS  C:\Users\BLACK_~1\AppData\Local\Temp\cc93ziiB.s 			page 3


  85 0012 FFF7FEFF 		bl	HAL_TIM_Base_Start_IT
  86              	.LVL3:
  34:FreeModbus/port/porttimer_m.c **** }
  87              		.loc 1 34 1 is_stmt 0 view .LVU13
  88 0016 08BD     		pop	{r3, pc}
  89              	.L7:
  90              		.align	2
  91              	.L6:
  92 0018 00000000 		.word	.LANCHOR2
  93 001c 00000000 		.word	.LANCHOR0
  94              		.cfi_endproc
  95              	.LFE66:
  97              		.section	.text.vMBMasterPortTimersConvertDelayEnable,"ax",%progbits
  98              		.align	1
  99              		.global	vMBMasterPortTimersConvertDelayEnable
 100              		.syntax unified
 101              		.thumb
 102              		.thumb_func
 104              	vMBMasterPortTimersConvertDelayEnable:
 105              	.LFB67:
  35:FreeModbus/port/porttimer_m.c **** 
  36:FreeModbus/port/porttimer_m.c **** void vMBMasterPortTimersConvertDelayEnable()
  37:FreeModbus/port/porttimer_m.c **** {
 106              		.loc 1 37 1 is_stmt 1 view -0
 107              		.cfi_startproc
 108              		@ args = 0, pretend = 0, frame = 0
 109              		@ frame_needed = 0, uses_anonymous_args = 0
 110 0000 08B5     		push	{r3, lr}
 111              	.LCFI1:
 112              		.cfi_def_cfa_offset 8
 113              		.cfi_offset 3, -8
 114              		.cfi_offset 14, -4
  38:FreeModbus/port/porttimer_m.c **** 	vMBMasterSetCurTimerMode(MB_TMODE_CONVERT_DELAY);
 115              		.loc 1 38 2 view .LVU15
 116 0002 0220     		movs	r0, #2
 117 0004 FFF7FEFF 		bl	vMBMasterSetCurTimerMode
 118              	.LVL4:
  39:FreeModbus/port/porttimer_m.c **** }
 119              		.loc 1 39 1 is_stmt 0 view .LVU16
 120 0008 08BD     		pop	{r3, pc}
 121              		.cfi_endproc
 122              	.LFE67:
 124              		.section	.text.vMBMasterPortTimersRespondTimeoutEnable,"ax",%progbits
 125              		.align	1
 126              		.global	vMBMasterPortTimersRespondTimeoutEnable
 127              		.syntax unified
 128              		.thumb
 129              		.thumb_func
 131              	vMBMasterPortTimersRespondTimeoutEnable:
 132              	.LFB68:
  40:FreeModbus/port/porttimer_m.c **** 
  41:FreeModbus/port/porttimer_m.c **** void vMBMasterPortTimersRespondTimeoutEnable()
  42:FreeModbus/port/porttimer_m.c **** {
 133              		.loc 1 42 1 is_stmt 1 view -0
 134              		.cfi_startproc
 135              		@ args = 0, pretend = 0, frame = 0
 136              		@ frame_needed = 0, uses_anonymous_args = 0
ARM GAS  C:\Users\BLACK_~1\AppData\Local\Temp\cc93ziiB.s 			page 4


 137 0000 08B5     		push	{r3, lr}
 138              	.LCFI2:
 139              		.cfi_def_cfa_offset 8
 140              		.cfi_offset 3, -8
 141              		.cfi_offset 14, -4
  43:FreeModbus/port/porttimer_m.c **** 	vMBMasterSetCurTimerMode(MB_TMODE_RESPOND_TIMEOUT);
 142              		.loc 1 43 2 view .LVU18
 143 0002 0120     		movs	r0, #1
 144 0004 FFF7FEFF 		bl	vMBMasterSetCurTimerMode
 145              	.LVL5:
  44:FreeModbus/port/porttimer_m.c **** }
 146              		.loc 1 44 1 is_stmt 0 view .LVU19
 147 0008 08BD     		pop	{r3, pc}
 148              		.cfi_endproc
 149              	.LFE68:
 151              		.section	.text.vMBMasterPortTimersDisable,"ax",%progbits
 152              		.align	1
 153              		.global	vMBMasterPortTimersDisable
 154              		.syntax unified
 155              		.thumb
 156              		.thumb_func
 158              	vMBMasterPortTimersDisable:
 159              	.LFB69:
  45:FreeModbus/port/porttimer_m.c **** 
  46:FreeModbus/port/porttimer_m.c **** void vMBMasterPortTimersDisable()
  47:FreeModbus/port/porttimer_m.c **** {
 160              		.loc 1 47 1 is_stmt 1 view -0
 161              		.cfi_startproc
 162              		@ args = 0, pretend = 0, frame = 0
 163              		@ frame_needed = 0, uses_anonymous_args = 0
 164 0000 08B5     		push	{r3, lr}
 165              	.LCFI3:
 166              		.cfi_def_cfa_offset 8
 167              		.cfi_offset 3, -8
 168              		.cfi_offset 14, -4
  48:FreeModbus/port/porttimer_m.c **** 	HAL_TIM_Base_Stop_IT(tim_m);
 169              		.loc 1 48 2 view .LVU21
 170 0002 024B     		ldr	r3, .L14
 171 0004 1868     		ldr	r0, [r3]
 172 0006 FFF7FEFF 		bl	HAL_TIM_Base_Stop_IT
 173              	.LVL6:
  49:FreeModbus/port/porttimer_m.c **** 	// TO_Stop(&_to_master);
  50:FreeModbus/port/porttimer_m.c **** }
 174              		.loc 1 50 1 is_stmt 0 view .LVU22
 175 000a 08BD     		pop	{r3, pc}
 176              	.L15:
 177              		.align	2
 178              	.L14:
 179 000c 00000000 		.word	.LANCHOR0
 180              		.cfi_endproc
 181              	.LFE69:
 183              		.section	.text.MBmaster_Timeout,"ax",%progbits
 184              		.align	1
 185              		.global	MBmaster_Timeout
 186              		.syntax unified
 187              		.thumb
 188              		.thumb_func
ARM GAS  C:\Users\BLACK_~1\AppData\Local\Temp\cc93ziiB.s 			page 5


 190              	MBmaster_Timeout:
 191              	.LFB70:
  51:FreeModbus/port/porttimer_m.c **** 
  52:FreeModbus/port/porttimer_m.c **** void MBmaster_Timeout(void)
  53:FreeModbus/port/porttimer_m.c **** {
 192              		.loc 1 53 1 is_stmt 1 view -0
 193              		.cfi_startproc
 194              		@ args = 0, pretend = 0, frame = 0
 195              		@ frame_needed = 0, uses_anonymous_args = 0
 196 0000 08B5     		push	{r3, lr}
 197              	.LCFI4:
 198              		.cfi_def_cfa_offset 8
 199              		.cfi_offset 3, -8
 200              		.cfi_offset 14, -4
  54:FreeModbus/port/porttimer_m.c **** 	if ((++counter_m) >= timeout_m){
 201              		.loc 1 54 2 view .LVU24
 202              		.loc 1 54 7 is_stmt 0 view .LVU25
 203 0002 074A     		ldr	r2, .L19
 204 0004 1388     		ldrh	r3, [r2]
 205 0006 9BB2     		uxth	r3, r3
 206 0008 0133     		adds	r3, r3, #1
 207 000a 9BB2     		uxth	r3, r3
 208              		.loc 1 54 5 view .LVU26
 209 000c 1380     		strh	r3, [r2]	@ movhi
 210              		.loc 1 54 20 view .LVU27
 211 000e 054A     		ldr	r2, .L19+4
 212 0010 1288     		ldrh	r2, [r2]
 213              		.loc 1 54 5 view .LVU28
 214 0012 9342     		cmp	r3, r2
 215 0014 02D3     		bcc	.L16
  55:FreeModbus/port/porttimer_m.c **** 		pxMBMasterPortCBTimerExpired();
 216              		.loc 1 55 3 is_stmt 1 view .LVU29
 217 0016 044B     		ldr	r3, .L19+8
 218 0018 1B68     		ldr	r3, [r3]
 219 001a 9847     		blx	r3
 220              	.LVL7:
 221              	.L16:
  56:FreeModbus/port/porttimer_m.c **** 	}
  57:FreeModbus/port/porttimer_m.c **** 	// printf("b\n");
  58:FreeModbus/port/porttimer_m.c **** }
 222              		.loc 1 58 1 is_stmt 0 view .LVU30
 223 001c 08BD     		pop	{r3, pc}
 224              	.L20:
 225 001e 00BF     		.align	2
 226              	.L19:
 227 0020 00000000 		.word	.LANCHOR2
 228 0024 00000000 		.word	.LANCHOR1
 229 0028 00000000 		.word	pxMBMasterPortCBTimerExpired
 230              		.cfi_endproc
 231              	.LFE70:
 233              		.global	counter_m
 234              		.global	tim_m
 235              		.section	.bss.counter_m,"aw",%nobits
 236              		.align	1
 237              		.set	.LANCHOR2,. + 0
 240              	counter_m:
 241 0000 0000     		.space	2
ARM GAS  C:\Users\BLACK_~1\AppData\Local\Temp\cc93ziiB.s 			page 6


 242              		.section	.bss.tim_m,"aw",%nobits
 243              		.align	2
 244              		.set	.LANCHOR0,. + 0
 247              	tim_m:
 248 0000 00000000 		.space	4
 249              		.section	.bss.timeout_m,"aw",%nobits
 250              		.align	1
 251              		.set	.LANCHOR1,. + 0
 254              	timeout_m:
 255 0000 0000     		.space	2
 256              		.text
 257              	.Letext0:
 258              		.file 2 "e:\\gnu arm embedded toolchain\\10 2021.10\\arm-none-eabi\\include\\machine\\_default_typ
 259              		.file 3 "e:\\gnu arm embedded toolchain\\10 2021.10\\arm-none-eabi\\include\\sys\\_stdint.h"
 260              		.file 4 "Drivers/CMSIS/Device/ST/STM32F1xx/Include/stm32f103xe.h"
 261              		.file 5 "Drivers/STM32F1xx_HAL_Driver/Inc/stm32f1xx_hal_def.h"
 262              		.file 6 "Drivers/STM32F1xx_HAL_Driver/Inc/stm32f1xx_hal_dma.h"
 263              		.file 7 "Drivers/STM32F1xx_HAL_Driver/Inc/stm32f1xx_hal_tim.h"
 264              		.file 8 "FreeModbus/port/port.h"
 265              		.file 9 "FreeModbus/include/mb_m.h"
 266              		.file 10 "Core/Inc/timeout.h"
 267              		.file 11 "FreeModbus/include/mbport.h"
ARM GAS  C:\Users\BLACK_~1\AppData\Local\Temp\cc93ziiB.s 			page 7

