ARM GAS  /tmp/ccaNbEnj.s 			page 1


   1              		.cpu cortex-m3
   2              		.eabi_attribute 20, 1
   3              		.eabi_attribute 21, 1
   4              		.eabi_attribute 23, 3
   5              		.eabi_attribute 24, 1
   6              		.eabi_attribute 25, 1
   7              		.eabi_attribute 26, 1
   8              		.eabi_attribute 30, 1
   9              		.eabi_attribute 34, 1
  10              		.eabi_attribute 18, 4
  11              		.file	"relay.c"
  12              		.text
  13              	.Ltext0:
  14              		.cfi_sections	.debug_frame
  15              		.section	.text.RELAY_Init,"ax",%progbits
  16              		.align	1
  17              		.global	RELAY_Init
  18              		.arch armv7-m
  19              		.syntax unified
  20              		.thumb
  21              		.thumb_func
  22              		.fpu softvfp
  24              	RELAY_Init:
  25              	.LFB197:
  26              		.file 1 "Src/relay.c"
   1:Src/relay.c   **** #include "relay.h"
   2:Src/relay.c   **** #include "modbus_data.h"
   3:Src/relay.c   **** 
   4:Src/relay.c   **** RL_STRUCT_T *relayFlag;
   5:Src/relay.c   **** // extern DEVICE_t device;
   6:Src/relay.c   **** 
   7:Src/relay.c   **** uint32_t blink_tick;
   8:Src/relay.c   **** 
   9:Src/relay.c   **** void RELAY_Init(void)
  10:Src/relay.c   **** {   
  27              		.loc 1 10 1 view -0
  28              		.cfi_startproc
  29              		@ args = 0, pretend = 0, frame = 32
  30              		@ frame_needed = 0, uses_anonymous_args = 0
  31 0000 2DE9F041 		push	{r4, r5, r6, r7, r8, lr}
  32              	.LCFI0:
  33              		.cfi_def_cfa_offset 24
  34              		.cfi_offset 4, -24
  35              		.cfi_offset 5, -20
  36              		.cfi_offset 6, -16
  37              		.cfi_offset 7, -12
  38              		.cfi_offset 8, -8
  39              		.cfi_offset 14, -4
  40 0004 88B0     		sub	sp, sp, #32
  41              	.LCFI1:
  42              		.cfi_def_cfa_offset 56
  11:Src/relay.c   ****     relayFlag = (RL_STRUCT_T*)malloc(sizeof(RL_STRUCT_T));
  43              		.loc 1 11 5 view .LVU1
  44              		.loc 1 11 31 is_stmt 0 view .LVU2
  45 0006 1020     		movs	r0, #16
  46 0008 FFF7FEFF 		bl	malloc
  47              	.LVL0:
ARM GAS  /tmp/ccaNbEnj.s 			page 2


  48              		.loc 1 11 15 view .LVU3
  49 000c 314B     		ldr	r3, .L3
  50 000e 1860     		str	r0, [r3]
  12:Src/relay.c   ****     memset(relayFlag, 0xFF, sizeof(RL_STRUCT_T));
  51              		.loc 1 12 5 is_stmt 1 view .LVU4
  52 0010 4FF0FF33 		mov	r3, #-1
  53 0014 0360     		str	r3, [r0]	@ unaligned
  54 0016 4360     		str	r3, [r0, #4]	@ unaligned
  55 0018 8360     		str	r3, [r0, #8]	@ unaligned
  56 001a C360     		str	r3, [r0, #12]	@ unaligned
  13:Src/relay.c   **** 	GPIO_InitTypeDef GPIO_InitStruct = {0};
  57              		.loc 1 13 2 view .LVU5
  58              		.loc 1 13 19 is_stmt 0 view .LVU6
  59 001c 0025     		movs	r5, #0
  60 001e 0495     		str	r5, [sp, #16]
  61 0020 0595     		str	r5, [sp, #20]
  62 0022 0695     		str	r5, [sp, #24]
  63 0024 0795     		str	r5, [sp, #28]
  14:Src/relay.c   ****     __HAL_RCC_GPIOA_CLK_ENABLE();
  64              		.loc 1 14 5 is_stmt 1 view .LVU7
  65              	.LBB2:
  66              		.loc 1 14 5 view .LVU8
  67              		.loc 1 14 5 view .LVU9
  68 0026 2C4C     		ldr	r4, .L3+4
  69 0028 A369     		ldr	r3, [r4, #24]
  70 002a 43F00403 		orr	r3, r3, #4
  71 002e A361     		str	r3, [r4, #24]
  72              		.loc 1 14 5 view .LVU10
  73 0030 A369     		ldr	r3, [r4, #24]
  74 0032 03F00403 		and	r3, r3, #4
  75 0036 0193     		str	r3, [sp, #4]
  76              		.loc 1 14 5 view .LVU11
  77 0038 019B     		ldr	r3, [sp, #4]
  78              	.LBE2:
  79              		.loc 1 14 5 view .LVU12
  15:Src/relay.c   **** 
  16:Src/relay.c   **** 	HAL_GPIO_WritePin(GPIOA, RL1_PIN|RL15_PIN|RL16_PIN, GPIO_PIN_SET);
  80              		.loc 1 16 2 view .LVU13
  81 003a DFF8A080 		ldr	r8, .L3+8
  82 003e 0122     		movs	r2, #1
  83 0040 4FF4E071 		mov	r1, #448
  84 0044 4046     		mov	r0, r8
  85 0046 FFF7FEFF 		bl	HAL_GPIO_WritePin
  86              	.LVL1:
  17:Src/relay.c   **** 	GPIO_InitStruct.Pin = RL1_PIN|RL15_PIN|RL16_PIN;
  87              		.loc 1 17 2 view .LVU14
  88              		.loc 1 17 22 is_stmt 0 view .LVU15
  89 004a 4FF4E073 		mov	r3, #448
  90 004e 0493     		str	r3, [sp, #16]
  18:Src/relay.c   **** 
  19:Src/relay.c   **** 	GPIO_InitStruct.Mode = GPIO_MODE_OUTPUT_PP;
  91              		.loc 1 19 2 is_stmt 1 view .LVU16
  92              		.loc 1 19 23 is_stmt 0 view .LVU17
  93 0050 0126     		movs	r6, #1
  94 0052 0596     		str	r6, [sp, #20]
  20:Src/relay.c   **** 	GPIO_InitStruct.Pull = GPIO_NOPULL;
  95              		.loc 1 20 2 is_stmt 1 view .LVU18
ARM GAS  /tmp/ccaNbEnj.s 			page 3


  96              		.loc 1 20 23 is_stmt 0 view .LVU19
  97 0054 0695     		str	r5, [sp, #24]
  21:Src/relay.c   **** 	GPIO_InitStruct.Speed = GPIO_SPEED_FREQ_LOW;
  98              		.loc 1 21 2 is_stmt 1 view .LVU20
  99              		.loc 1 21 24 is_stmt 0 view .LVU21
 100 0056 0227     		movs	r7, #2
 101 0058 0797     		str	r7, [sp, #28]
  22:Src/relay.c   **** 	HAL_GPIO_Init(GPIOA, &GPIO_InitStruct);
 102              		.loc 1 22 2 is_stmt 1 view .LVU22
 103 005a 04A9     		add	r1, sp, #16
 104 005c 4046     		mov	r0, r8
 105 005e FFF7FEFF 		bl	HAL_GPIO_Init
 106              	.LVL2:
  23:Src/relay.c   **** 
  24:Src/relay.c   ****     __HAL_RCC_GPIOB_CLK_ENABLE();
 107              		.loc 1 24 5 view .LVU23
 108              	.LBB3:
 109              		.loc 1 24 5 view .LVU24
 110              		.loc 1 24 5 view .LVU25
 111 0062 A369     		ldr	r3, [r4, #24]
 112 0064 43F00803 		orr	r3, r3, #8
 113 0068 A361     		str	r3, [r4, #24]
 114              		.loc 1 24 5 view .LVU26
 115 006a A369     		ldr	r3, [r4, #24]
 116 006c 03F00803 		and	r3, r3, #8
 117 0070 0293     		str	r3, [sp, #8]
 118              		.loc 1 24 5 view .LVU27
 119 0072 029B     		ldr	r3, [sp, #8]
 120              	.LBE3:
 121              		.loc 1 24 5 view .LVU28
  25:Src/relay.c   ****     HAL_GPIO_WritePin(GPIOB, RL6_PIN|RL7_PIN|RL8_PIN|RL9_PIN|RL10_PIN|RL11_PIN|RL12_PIN, GPIO_PIN_S
 122              		.loc 1 25 5 view .LVU29
 123 0074 08F58068 		add	r8, r8, #1024
 124 0078 3246     		mov	r2, r6
 125 007a 4FF20701 		movw	r1, #61447
 126 007e 4046     		mov	r0, r8
 127 0080 FFF7FEFF 		bl	HAL_GPIO_WritePin
 128              	.LVL3:
  26:Src/relay.c   ****     GPIO_InitStruct.Pin = RL6_PIN|RL7_PIN|RL8_PIN|RL9_PIN|RL10_PIN|RL11_PIN|RL12_PIN;
 129              		.loc 1 26 5 view .LVU30
 130              		.loc 1 26 25 is_stmt 0 view .LVU31
 131 0084 4FF20703 		movw	r3, #61447
 132 0088 0493     		str	r3, [sp, #16]
  27:Src/relay.c   **** 
  28:Src/relay.c   ****     GPIO_InitStruct.Mode = GPIO_MODE_OUTPUT_PP;
 133              		.loc 1 28 5 is_stmt 1 view .LVU32
 134              		.loc 1 28 26 is_stmt 0 view .LVU33
 135 008a 0596     		str	r6, [sp, #20]
  29:Src/relay.c   ****     GPIO_InitStruct.Pull = GPIO_NOPULL;
 136              		.loc 1 29 5 is_stmt 1 view .LVU34
 137              		.loc 1 29 26 is_stmt 0 view .LVU35
 138 008c 0695     		str	r5, [sp, #24]
  30:Src/relay.c   ****     GPIO_InitStruct.Speed = GPIO_SPEED_FREQ_LOW;
 139              		.loc 1 30 5 is_stmt 1 view .LVU36
 140              		.loc 1 30 27 is_stmt 0 view .LVU37
 141 008e 0797     		str	r7, [sp, #28]
  31:Src/relay.c   ****     HAL_GPIO_Init(GPIOB, &GPIO_InitStruct);
ARM GAS  /tmp/ccaNbEnj.s 			page 4


 142              		.loc 1 31 5 is_stmt 1 view .LVU38
 143 0090 04A9     		add	r1, sp, #16
 144 0092 4046     		mov	r0, r8
 145 0094 FFF7FEFF 		bl	HAL_GPIO_Init
 146              	.LVL4:
  32:Src/relay.c   **** 
  33:Src/relay.c   ****     __HAL_RCC_GPIOC_CLK_ENABLE();
 147              		.loc 1 33 5 view .LVU39
 148              	.LBB4:
 149              		.loc 1 33 5 view .LVU40
 150              		.loc 1 33 5 view .LVU41
 151 0098 A369     		ldr	r3, [r4, #24]
 152 009a 43F01003 		orr	r3, r3, #16
 153 009e A361     		str	r3, [r4, #24]
 154              		.loc 1 33 5 view .LVU42
 155 00a0 A369     		ldr	r3, [r4, #24]
 156 00a2 03F01003 		and	r3, r3, #16
 157 00a6 0393     		str	r3, [sp, #12]
 158              		.loc 1 33 5 view .LVU43
 159 00a8 039B     		ldr	r3, [sp, #12]
 160              	.LBE4:
 161              		.loc 1 33 5 view .LVU44
  34:Src/relay.c   ****     HAL_GPIO_WritePin(GPIOC, RL2_PIN|RL3_PIN|RL4_PIN|RL5_PIN|RL13_PIN|RL14_PIN, GPIO_PIN_SET);
 162              		.loc 1 34 5 view .LVU45
 163 00aa A4F58034 		sub	r4, r4, #65536
 164 00ae 3246     		mov	r2, r6
 165 00b0 4FF47C71 		mov	r1, #1008
 166 00b4 2046     		mov	r0, r4
 167 00b6 FFF7FEFF 		bl	HAL_GPIO_WritePin
 168              	.LVL5:
  35:Src/relay.c   ****     GPIO_InitStruct.Pin = RL2_PIN|RL3_PIN|RL4_PIN|RL5_PIN|RL13_PIN|RL14_PIN;
 169              		.loc 1 35 5 view .LVU46
 170              		.loc 1 35 25 is_stmt 0 view .LVU47
 171 00ba 4FF47C73 		mov	r3, #1008
 172 00be 0493     		str	r3, [sp, #16]
  36:Src/relay.c   **** 
  37:Src/relay.c   ****     GPIO_InitStruct.Mode = GPIO_MODE_OUTPUT_PP;
 173              		.loc 1 37 5 is_stmt 1 view .LVU48
 174              		.loc 1 37 26 is_stmt 0 view .LVU49
 175 00c0 0596     		str	r6, [sp, #20]
  38:Src/relay.c   ****     GPIO_InitStruct.Pull = GPIO_NOPULL;
 176              		.loc 1 38 5 is_stmt 1 view .LVU50
 177              		.loc 1 38 26 is_stmt 0 view .LVU51
 178 00c2 0695     		str	r5, [sp, #24]
  39:Src/relay.c   ****     GPIO_InitStruct.Speed = GPIO_SPEED_FREQ_LOW;
 179              		.loc 1 39 5 is_stmt 1 view .LVU52
 180              		.loc 1 39 27 is_stmt 0 view .LVU53
 181 00c4 0797     		str	r7, [sp, #28]
  40:Src/relay.c   ****     HAL_GPIO_Init(GPIOC, &GPIO_InitStruct);
 182              		.loc 1 40 5 is_stmt 1 view .LVU54
 183 00c6 04A9     		add	r1, sp, #16
 184 00c8 2046     		mov	r0, r4
 185 00ca FFF7FEFF 		bl	HAL_GPIO_Init
 186              	.LVL6:
  41:Src/relay.c   **** }
 187              		.loc 1 41 1 is_stmt 0 view .LVU55
 188 00ce 08B0     		add	sp, sp, #32
ARM GAS  /tmp/ccaNbEnj.s 			page 5


 189              	.LCFI2:
 190              		.cfi_def_cfa_offset 24
 191              		@ sp needed
 192 00d0 BDE8F081 		pop	{r4, r5, r6, r7, r8, pc}
 193              	.L4:
 194              		.align	2
 195              	.L3:
 196 00d4 00000000 		.word	.LANCHOR0
 197 00d8 00100240 		.word	1073876992
 198 00dc 00080140 		.word	1073809408
 199              		.cfi_endproc
 200              	.LFE197:
 202              		.section	.text.RELAY1,"ax",%progbits
 203              		.align	1
 204              		.global	RELAY1
 205              		.syntax unified
 206              		.thumb
 207              		.thumb_func
 208              		.fpu softvfp
 210              	RELAY1:
 211              	.LVL7:
 212              	.LFB198:
  42:Src/relay.c   **** 
  43:Src/relay.c   **** void RELAY1(uint8_t status)
  44:Src/relay.c   **** {
 213              		.loc 1 44 1 is_stmt 1 view -0
 214              		.cfi_startproc
 215              		@ args = 0, pretend = 0, frame = 0
 216              		@ frame_needed = 0, uses_anonymous_args = 0
 217              		.loc 1 44 1 is_stmt 0 view .LVU57
 218 0000 10B5     		push	{r4, lr}
 219              	.LCFI3:
 220              		.cfi_def_cfa_offset 8
 221              		.cfi_offset 4, -8
 222              		.cfi_offset 14, -4
  45:Src/relay.c   ****     if((status) && (relayFlag->rl1 != status))
 223              		.loc 1 45 5 is_stmt 1 view .LVU58
 224              		.loc 1 45 7 is_stmt 0 view .LVU59
 225 0002 0446     		mov	r4, r0
 226 0004 20B1     		cbz	r0, .L6
 227              		.loc 1 45 30 discriminator 1 view .LVU60
 228 0006 0F4B     		ldr	r3, .L11
 229 0008 1B68     		ldr	r3, [r3]
 230 000a 1A78     		ldrb	r2, [r3]	@ zero_extendqisi2
 231              		.loc 1 45 17 discriminator 1 view .LVU61
 232 000c 8242     		cmp	r2, r0
 233 000e 06D1     		bne	.L9
 234              	.LVL8:
 235              	.L6:
  46:Src/relay.c   ****     {
  47:Src/relay.c   ****         relayFlag->rl1 = status;
  48:Src/relay.c   ****         RL1(1);
  49:Src/relay.c   ****         HAL_Delay(100);
  50:Src/relay.c   ****     }
  51:Src/relay.c   ****     if((!status) && (relayFlag->rl1 != status))
 236              		.loc 1 51 5 is_stmt 1 view .LVU62
 237              		.loc 1 51 7 is_stmt 0 view .LVU63
ARM GAS  /tmp/ccaNbEnj.s 			page 6


 238 0010 24B9     		cbnz	r4, .L5
 239              		.loc 1 51 31 discriminator 1 view .LVU64
 240 0012 0C4B     		ldr	r3, .L11
 241 0014 1B68     		ldr	r3, [r3]
 242 0016 1A78     		ldrb	r2, [r3]	@ zero_extendqisi2
 243              		.loc 1 51 18 discriminator 1 view .LVU65
 244 0018 A242     		cmp	r2, r4
 245 001a 0BD1     		bne	.L10
 246              	.L5:
  52:Src/relay.c   ****     {
  53:Src/relay.c   ****         relayFlag->rl1 = status;
  54:Src/relay.c   ****         RL1(0);
  55:Src/relay.c   ****     }
  56:Src/relay.c   **** }
 247              		.loc 1 56 1 view .LVU66
 248 001c 10BD     		pop	{r4, pc}
 249              	.LVL9:
 250              	.L9:
  47:Src/relay.c   ****         RL1(1);
 251              		.loc 1 47 9 is_stmt 1 view .LVU67
  47:Src/relay.c   ****         RL1(1);
 252              		.loc 1 47 24 is_stmt 0 view .LVU68
 253 001e 1870     		strb	r0, [r3]
  48:Src/relay.c   ****         HAL_Delay(100);
 254              		.loc 1 48 9 is_stmt 1 view .LVU69
 255 0020 0022     		movs	r2, #0
 256 0022 4FF48071 		mov	r1, #256
 257 0026 0848     		ldr	r0, .L11+4
 258              	.LVL10:
  48:Src/relay.c   ****         HAL_Delay(100);
 259              		.loc 1 48 9 is_stmt 0 view .LVU70
 260 0028 FFF7FEFF 		bl	HAL_GPIO_WritePin
 261              	.LVL11:
  49:Src/relay.c   ****     }
 262              		.loc 1 49 9 is_stmt 1 view .LVU71
 263 002c 6420     		movs	r0, #100
 264 002e FFF7FEFF 		bl	HAL_Delay
 265              	.LVL12:
 266 0032 EDE7     		b	.L6
 267              	.L10:
  53:Src/relay.c   ****         RL1(0);
 268              		.loc 1 53 9 view .LVU72
  53:Src/relay.c   ****         RL1(0);
 269              		.loc 1 53 24 is_stmt 0 view .LVU73
 270 0034 1C70     		strb	r4, [r3]
  54:Src/relay.c   ****     }
 271              		.loc 1 54 9 is_stmt 1 view .LVU74
 272 0036 0122     		movs	r2, #1
 273 0038 4FF48071 		mov	r1, #256
 274 003c 0248     		ldr	r0, .L11+4
 275 003e FFF7FEFF 		bl	HAL_GPIO_WritePin
 276              	.LVL13:
 277              		.loc 1 56 1 is_stmt 0 view .LVU75
 278 0042 EBE7     		b	.L5
 279              	.L12:
 280              		.align	2
 281              	.L11:
ARM GAS  /tmp/ccaNbEnj.s 			page 7


 282 0044 00000000 		.word	.LANCHOR0
 283 0048 00080140 		.word	1073809408
 284              		.cfi_endproc
 285              	.LFE198:
 287              		.section	.text.RELAY2,"ax",%progbits
 288              		.align	1
 289              		.global	RELAY2
 290              		.syntax unified
 291              		.thumb
 292              		.thumb_func
 293              		.fpu softvfp
 295              	RELAY2:
 296              	.LVL14:
 297              	.LFB199:
  57:Src/relay.c   **** 
  58:Src/relay.c   **** void RELAY2(uint8_t status)
  59:Src/relay.c   **** {
 298              		.loc 1 59 1 is_stmt 1 view -0
 299              		.cfi_startproc
 300              		@ args = 0, pretend = 0, frame = 0
 301              		@ frame_needed = 0, uses_anonymous_args = 0
 302              		.loc 1 59 1 is_stmt 0 view .LVU77
 303 0000 10B5     		push	{r4, lr}
 304              	.LCFI4:
 305              		.cfi_def_cfa_offset 8
 306              		.cfi_offset 4, -8
 307              		.cfi_offset 14, -4
  60:Src/relay.c   ****     if((status) && (relayFlag->rl2 != status))
 308              		.loc 1 60 5 is_stmt 1 view .LVU78
 309              		.loc 1 60 7 is_stmt 0 view .LVU79
 310 0002 0446     		mov	r4, r0
 311 0004 20B1     		cbz	r0, .L14
 312              		.loc 1 60 30 discriminator 1 view .LVU80
 313 0006 0E4B     		ldr	r3, .L19
 314 0008 1B68     		ldr	r3, [r3]
 315 000a 5A78     		ldrb	r2, [r3, #1]	@ zero_extendqisi2
 316              		.loc 1 60 17 discriminator 1 view .LVU81
 317 000c 8242     		cmp	r2, r0
 318 000e 06D1     		bne	.L17
 319              	.LVL15:
 320              	.L14:
  61:Src/relay.c   ****     {
  62:Src/relay.c   ****         relayFlag->rl2 = status;
  63:Src/relay.c   ****         RL2(1);
  64:Src/relay.c   **** 
  65:Src/relay.c   ****     }
  66:Src/relay.c   ****     if((!status) && (relayFlag->rl2 != status))
 321              		.loc 1 66 5 is_stmt 1 view .LVU82
 322              		.loc 1 66 7 is_stmt 0 view .LVU83
 323 0010 24B9     		cbnz	r4, .L13
 324              		.loc 1 66 31 discriminator 1 view .LVU84
 325 0012 0B4B     		ldr	r3, .L19
 326 0014 1B68     		ldr	r3, [r3]
 327 0016 5A78     		ldrb	r2, [r3, #1]	@ zero_extendqisi2
 328              		.loc 1 66 18 discriminator 1 view .LVU85
 329 0018 A242     		cmp	r2, r4
 330 001a 08D1     		bne	.L18
ARM GAS  /tmp/ccaNbEnj.s 			page 8


 331              	.L13:
  67:Src/relay.c   ****     {
  68:Src/relay.c   ****         relayFlag->rl2 = status;
  69:Src/relay.c   ****         RL2(0);
  70:Src/relay.c   ****     }
  71:Src/relay.c   **** }
 332              		.loc 1 71 1 view .LVU86
 333 001c 10BD     		pop	{r4, pc}
 334              	.LVL16:
 335              	.L17:
  62:Src/relay.c   ****         RL2(1);
 336              		.loc 1 62 9 is_stmt 1 view .LVU87
  62:Src/relay.c   ****         RL2(1);
 337              		.loc 1 62 24 is_stmt 0 view .LVU88
 338 001e 5870     		strb	r0, [r3, #1]
  63:Src/relay.c   **** 
 339              		.loc 1 63 9 is_stmt 1 view .LVU89
 340 0020 0022     		movs	r2, #0
 341 0022 4FF40071 		mov	r1, #512
 342 0026 0748     		ldr	r0, .L19+4
 343              	.LVL17:
  63:Src/relay.c   **** 
 344              		.loc 1 63 9 is_stmt 0 view .LVU90
 345 0028 FFF7FEFF 		bl	HAL_GPIO_WritePin
 346              	.LVL18:
  63:Src/relay.c   **** 
 347              		.loc 1 63 9 view .LVU91
 348 002c F0E7     		b	.L14
 349              	.L18:
  68:Src/relay.c   ****         RL2(0);
 350              		.loc 1 68 9 is_stmt 1 view .LVU92
  68:Src/relay.c   ****         RL2(0);
 351              		.loc 1 68 24 is_stmt 0 view .LVU93
 352 002e 5C70     		strb	r4, [r3, #1]
  69:Src/relay.c   ****     }
 353              		.loc 1 69 9 is_stmt 1 view .LVU94
 354 0030 0122     		movs	r2, #1
 355 0032 4FF40071 		mov	r1, #512
 356 0036 0348     		ldr	r0, .L19+4
 357 0038 FFF7FEFF 		bl	HAL_GPIO_WritePin
 358              	.LVL19:
 359              		.loc 1 71 1 is_stmt 0 view .LVU95
 360 003c EEE7     		b	.L13
 361              	.L20:
 362 003e 00BF     		.align	2
 363              	.L19:
 364 0040 00000000 		.word	.LANCHOR0
 365 0044 00100140 		.word	1073811456
 366              		.cfi_endproc
 367              	.LFE199:
 369              		.section	.text.RELAY3,"ax",%progbits
 370              		.align	1
 371              		.global	RELAY3
 372              		.syntax unified
 373              		.thumb
 374              		.thumb_func
 375              		.fpu softvfp
ARM GAS  /tmp/ccaNbEnj.s 			page 9


 377              	RELAY3:
 378              	.LVL20:
 379              	.LFB200:
  72:Src/relay.c   **** 
  73:Src/relay.c   **** void RELAY3(uint8_t status)
  74:Src/relay.c   **** {
 380              		.loc 1 74 1 is_stmt 1 view -0
 381              		.cfi_startproc
 382              		@ args = 0, pretend = 0, frame = 0
 383              		@ frame_needed = 0, uses_anonymous_args = 0
 384              		.loc 1 74 1 is_stmt 0 view .LVU97
 385 0000 08B5     		push	{r3, lr}
 386              	.LCFI5:
 387              		.cfi_def_cfa_offset 8
 388              		.cfi_offset 3, -8
 389              		.cfi_offset 14, -4
  75:Src/relay.c   ****     if (status)
 390              		.loc 1 75 5 is_stmt 1 view .LVU98
 391              		.loc 1 75 8 is_stmt 0 view .LVU99
 392 0002 28B9     		cbnz	r0, .L25
  76:Src/relay.c   ****     {
  77:Src/relay.c   ****         RL4(0);
  78:Src/relay.c   ****         if(HAL_GetTick() - blink_tick > 1000)
  79:Src/relay.c   ****         {
  80:Src/relay.c   ****             HAL_GPIO_TogglePin(GPIOC, RL3_PIN);
  81:Src/relay.c   ****             blink_tick = HAL_GetTick();
  82:Src/relay.c   ****         }
  83:Src/relay.c   ****         
  84:Src/relay.c   ****     }
  85:Src/relay.c   ****     else if((!status) && (relayFlag->rl3 != status))
 393              		.loc 1 85 10 is_stmt 1 discriminator 1 view .LVU100
 394              		.loc 1 85 36 is_stmt 0 discriminator 1 view .LVU101
 395 0004 124A     		ldr	r2, .L27
 396 0006 1268     		ldr	r2, [r2]
 397 0008 9178     		ldrb	r1, [r2, #2]	@ zero_extendqisi2
 398              		.loc 1 85 23 discriminator 1 view .LVU102
 399 000a 8142     		cmp	r1, r0
 400 000c 17D1     		bne	.L26
 401              	.LVL21:
 402              	.L21:
  86:Src/relay.c   ****     {
  87:Src/relay.c   ****         relayFlag->rl3 = status;
  88:Src/relay.c   ****         RL3(0);
  89:Src/relay.c   ****         
  90:Src/relay.c   ****     }
  91:Src/relay.c   **** }
 403              		.loc 1 91 1 view .LVU103
 404 000e 08BD     		pop	{r3, pc}
 405              	.LVL22:
 406              	.L25:
  77:Src/relay.c   ****         if(HAL_GetTick() - blink_tick > 1000)
 407              		.loc 1 77 9 is_stmt 1 view .LVU104
 408 0010 0122     		movs	r2, #1
 409 0012 8021     		movs	r1, #128
 410 0014 0F48     		ldr	r0, .L27+4
 411              	.LVL23:
  77:Src/relay.c   ****         if(HAL_GetTick() - blink_tick > 1000)
ARM GAS  /tmp/ccaNbEnj.s 			page 10


 412              		.loc 1 77 9 is_stmt 0 view .LVU105
 413 0016 FFF7FEFF 		bl	HAL_GPIO_WritePin
 414              	.LVL24:
  78:Src/relay.c   ****         {
 415              		.loc 1 78 9 is_stmt 1 view .LVU106
  78:Src/relay.c   ****         {
 416              		.loc 1 78 12 is_stmt 0 view .LVU107
 417 001a FFF7FEFF 		bl	HAL_GetTick
 418              	.LVL25:
  78:Src/relay.c   ****         {
 419              		.loc 1 78 26 view .LVU108
 420 001e 0E4B     		ldr	r3, .L27+8
 421 0020 1B68     		ldr	r3, [r3]
 422 0022 C01A     		subs	r0, r0, r3
  78:Src/relay.c   ****         {
 423              		.loc 1 78 11 view .LVU109
 424 0024 B0F57A7F 		cmp	r0, #1000
 425 0028 F1D9     		bls	.L21
  80:Src/relay.c   ****             blink_tick = HAL_GetTick();
 426              		.loc 1 80 13 is_stmt 1 view .LVU110
 427 002a 4FF48071 		mov	r1, #256
 428 002e 0948     		ldr	r0, .L27+4
 429 0030 FFF7FEFF 		bl	HAL_GPIO_TogglePin
 430              	.LVL26:
  81:Src/relay.c   ****         }
 431              		.loc 1 81 13 view .LVU111
  81:Src/relay.c   ****         }
 432              		.loc 1 81 26 is_stmt 0 view .LVU112
 433 0034 FFF7FEFF 		bl	HAL_GetTick
 434              	.LVL27:
  81:Src/relay.c   ****         }
 435              		.loc 1 81 24 view .LVU113
 436 0038 074B     		ldr	r3, .L27+8
 437 003a 1860     		str	r0, [r3]
 438 003c E7E7     		b	.L21
 439              	.LVL28:
 440              	.L26:
  87:Src/relay.c   ****         RL3(0);
 441              		.loc 1 87 9 is_stmt 1 view .LVU114
  87:Src/relay.c   ****         RL3(0);
 442              		.loc 1 87 24 is_stmt 0 view .LVU115
 443 003e 9070     		strb	r0, [r2, #2]
  88:Src/relay.c   ****         
 444              		.loc 1 88 9 is_stmt 1 view .LVU116
 445 0040 0122     		movs	r2, #1
 446 0042 4FF48071 		mov	r1, #256
 447 0046 0348     		ldr	r0, .L27+4
 448              	.LVL29:
  88:Src/relay.c   ****         
 449              		.loc 1 88 9 is_stmt 0 view .LVU117
 450 0048 FFF7FEFF 		bl	HAL_GPIO_WritePin
 451              	.LVL30:
 452              		.loc 1 91 1 view .LVU118
 453 004c DFE7     		b	.L21
 454              	.L28:
 455 004e 00BF     		.align	2
 456              	.L27:
ARM GAS  /tmp/ccaNbEnj.s 			page 11


 457 0050 00000000 		.word	.LANCHOR0
 458 0054 00100140 		.word	1073811456
 459 0058 00000000 		.word	.LANCHOR1
 460              		.cfi_endproc
 461              	.LFE200:
 463              		.section	.text.RELAY4,"ax",%progbits
 464              		.align	1
 465              		.global	RELAY4
 466              		.syntax unified
 467              		.thumb
 468              		.thumb_func
 469              		.fpu softvfp
 471              	RELAY4:
 472              	.LVL31:
 473              	.LFB201:
  92:Src/relay.c   **** 
  93:Src/relay.c   **** void RELAY4(uint8_t status)
  94:Src/relay.c   **** {
 474              		.loc 1 94 1 is_stmt 1 view -0
 475              		.cfi_startproc
 476              		@ args = 0, pretend = 0, frame = 0
 477              		@ frame_needed = 0, uses_anonymous_args = 0
 478              		.loc 1 94 1 is_stmt 0 view .LVU120
 479 0000 08B5     		push	{r3, lr}
 480              	.LCFI6:
 481              		.cfi_def_cfa_offset 8
 482              		.cfi_offset 3, -8
 483              		.cfi_offset 14, -4
  95:Src/relay.c   ****     if (status)
 484              		.loc 1 95 5 is_stmt 1 view .LVU121
 485              		.loc 1 95 8 is_stmt 0 view .LVU122
 486 0002 28B9     		cbnz	r0, .L33
  96:Src/relay.c   ****     {
  97:Src/relay.c   ****         RL3(0);
  98:Src/relay.c   ****         if(HAL_GetTick() - blink_tick > 1000)
  99:Src/relay.c   ****         {
 100:Src/relay.c   ****             HAL_GPIO_TogglePin(GPIOC, RL4_PIN);
 101:Src/relay.c   ****             blink_tick = HAL_GetTick();
 102:Src/relay.c   ****         }
 103:Src/relay.c   ****     } 
 104:Src/relay.c   ****     else if((!status) && (relayFlag->rl4 != status))
 487              		.loc 1 104 10 is_stmt 1 discriminator 1 view .LVU123
 488              		.loc 1 104 36 is_stmt 0 discriminator 1 view .LVU124
 489 0004 114A     		ldr	r2, .L35
 490 0006 1268     		ldr	r2, [r2]
 491 0008 D178     		ldrb	r1, [r2, #3]	@ zero_extendqisi2
 492              		.loc 1 104 23 discriminator 1 view .LVU125
 493 000a 8142     		cmp	r1, r0
 494 000c 17D1     		bne	.L34
 495              	.LVL32:
 496              	.L29:
 105:Src/relay.c   ****     {
 106:Src/relay.c   ****         relayFlag->rl4 = status;
 107:Src/relay.c   ****         RL4(0);
 108:Src/relay.c   ****     }
 109:Src/relay.c   ****    
 110:Src/relay.c   **** }
ARM GAS  /tmp/ccaNbEnj.s 			page 12


 497              		.loc 1 110 1 view .LVU126
 498 000e 08BD     		pop	{r3, pc}
 499              	.LVL33:
 500              	.L33:
  97:Src/relay.c   ****         if(HAL_GetTick() - blink_tick > 1000)
 501              		.loc 1 97 9 is_stmt 1 view .LVU127
 502 0010 0122     		movs	r2, #1
 503 0012 4FF48071 		mov	r1, #256
 504 0016 0E48     		ldr	r0, .L35+4
 505              	.LVL34:
  97:Src/relay.c   ****         if(HAL_GetTick() - blink_tick > 1000)
 506              		.loc 1 97 9 is_stmt 0 view .LVU128
 507 0018 FFF7FEFF 		bl	HAL_GPIO_WritePin
 508              	.LVL35:
  98:Src/relay.c   ****         {
 509              		.loc 1 98 9 is_stmt 1 view .LVU129
  98:Src/relay.c   ****         {
 510              		.loc 1 98 12 is_stmt 0 view .LVU130
 511 001c FFF7FEFF 		bl	HAL_GetTick
 512              	.LVL36:
  98:Src/relay.c   ****         {
 513              		.loc 1 98 26 view .LVU131
 514 0020 0C4B     		ldr	r3, .L35+8
 515 0022 1B68     		ldr	r3, [r3]
 516 0024 C01A     		subs	r0, r0, r3
  98:Src/relay.c   ****         {
 517              		.loc 1 98 11 view .LVU132
 518 0026 B0F57A7F 		cmp	r0, #1000
 519 002a F0D9     		bls	.L29
 100:Src/relay.c   ****             blink_tick = HAL_GetTick();
 520              		.loc 1 100 13 is_stmt 1 view .LVU133
 521 002c 8021     		movs	r1, #128
 522 002e 0848     		ldr	r0, .L35+4
 523 0030 FFF7FEFF 		bl	HAL_GPIO_TogglePin
 524              	.LVL37:
 101:Src/relay.c   ****         }
 525              		.loc 1 101 13 view .LVU134
 101:Src/relay.c   ****         }
 526              		.loc 1 101 26 is_stmt 0 view .LVU135
 527 0034 FFF7FEFF 		bl	HAL_GetTick
 528              	.LVL38:
 101:Src/relay.c   ****         }
 529              		.loc 1 101 24 view .LVU136
 530 0038 064B     		ldr	r3, .L35+8
 531 003a 1860     		str	r0, [r3]
 532 003c E7E7     		b	.L29
 533              	.LVL39:
 534              	.L34:
 106:Src/relay.c   ****         RL4(0);
 535              		.loc 1 106 9 is_stmt 1 view .LVU137
 106:Src/relay.c   ****         RL4(0);
 536              		.loc 1 106 24 is_stmt 0 view .LVU138
 537 003e D070     		strb	r0, [r2, #3]
 107:Src/relay.c   ****     }
 538              		.loc 1 107 9 is_stmt 1 view .LVU139
 539 0040 0122     		movs	r2, #1
 540 0042 8021     		movs	r1, #128
ARM GAS  /tmp/ccaNbEnj.s 			page 13


 541 0044 0248     		ldr	r0, .L35+4
 542              	.LVL40:
 107:Src/relay.c   ****     }
 543              		.loc 1 107 9 is_stmt 0 view .LVU140
 544 0046 FFF7FEFF 		bl	HAL_GPIO_WritePin
 545              	.LVL41:
 546              		.loc 1 110 1 view .LVU141
 547 004a E0E7     		b	.L29
 548              	.L36:
 549              		.align	2
 550              	.L35:
 551 004c 00000000 		.word	.LANCHOR0
 552 0050 00100140 		.word	1073811456
 553 0054 00000000 		.word	.LANCHOR1
 554              		.cfi_endproc
 555              	.LFE201:
 557              		.section	.text.RELAY5,"ax",%progbits
 558              		.align	1
 559              		.global	RELAY5
 560              		.syntax unified
 561              		.thumb
 562              		.thumb_func
 563              		.fpu softvfp
 565              	RELAY5:
 566              	.LVL42:
 567              	.LFB202:
 111:Src/relay.c   **** 
 112:Src/relay.c   **** void RELAY5(uint8_t status)
 113:Src/relay.c   **** {
 568              		.loc 1 113 1 is_stmt 1 view -0
 569              		.cfi_startproc
 570              		@ args = 0, pretend = 0, frame = 0
 571              		@ frame_needed = 0, uses_anonymous_args = 0
 572              		.loc 1 113 1 is_stmt 0 view .LVU143
 573 0000 10B5     		push	{r4, lr}
 574              	.LCFI7:
 575              		.cfi_def_cfa_offset 8
 576              		.cfi_offset 4, -8
 577              		.cfi_offset 14, -4
 114:Src/relay.c   **** 
 115:Src/relay.c   ****     if (status)
 578              		.loc 1 115 5 is_stmt 1 view .LVU144
 579              		.loc 1 115 8 is_stmt 0 view .LVU145
 580 0002 30B9     		cbnz	r0, .L41
 581 0004 0446     		mov	r4, r0
 116:Src/relay.c   ****     {
 117:Src/relay.c   **** 
 118:Src/relay.c   ****         if(HAL_GetTick() - blink_tick > 1000)
 119:Src/relay.c   ****         {
 120:Src/relay.c   ****             HAL_GPIO_TogglePin(GPIOC, RL5_PIN);
 121:Src/relay.c   ****             blink_tick = HAL_GetTick();
 122:Src/relay.c   ****         }
 123:Src/relay.c   ****     } 
 124:Src/relay.c   ****     else if((!status) && (relayFlag->rl5 != status))
 582              		.loc 1 124 10 is_stmt 1 discriminator 1 view .LVU146
 583              		.loc 1 124 36 is_stmt 0 discriminator 1 view .LVU147
 584 0006 114B     		ldr	r3, .L43
ARM GAS  /tmp/ccaNbEnj.s 			page 14


 585 0008 1B68     		ldr	r3, [r3]
 586 000a 1B79     		ldrb	r3, [r3, #4]	@ zero_extendqisi2
 587              		.loc 1 124 23 discriminator 1 view .LVU148
 588 000c 8342     		cmp	r3, r0
 589 000e 11D1     		bne	.L42
 590              	.LVL43:
 591              	.L37:
 125:Src/relay.c   ****     {
 126:Src/relay.c   ****         HAL_Delay(50);
 127:Src/relay.c   ****         relayFlag->rl5 = status;
 128:Src/relay.c   ****         RL5(0);
 129:Src/relay.c   ****     }
 130:Src/relay.c   **** 
 131:Src/relay.c   **** }
 592              		.loc 1 131 1 view .LVU149
 593 0010 10BD     		pop	{r4, pc}
 594              	.LVL44:
 595              	.L41:
 118:Src/relay.c   ****         {
 596              		.loc 1 118 9 is_stmt 1 view .LVU150
 118:Src/relay.c   ****         {
 597              		.loc 1 118 12 is_stmt 0 view .LVU151
 598 0012 FFF7FEFF 		bl	HAL_GetTick
 599              	.LVL45:
 118:Src/relay.c   ****         {
 600              		.loc 1 118 26 view .LVU152
 601 0016 0E4B     		ldr	r3, .L43+4
 602 0018 1B68     		ldr	r3, [r3]
 603 001a C01A     		subs	r0, r0, r3
 118:Src/relay.c   ****         {
 604              		.loc 1 118 11 view .LVU153
 605 001c B0F57A7F 		cmp	r0, #1000
 606 0020 F6D9     		bls	.L37
 120:Src/relay.c   ****             blink_tick = HAL_GetTick();
 607              		.loc 1 120 13 is_stmt 1 view .LVU154
 608 0022 4021     		movs	r1, #64
 609 0024 0B48     		ldr	r0, .L43+8
 610 0026 FFF7FEFF 		bl	HAL_GPIO_TogglePin
 611              	.LVL46:
 121:Src/relay.c   ****         }
 612              		.loc 1 121 13 view .LVU155
 121:Src/relay.c   ****         }
 613              		.loc 1 121 26 is_stmt 0 view .LVU156
 614 002a FFF7FEFF 		bl	HAL_GetTick
 615              	.LVL47:
 121:Src/relay.c   ****         }
 616              		.loc 1 121 24 view .LVU157
 617 002e 084B     		ldr	r3, .L43+4
 618 0030 1860     		str	r0, [r3]
 619 0032 EDE7     		b	.L37
 620              	.LVL48:
 621              	.L42:
 126:Src/relay.c   ****         relayFlag->rl5 = status;
 622              		.loc 1 126 9 is_stmt 1 view .LVU158
 623 0034 3220     		movs	r0, #50
 624              	.LVL49:
 126:Src/relay.c   ****         relayFlag->rl5 = status;
ARM GAS  /tmp/ccaNbEnj.s 			page 15


 625              		.loc 1 126 9 is_stmt 0 view .LVU159
 626 0036 FFF7FEFF 		bl	HAL_Delay
 627              	.LVL50:
 127:Src/relay.c   ****         RL5(0);
 628              		.loc 1 127 9 is_stmt 1 view .LVU160
 127:Src/relay.c   ****         RL5(0);
 629              		.loc 1 127 18 is_stmt 0 view .LVU161
 630 003a 044B     		ldr	r3, .L43
 631 003c 1B68     		ldr	r3, [r3]
 127:Src/relay.c   ****         RL5(0);
 632              		.loc 1 127 24 view .LVU162
 633 003e 1C71     		strb	r4, [r3, #4]
 128:Src/relay.c   ****     }
 634              		.loc 1 128 9 is_stmt 1 view .LVU163
 635 0040 0122     		movs	r2, #1
 636 0042 4021     		movs	r1, #64
 637 0044 0348     		ldr	r0, .L43+8
 638 0046 FFF7FEFF 		bl	HAL_GPIO_WritePin
 639              	.LVL51:
 640              		.loc 1 131 1 is_stmt 0 view .LVU164
 641 004a E1E7     		b	.L37
 642              	.L44:
 643              		.align	2
 644              	.L43:
 645 004c 00000000 		.word	.LANCHOR0
 646 0050 00000000 		.word	.LANCHOR1
 647 0054 00100140 		.word	1073811456
 648              		.cfi_endproc
 649              	.LFE202:
 651              		.section	.text.RELAY6,"ax",%progbits
 652              		.align	1
 653              		.global	RELAY6
 654              		.syntax unified
 655              		.thumb
 656              		.thumb_func
 657              		.fpu softvfp
 659              	RELAY6:
 660              	.LVL52:
 661              	.LFB203:
 132:Src/relay.c   **** 
 133:Src/relay.c   **** void RELAY6(uint8_t status)
 134:Src/relay.c   **** {
 662              		.loc 1 134 1 is_stmt 1 view -0
 663              		.cfi_startproc
 664              		@ args = 0, pretend = 0, frame = 0
 665              		@ frame_needed = 0, uses_anonymous_args = 0
 666              		.loc 1 134 1 is_stmt 0 view .LVU166
 667 0000 10B5     		push	{r4, lr}
 668              	.LCFI8:
 669              		.cfi_def_cfa_offset 8
 670              		.cfi_offset 4, -8
 671              		.cfi_offset 14, -4
 135:Src/relay.c   ****     if((status) && (relayFlag->rl6 != status))
 672              		.loc 1 135 5 is_stmt 1 view .LVU167
 673              		.loc 1 135 7 is_stmt 0 view .LVU168
 674 0002 0446     		mov	r4, r0
 675 0004 20B1     		cbz	r0, .L46
ARM GAS  /tmp/ccaNbEnj.s 			page 16


 676              		.loc 1 135 30 discriminator 1 view .LVU169
 677 0006 0E4B     		ldr	r3, .L51
 678 0008 1B68     		ldr	r3, [r3]
 679 000a 5A79     		ldrb	r2, [r3, #5]	@ zero_extendqisi2
 680              		.loc 1 135 17 discriminator 1 view .LVU170
 681 000c 8242     		cmp	r2, r0
 682 000e 06D1     		bne	.L49
 683              	.LVL53:
 684              	.L46:
 136:Src/relay.c   ****     {
 137:Src/relay.c   ****         relayFlag->rl6 = status;
 138:Src/relay.c   ****         RL6(1);
 139:Src/relay.c   ****         // HAL_Delay(50);
 140:Src/relay.c   ****     }
 141:Src/relay.c   ****     if((!status) && (relayFlag->rl6 != status))
 685              		.loc 1 141 5 is_stmt 1 view .LVU171
 686              		.loc 1 141 7 is_stmt 0 view .LVU172
 687 0010 24B9     		cbnz	r4, .L45
 688              		.loc 1 141 31 discriminator 1 view .LVU173
 689 0012 0B4B     		ldr	r3, .L51
 690 0014 1B68     		ldr	r3, [r3]
 691 0016 5A79     		ldrb	r2, [r3, #5]	@ zero_extendqisi2
 692              		.loc 1 141 18 discriminator 1 view .LVU174
 693 0018 A242     		cmp	r2, r4
 694 001a 08D1     		bne	.L50
 695              	.L45:
 142:Src/relay.c   ****     {
 143:Src/relay.c   ****         relayFlag->rl6 = status;
 144:Src/relay.c   ****         RL6(0);
 145:Src/relay.c   ****     }
 146:Src/relay.c   **** }
 696              		.loc 1 146 1 view .LVU175
 697 001c 10BD     		pop	{r4, pc}
 698              	.LVL54:
 699              	.L49:
 137:Src/relay.c   ****         RL6(1);
 700              		.loc 1 137 9 is_stmt 1 view .LVU176
 137:Src/relay.c   ****         RL6(1);
 701              		.loc 1 137 24 is_stmt 0 view .LVU177
 702 001e 5871     		strb	r0, [r3, #5]
 138:Src/relay.c   ****         // HAL_Delay(50);
 703              		.loc 1 138 9 is_stmt 1 view .LVU178
 704 0020 0022     		movs	r2, #0
 705 0022 4FF40041 		mov	r1, #32768
 706 0026 0748     		ldr	r0, .L51+4
 707              	.LVL55:
 138:Src/relay.c   ****         // HAL_Delay(50);
 708              		.loc 1 138 9 is_stmt 0 view .LVU179
 709 0028 FFF7FEFF 		bl	HAL_GPIO_WritePin
 710              	.LVL56:
 138:Src/relay.c   ****         // HAL_Delay(50);
 711              		.loc 1 138 9 view .LVU180
 712 002c F0E7     		b	.L46
 713              	.L50:
 143:Src/relay.c   ****         RL6(0);
 714              		.loc 1 143 9 is_stmt 1 view .LVU181
 143:Src/relay.c   ****         RL6(0);
ARM GAS  /tmp/ccaNbEnj.s 			page 17


 715              		.loc 1 143 24 is_stmt 0 view .LVU182
 716 002e 5C71     		strb	r4, [r3, #5]
 144:Src/relay.c   ****     }
 717              		.loc 1 144 9 is_stmt 1 view .LVU183
 718 0030 0122     		movs	r2, #1
 719 0032 4FF40041 		mov	r1, #32768
 720 0036 0348     		ldr	r0, .L51+4
 721 0038 FFF7FEFF 		bl	HAL_GPIO_WritePin
 722              	.LVL57:
 723              		.loc 1 146 1 is_stmt 0 view .LVU184
 724 003c EEE7     		b	.L45
 725              	.L52:
 726 003e 00BF     		.align	2
 727              	.L51:
 728 0040 00000000 		.word	.LANCHOR0
 729 0044 000C0140 		.word	1073810432
 730              		.cfi_endproc
 731              	.LFE203:
 733              		.section	.text.RELAY7,"ax",%progbits
 734              		.align	1
 735              		.global	RELAY7
 736              		.syntax unified
 737              		.thumb
 738              		.thumb_func
 739              		.fpu softvfp
 741              	RELAY7:
 742              	.LVL58:
 743              	.LFB204:
 147:Src/relay.c   **** 
 148:Src/relay.c   **** void RELAY7(uint8_t status)
 149:Src/relay.c   **** {
 744              		.loc 1 149 1 is_stmt 1 view -0
 745              		.cfi_startproc
 746              		@ args = 0, pretend = 0, frame = 0
 747              		@ frame_needed = 0, uses_anonymous_args = 0
 748              		.loc 1 149 1 is_stmt 0 view .LVU186
 749 0000 10B5     		push	{r4, lr}
 750              	.LCFI9:
 751              		.cfi_def_cfa_offset 8
 752              		.cfi_offset 4, -8
 753              		.cfi_offset 14, -4
 150:Src/relay.c   ****     if((status) && (relayFlag->rl7 != status))
 754              		.loc 1 150 5 is_stmt 1 view .LVU187
 755              		.loc 1 150 7 is_stmt 0 view .LVU188
 756 0002 0446     		mov	r4, r0
 757 0004 20B1     		cbz	r0, .L54
 758              		.loc 1 150 30 discriminator 1 view .LVU189
 759 0006 0E4B     		ldr	r3, .L59
 760 0008 1B68     		ldr	r3, [r3]
 761 000a 9A79     		ldrb	r2, [r3, #6]	@ zero_extendqisi2
 762              		.loc 1 150 17 discriminator 1 view .LVU190
 763 000c 8242     		cmp	r2, r0
 764 000e 06D1     		bne	.L57
 765              	.LVL59:
 766              	.L54:
 151:Src/relay.c   ****     {
 152:Src/relay.c   ****         relayFlag->rl7 = status;
ARM GAS  /tmp/ccaNbEnj.s 			page 18


 153:Src/relay.c   ****         RL7(1);
 154:Src/relay.c   ****         // HAL_Delay(50);
 155:Src/relay.c   ****     }
 156:Src/relay.c   ****     if((!status) && (relayFlag->rl7 != status))
 767              		.loc 1 156 5 is_stmt 1 view .LVU191
 768              		.loc 1 156 7 is_stmt 0 view .LVU192
 769 0010 24B9     		cbnz	r4, .L53
 770              		.loc 1 156 31 discriminator 1 view .LVU193
 771 0012 0B4B     		ldr	r3, .L59
 772 0014 1B68     		ldr	r3, [r3]
 773 0016 9A79     		ldrb	r2, [r3, #6]	@ zero_extendqisi2
 774              		.loc 1 156 18 discriminator 1 view .LVU194
 775 0018 A242     		cmp	r2, r4
 776 001a 08D1     		bne	.L58
 777              	.L53:
 157:Src/relay.c   ****     {
 158:Src/relay.c   ****         relayFlag->rl7 = status;
 159:Src/relay.c   ****         RL7(0);
 160:Src/relay.c   ****     }
 161:Src/relay.c   **** }
 778              		.loc 1 161 1 view .LVU195
 779 001c 10BD     		pop	{r4, pc}
 780              	.LVL60:
 781              	.L57:
 152:Src/relay.c   ****         RL7(1);
 782              		.loc 1 152 9 is_stmt 1 view .LVU196
 152:Src/relay.c   ****         RL7(1);
 783              		.loc 1 152 24 is_stmt 0 view .LVU197
 784 001e 9871     		strb	r0, [r3, #6]
 153:Src/relay.c   ****         // HAL_Delay(50);
 785              		.loc 1 153 9 is_stmt 1 view .LVU198
 786 0020 0022     		movs	r2, #0
 787 0022 4FF48041 		mov	r1, #16384
 788 0026 0748     		ldr	r0, .L59+4
 789              	.LVL61:
 153:Src/relay.c   ****         // HAL_Delay(50);
 790              		.loc 1 153 9 is_stmt 0 view .LVU199
 791 0028 FFF7FEFF 		bl	HAL_GPIO_WritePin
 792              	.LVL62:
 153:Src/relay.c   ****         // HAL_Delay(50);
 793              		.loc 1 153 9 view .LVU200
 794 002c F0E7     		b	.L54
 795              	.L58:
 158:Src/relay.c   ****         RL7(0);
 796              		.loc 1 158 9 is_stmt 1 view .LVU201
 158:Src/relay.c   ****         RL7(0);
 797              		.loc 1 158 24 is_stmt 0 view .LVU202
 798 002e 9C71     		strb	r4, [r3, #6]
 159:Src/relay.c   ****     }
 799              		.loc 1 159 9 is_stmt 1 view .LVU203
 800 0030 0122     		movs	r2, #1
 801 0032 4FF48041 		mov	r1, #16384
 802 0036 0348     		ldr	r0, .L59+4
 803 0038 FFF7FEFF 		bl	HAL_GPIO_WritePin
 804              	.LVL63:
 805              		.loc 1 161 1 is_stmt 0 view .LVU204
 806 003c EEE7     		b	.L53
ARM GAS  /tmp/ccaNbEnj.s 			page 19


 807              	.L60:
 808 003e 00BF     		.align	2
 809              	.L59:
 810 0040 00000000 		.word	.LANCHOR0
 811 0044 000C0140 		.word	1073810432
 812              		.cfi_endproc
 813              	.LFE204:
 815              		.section	.text.RELAY8,"ax",%progbits
 816              		.align	1
 817              		.global	RELAY8
 818              		.syntax unified
 819              		.thumb
 820              		.thumb_func
 821              		.fpu softvfp
 823              	RELAY8:
 824              	.LVL64:
 825              	.LFB205:
 162:Src/relay.c   **** 
 163:Src/relay.c   **** void RELAY8(uint8_t status)
 164:Src/relay.c   **** {
 826              		.loc 1 164 1 is_stmt 1 view -0
 827              		.cfi_startproc
 828              		@ args = 0, pretend = 0, frame = 0
 829              		@ frame_needed = 0, uses_anonymous_args = 0
 830              		.loc 1 164 1 is_stmt 0 view .LVU206
 831 0000 10B5     		push	{r4, lr}
 832              	.LCFI10:
 833              		.cfi_def_cfa_offset 8
 834              		.cfi_offset 4, -8
 835              		.cfi_offset 14, -4
 165:Src/relay.c   ****     if((status) && (relayFlag->rl8 != status))
 836              		.loc 1 165 5 is_stmt 1 view .LVU207
 837              		.loc 1 165 7 is_stmt 0 view .LVU208
 838 0002 0446     		mov	r4, r0
 839 0004 20B1     		cbz	r0, .L62
 840              		.loc 1 165 30 discriminator 1 view .LVU209
 841 0006 0E4B     		ldr	r3, .L67
 842 0008 1B68     		ldr	r3, [r3]
 843 000a DA79     		ldrb	r2, [r3, #7]	@ zero_extendqisi2
 844              		.loc 1 165 17 discriminator 1 view .LVU210
 845 000c 8242     		cmp	r2, r0
 846 000e 06D1     		bne	.L65
 847              	.LVL65:
 848              	.L62:
 166:Src/relay.c   ****     {
 167:Src/relay.c   ****         relayFlag->rl8 = status;
 168:Src/relay.c   ****         RL8(1);
 169:Src/relay.c   ****         // HAL_Delay(500);
 170:Src/relay.c   ****     }
 171:Src/relay.c   ****     if((!status) && (relayFlag->rl8 != status))
 849              		.loc 1 171 5 is_stmt 1 view .LVU211
 850              		.loc 1 171 7 is_stmt 0 view .LVU212
 851 0010 24B9     		cbnz	r4, .L61
 852              		.loc 1 171 31 discriminator 1 view .LVU213
 853 0012 0B4B     		ldr	r3, .L67
 854 0014 1B68     		ldr	r3, [r3]
 855 0016 DA79     		ldrb	r2, [r3, #7]	@ zero_extendqisi2
ARM GAS  /tmp/ccaNbEnj.s 			page 20


 856              		.loc 1 171 18 discriminator 1 view .LVU214
 857 0018 A242     		cmp	r2, r4
 858 001a 08D1     		bne	.L66
 859              	.L61:
 172:Src/relay.c   ****     {
 173:Src/relay.c   ****         relayFlag->rl8 = status;
 174:Src/relay.c   ****         RL8(0);
 175:Src/relay.c   ****     }
 176:Src/relay.c   **** }
 860              		.loc 1 176 1 view .LVU215
 861 001c 10BD     		pop	{r4, pc}
 862              	.LVL66:
 863              	.L65:
 167:Src/relay.c   ****         RL8(1);
 864              		.loc 1 167 9 is_stmt 1 view .LVU216
 167:Src/relay.c   ****         RL8(1);
 865              		.loc 1 167 24 is_stmt 0 view .LVU217
 866 001e D871     		strb	r0, [r3, #7]
 168:Src/relay.c   ****         // HAL_Delay(500);
 867              		.loc 1 168 9 is_stmt 1 view .LVU218
 868 0020 0022     		movs	r2, #0
 869 0022 4FF40051 		mov	r1, #8192
 870 0026 0748     		ldr	r0, .L67+4
 871              	.LVL67:
 168:Src/relay.c   ****         // HAL_Delay(500);
 872              		.loc 1 168 9 is_stmt 0 view .LVU219
 873 0028 FFF7FEFF 		bl	HAL_GPIO_WritePin
 874              	.LVL68:
 168:Src/relay.c   ****         // HAL_Delay(500);
 875              		.loc 1 168 9 view .LVU220
 876 002c F0E7     		b	.L62
 877              	.L66:
 173:Src/relay.c   ****         RL8(0);
 878              		.loc 1 173 9 is_stmt 1 view .LVU221
 173:Src/relay.c   ****         RL8(0);
 879              		.loc 1 173 24 is_stmt 0 view .LVU222
 880 002e DC71     		strb	r4, [r3, #7]
 174:Src/relay.c   ****     }
 881              		.loc 1 174 9 is_stmt 1 view .LVU223
 882 0030 0122     		movs	r2, #1
 883 0032 4FF40051 		mov	r1, #8192
 884 0036 0348     		ldr	r0, .L67+4
 885 0038 FFF7FEFF 		bl	HAL_GPIO_WritePin
 886              	.LVL69:
 887              		.loc 1 176 1 is_stmt 0 view .LVU224
 888 003c EEE7     		b	.L61
 889              	.L68:
 890 003e 00BF     		.align	2
 891              	.L67:
 892 0040 00000000 		.word	.LANCHOR0
 893 0044 000C0140 		.word	1073810432
 894              		.cfi_endproc
 895              	.LFE205:
 897              		.section	.text.RELAY9,"ax",%progbits
 898              		.align	1
 899              		.global	RELAY9
 900              		.syntax unified
ARM GAS  /tmp/ccaNbEnj.s 			page 21


 901              		.thumb
 902              		.thumb_func
 903              		.fpu softvfp
 905              	RELAY9:
 906              	.LVL70:
 907              	.LFB206:
 177:Src/relay.c   **** 
 178:Src/relay.c   **** void RELAY9(uint8_t status)
 179:Src/relay.c   **** {
 908              		.loc 1 179 1 is_stmt 1 view -0
 909              		.cfi_startproc
 910              		@ args = 0, pretend = 0, frame = 0
 911              		@ frame_needed = 0, uses_anonymous_args = 0
 912              		.loc 1 179 1 is_stmt 0 view .LVU226
 913 0000 10B5     		push	{r4, lr}
 914              	.LCFI11:
 915              		.cfi_def_cfa_offset 8
 916              		.cfi_offset 4, -8
 917              		.cfi_offset 14, -4
 180:Src/relay.c   ****     if((status) && (relayFlag->rl9 != status))
 918              		.loc 1 180 5 is_stmt 1 view .LVU227
 919              		.loc 1 180 7 is_stmt 0 view .LVU228
 920 0002 0446     		mov	r4, r0
 921 0004 20B1     		cbz	r0, .L70
 922              		.loc 1 180 30 discriminator 1 view .LVU229
 923 0006 0E4B     		ldr	r3, .L75
 924 0008 1B68     		ldr	r3, [r3]
 925 000a 1A7A     		ldrb	r2, [r3, #8]	@ zero_extendqisi2
 926              		.loc 1 180 17 discriminator 1 view .LVU230
 927 000c 8242     		cmp	r2, r0
 928 000e 06D1     		bne	.L73
 929              	.LVL71:
 930              	.L70:
 181:Src/relay.c   ****     {
 182:Src/relay.c   ****         relayFlag->rl9 = status;
 183:Src/relay.c   ****         RL9(1);
 184:Src/relay.c   ****         // HAL_Delay(500);
 185:Src/relay.c   ****     }
 186:Src/relay.c   ****     if((!status) && (relayFlag->rl9 != status))
 931              		.loc 1 186 5 is_stmt 1 view .LVU231
 932              		.loc 1 186 7 is_stmt 0 view .LVU232
 933 0010 24B9     		cbnz	r4, .L69
 934              		.loc 1 186 31 discriminator 1 view .LVU233
 935 0012 0B4B     		ldr	r3, .L75
 936 0014 1B68     		ldr	r3, [r3]
 937 0016 1A7A     		ldrb	r2, [r3, #8]	@ zero_extendqisi2
 938              		.loc 1 186 18 discriminator 1 view .LVU234
 939 0018 A242     		cmp	r2, r4
 940 001a 08D1     		bne	.L74
 941              	.L69:
 187:Src/relay.c   ****     {
 188:Src/relay.c   ****         relayFlag->rl9 = status;
 189:Src/relay.c   ****         RL9(0);
 190:Src/relay.c   ****     }
 191:Src/relay.c   **** }
 942              		.loc 1 191 1 view .LVU235
 943 001c 10BD     		pop	{r4, pc}
ARM GAS  /tmp/ccaNbEnj.s 			page 22


 944              	.LVL72:
 945              	.L73:
 182:Src/relay.c   ****         RL9(1);
 946              		.loc 1 182 9 is_stmt 1 view .LVU236
 182:Src/relay.c   ****         RL9(1);
 947              		.loc 1 182 24 is_stmt 0 view .LVU237
 948 001e 1872     		strb	r0, [r3, #8]
 183:Src/relay.c   ****         // HAL_Delay(500);
 949              		.loc 1 183 9 is_stmt 1 view .LVU238
 950 0020 0022     		movs	r2, #0
 951 0022 4FF48051 		mov	r1, #4096
 952 0026 0748     		ldr	r0, .L75+4
 953              	.LVL73:
 183:Src/relay.c   ****         // HAL_Delay(500);
 954              		.loc 1 183 9 is_stmt 0 view .LVU239
 955 0028 FFF7FEFF 		bl	HAL_GPIO_WritePin
 956              	.LVL74:
 183:Src/relay.c   ****         // HAL_Delay(500);
 957              		.loc 1 183 9 view .LVU240
 958 002c F0E7     		b	.L70
 959              	.L74:
 188:Src/relay.c   ****         RL9(0);
 960              		.loc 1 188 9 is_stmt 1 view .LVU241
 188:Src/relay.c   ****         RL9(0);
 961              		.loc 1 188 24 is_stmt 0 view .LVU242
 962 002e 1C72     		strb	r4, [r3, #8]
 189:Src/relay.c   ****     }
 963              		.loc 1 189 9 is_stmt 1 view .LVU243
 964 0030 0122     		movs	r2, #1
 965 0032 4FF48051 		mov	r1, #4096
 966 0036 0348     		ldr	r0, .L75+4
 967 0038 FFF7FEFF 		bl	HAL_GPIO_WritePin
 968              	.LVL75:
 969              		.loc 1 191 1 is_stmt 0 view .LVU244
 970 003c EEE7     		b	.L69
 971              	.L76:
 972 003e 00BF     		.align	2
 973              	.L75:
 974 0040 00000000 		.word	.LANCHOR0
 975 0044 000C0140 		.word	1073810432
 976              		.cfi_endproc
 977              	.LFE206:
 979              		.section	.text.RELAY10,"ax",%progbits
 980              		.align	1
 981              		.global	RELAY10
 982              		.syntax unified
 983              		.thumb
 984              		.thumb_func
 985              		.fpu softvfp
 987              	RELAY10:
 988              	.LVL76:
 989              	.LFB207:
 192:Src/relay.c   **** 
 193:Src/relay.c   **** void RELAY10(uint8_t status)
 194:Src/relay.c   **** {
 990              		.loc 1 194 1 is_stmt 1 view -0
 991              		.cfi_startproc
ARM GAS  /tmp/ccaNbEnj.s 			page 23


 992              		@ args = 0, pretend = 0, frame = 0
 993              		@ frame_needed = 0, uses_anonymous_args = 0
 994              		.loc 1 194 1 is_stmt 0 view .LVU246
 995 0000 10B5     		push	{r4, lr}
 996              	.LCFI12:
 997              		.cfi_def_cfa_offset 8
 998              		.cfi_offset 4, -8
 999              		.cfi_offset 14, -4
 195:Src/relay.c   ****     if((status) && (relayFlag->rl10 != status))
 1000              		.loc 1 195 5 is_stmt 1 view .LVU247
 1001              		.loc 1 195 7 is_stmt 0 view .LVU248
 1002 0002 0446     		mov	r4, r0
 1003 0004 20B1     		cbz	r0, .L78
 1004              		.loc 1 195 30 discriminator 1 view .LVU249
 1005 0006 0D4B     		ldr	r3, .L83
 1006 0008 1B68     		ldr	r3, [r3]
 1007 000a 5A7A     		ldrb	r2, [r3, #9]	@ zero_extendqisi2
 1008              		.loc 1 195 17 discriminator 1 view .LVU250
 1009 000c 8242     		cmp	r2, r0
 1010 000e 06D1     		bne	.L81
 1011              	.LVL77:
 1012              	.L78:
 196:Src/relay.c   ****     {
 197:Src/relay.c   ****         relayFlag->rl10 = status;
 198:Src/relay.c   ****         RL10(1);
 199:Src/relay.c   ****         // HAL_Delay(500);
 200:Src/relay.c   ****     }
 201:Src/relay.c   ****     if((!status) && (relayFlag->rl10 != status))
 1013              		.loc 1 201 5 is_stmt 1 view .LVU251
 1014              		.loc 1 201 7 is_stmt 0 view .LVU252
 1015 0010 24B9     		cbnz	r4, .L77
 1016              		.loc 1 201 31 discriminator 1 view .LVU253
 1017 0012 0A4B     		ldr	r3, .L83
 1018 0014 1B68     		ldr	r3, [r3]
 1019 0016 5A7A     		ldrb	r2, [r3, #9]	@ zero_extendqisi2
 1020              		.loc 1 201 18 discriminator 1 view .LVU254
 1021 0018 A242     		cmp	r2, r4
 1022 001a 07D1     		bne	.L82
 1023              	.L77:
 202:Src/relay.c   ****     {
 203:Src/relay.c   ****         relayFlag->rl10 = status;
 204:Src/relay.c   ****         RL10(0);
 205:Src/relay.c   ****     }
 206:Src/relay.c   **** }
 1024              		.loc 1 206 1 view .LVU255
 1025 001c 10BD     		pop	{r4, pc}
 1026              	.LVL78:
 1027              	.L81:
 197:Src/relay.c   ****         RL10(1);
 1028              		.loc 1 197 9 is_stmt 1 view .LVU256
 197:Src/relay.c   ****         RL10(1);
 1029              		.loc 1 197 25 is_stmt 0 view .LVU257
 1030 001e 5872     		strb	r0, [r3, #9]
 198:Src/relay.c   ****         // HAL_Delay(500);
 1031              		.loc 1 198 9 is_stmt 1 view .LVU258
 1032 0020 0022     		movs	r2, #0
 1033 0022 0421     		movs	r1, #4
ARM GAS  /tmp/ccaNbEnj.s 			page 24


 1034 0024 0648     		ldr	r0, .L83+4
 1035              	.LVL79:
 198:Src/relay.c   ****         // HAL_Delay(500);
 1036              		.loc 1 198 9 is_stmt 0 view .LVU259
 1037 0026 FFF7FEFF 		bl	HAL_GPIO_WritePin
 1038              	.LVL80:
 198:Src/relay.c   ****         // HAL_Delay(500);
 1039              		.loc 1 198 9 view .LVU260
 1040 002a F1E7     		b	.L78
 1041              	.L82:
 203:Src/relay.c   ****         RL10(0);
 1042              		.loc 1 203 9 is_stmt 1 view .LVU261
 203:Src/relay.c   ****         RL10(0);
 1043              		.loc 1 203 25 is_stmt 0 view .LVU262
 1044 002c 5C72     		strb	r4, [r3, #9]
 204:Src/relay.c   ****     }
 1045              		.loc 1 204 9 is_stmt 1 view .LVU263
 1046 002e 0122     		movs	r2, #1
 1047 0030 0421     		movs	r1, #4
 1048 0032 0348     		ldr	r0, .L83+4
 1049 0034 FFF7FEFF 		bl	HAL_GPIO_WritePin
 1050              	.LVL81:
 1051              		.loc 1 206 1 is_stmt 0 view .LVU264
 1052 0038 F0E7     		b	.L77
 1053              	.L84:
 1054 003a 00BF     		.align	2
 1055              	.L83:
 1056 003c 00000000 		.word	.LANCHOR0
 1057 0040 000C0140 		.word	1073810432
 1058              		.cfi_endproc
 1059              	.LFE207:
 1061              		.section	.text.RELAY11,"ax",%progbits
 1062              		.align	1
 1063              		.global	RELAY11
 1064              		.syntax unified
 1065              		.thumb
 1066              		.thumb_func
 1067              		.fpu softvfp
 1069              	RELAY11:
 1070              	.LVL82:
 1071              	.LFB208:
 207:Src/relay.c   **** 
 208:Src/relay.c   **** void RELAY11(uint8_t status)
 209:Src/relay.c   **** {
 1072              		.loc 1 209 1 is_stmt 1 view -0
 1073              		.cfi_startproc
 1074              		@ args = 0, pretend = 0, frame = 0
 1075              		@ frame_needed = 0, uses_anonymous_args = 0
 1076              		.loc 1 209 1 is_stmt 0 view .LVU266
 1077 0000 10B5     		push	{r4, lr}
 1078              	.LCFI13:
 1079              		.cfi_def_cfa_offset 8
 1080              		.cfi_offset 4, -8
 1081              		.cfi_offset 14, -4
 210:Src/relay.c   ****     if((status) && (relayFlag->rl11 != status))
 1082              		.loc 1 210 5 is_stmt 1 view .LVU267
 1083              		.loc 1 210 7 is_stmt 0 view .LVU268
ARM GAS  /tmp/ccaNbEnj.s 			page 25


 1084 0002 0446     		mov	r4, r0
 1085 0004 20B1     		cbz	r0, .L86
 1086              		.loc 1 210 30 discriminator 1 view .LVU269
 1087 0006 0D4B     		ldr	r3, .L91
 1088 0008 1B68     		ldr	r3, [r3]
 1089 000a 9A7A     		ldrb	r2, [r3, #10]	@ zero_extendqisi2
 1090              		.loc 1 210 17 discriminator 1 view .LVU270
 1091 000c 8242     		cmp	r2, r0
 1092 000e 06D1     		bne	.L89
 1093              	.LVL83:
 1094              	.L86:
 211:Src/relay.c   ****     {
 212:Src/relay.c   ****         relayFlag->rl11 = status;
 213:Src/relay.c   ****         RL11(1);
 214:Src/relay.c   **** 
 215:Src/relay.c   ****     }
 216:Src/relay.c   ****     if((!status) && (relayFlag->rl11 != status))
 1095              		.loc 1 216 5 is_stmt 1 view .LVU271
 1096              		.loc 1 216 7 is_stmt 0 view .LVU272
 1097 0010 24B9     		cbnz	r4, .L85
 1098              		.loc 1 216 31 discriminator 1 view .LVU273
 1099 0012 0A4B     		ldr	r3, .L91
 1100 0014 1B68     		ldr	r3, [r3]
 1101 0016 9A7A     		ldrb	r2, [r3, #10]	@ zero_extendqisi2
 1102              		.loc 1 216 18 discriminator 1 view .LVU274
 1103 0018 A242     		cmp	r2, r4
 1104 001a 07D1     		bne	.L90
 1105              	.L85:
 217:Src/relay.c   ****     {
 218:Src/relay.c   ****         relayFlag->rl11 = status;
 219:Src/relay.c   ****         RL11(0);
 220:Src/relay.c   ****     }
 221:Src/relay.c   **** }
 1106              		.loc 1 221 1 view .LVU275
 1107 001c 10BD     		pop	{r4, pc}
 1108              	.LVL84:
 1109              	.L89:
 212:Src/relay.c   ****         RL11(1);
 1110              		.loc 1 212 9 is_stmt 1 view .LVU276
 212:Src/relay.c   ****         RL11(1);
 1111              		.loc 1 212 25 is_stmt 0 view .LVU277
 1112 001e 9872     		strb	r0, [r3, #10]
 213:Src/relay.c   **** 
 1113              		.loc 1 213 9 is_stmt 1 view .LVU278
 1114 0020 0022     		movs	r2, #0
 1115 0022 0221     		movs	r1, #2
 1116 0024 0648     		ldr	r0, .L91+4
 1117              	.LVL85:
 213:Src/relay.c   **** 
 1118              		.loc 1 213 9 is_stmt 0 view .LVU279
 1119 0026 FFF7FEFF 		bl	HAL_GPIO_WritePin
 1120              	.LVL86:
 213:Src/relay.c   **** 
 1121              		.loc 1 213 9 view .LVU280
 1122 002a F1E7     		b	.L86
 1123              	.L90:
 218:Src/relay.c   ****         RL11(0);
ARM GAS  /tmp/ccaNbEnj.s 			page 26


 1124              		.loc 1 218 9 is_stmt 1 view .LVU281
 218:Src/relay.c   ****         RL11(0);
 1125              		.loc 1 218 25 is_stmt 0 view .LVU282
 1126 002c 9C72     		strb	r4, [r3, #10]
 219:Src/relay.c   ****     }
 1127              		.loc 1 219 9 is_stmt 1 view .LVU283
 1128 002e 0122     		movs	r2, #1
 1129 0030 0221     		movs	r1, #2
 1130 0032 0348     		ldr	r0, .L91+4
 1131 0034 FFF7FEFF 		bl	HAL_GPIO_WritePin
 1132              	.LVL87:
 1133              		.loc 1 221 1 is_stmt 0 view .LVU284
 1134 0038 F0E7     		b	.L85
 1135              	.L92:
 1136 003a 00BF     		.align	2
 1137              	.L91:
 1138 003c 00000000 		.word	.LANCHOR0
 1139 0040 000C0140 		.word	1073810432
 1140              		.cfi_endproc
 1141              	.LFE208:
 1143              		.section	.text.RELAY12,"ax",%progbits
 1144              		.align	1
 1145              		.global	RELAY12
 1146              		.syntax unified
 1147              		.thumb
 1148              		.thumb_func
 1149              		.fpu softvfp
 1151              	RELAY12:
 1152              	.LVL88:
 1153              	.LFB209:
 222:Src/relay.c   **** 
 223:Src/relay.c   **** void RELAY12(uint8_t status)
 224:Src/relay.c   **** {
 1154              		.loc 1 224 1 is_stmt 1 view -0
 1155              		.cfi_startproc
 1156              		@ args = 0, pretend = 0, frame = 0
 1157              		@ frame_needed = 0, uses_anonymous_args = 0
 1158              		.loc 1 224 1 is_stmt 0 view .LVU286
 1159 0000 10B5     		push	{r4, lr}
 1160              	.LCFI14:
 1161              		.cfi_def_cfa_offset 8
 1162              		.cfi_offset 4, -8
 1163              		.cfi_offset 14, -4
 225:Src/relay.c   ****     if((status) && (relayFlag->rl12 != status))
 1164              		.loc 1 225 5 is_stmt 1 view .LVU287
 1165              		.loc 1 225 7 is_stmt 0 view .LVU288
 1166 0002 0446     		mov	r4, r0
 1167 0004 20B1     		cbz	r0, .L94
 1168              		.loc 1 225 30 discriminator 1 view .LVU289
 1169 0006 0D4B     		ldr	r3, .L99
 1170 0008 1B68     		ldr	r3, [r3]
 1171 000a DA7A     		ldrb	r2, [r3, #11]	@ zero_extendqisi2
 1172              		.loc 1 225 17 discriminator 1 view .LVU290
 1173 000c 8242     		cmp	r2, r0
 1174 000e 06D1     		bne	.L97
 1175              	.LVL89:
 1176              	.L94:
ARM GAS  /tmp/ccaNbEnj.s 			page 27


 226:Src/relay.c   ****     {
 227:Src/relay.c   ****         relayFlag->rl12 = status;
 228:Src/relay.c   ****         RL12(1);
 229:Src/relay.c   ****         // HAL_Delay(50);
 230:Src/relay.c   ****     }
 231:Src/relay.c   ****     if((!status) && (relayFlag->rl12 != status))
 1177              		.loc 1 231 5 is_stmt 1 view .LVU291
 1178              		.loc 1 231 7 is_stmt 0 view .LVU292
 1179 0010 24B9     		cbnz	r4, .L93
 1180              		.loc 1 231 31 discriminator 1 view .LVU293
 1181 0012 0A4B     		ldr	r3, .L99
 1182 0014 1B68     		ldr	r3, [r3]
 1183 0016 DA7A     		ldrb	r2, [r3, #11]	@ zero_extendqisi2
 1184              		.loc 1 231 18 discriminator 1 view .LVU294
 1185 0018 A242     		cmp	r2, r4
 1186 001a 07D1     		bne	.L98
 1187              	.L93:
 232:Src/relay.c   ****     {
 233:Src/relay.c   ****         relayFlag->rl12 = status;
 234:Src/relay.c   ****         RL12(0);
 235:Src/relay.c   ****     }
 236:Src/relay.c   **** }
 1188              		.loc 1 236 1 view .LVU295
 1189 001c 10BD     		pop	{r4, pc}
 1190              	.LVL90:
 1191              	.L97:
 227:Src/relay.c   ****         RL12(1);
 1192              		.loc 1 227 9 is_stmt 1 view .LVU296
 227:Src/relay.c   ****         RL12(1);
 1193              		.loc 1 227 25 is_stmt 0 view .LVU297
 1194 001e D872     		strb	r0, [r3, #11]
 228:Src/relay.c   ****         // HAL_Delay(50);
 1195              		.loc 1 228 9 is_stmt 1 view .LVU298
 1196 0020 0022     		movs	r2, #0
 1197 0022 0121     		movs	r1, #1
 1198 0024 0648     		ldr	r0, .L99+4
 1199              	.LVL91:
 228:Src/relay.c   ****         // HAL_Delay(50);
 1200              		.loc 1 228 9 is_stmt 0 view .LVU299
 1201 0026 FFF7FEFF 		bl	HAL_GPIO_WritePin
 1202              	.LVL92:
 228:Src/relay.c   ****         // HAL_Delay(50);
 1203              		.loc 1 228 9 view .LVU300
 1204 002a F1E7     		b	.L94
 1205              	.L98:
 233:Src/relay.c   ****         RL12(0);
 1206              		.loc 1 233 9 is_stmt 1 view .LVU301
 233:Src/relay.c   ****         RL12(0);
 1207              		.loc 1 233 25 is_stmt 0 view .LVU302
 1208 002c DC72     		strb	r4, [r3, #11]
 234:Src/relay.c   ****     }
 1209              		.loc 1 234 9 is_stmt 1 view .LVU303
 1210 002e 0122     		movs	r2, #1
 1211 0030 1146     		mov	r1, r2
 1212 0032 0348     		ldr	r0, .L99+4
 1213 0034 FFF7FEFF 		bl	HAL_GPIO_WritePin
 1214              	.LVL93:
ARM GAS  /tmp/ccaNbEnj.s 			page 28


 1215              		.loc 1 236 1 is_stmt 0 view .LVU304
 1216 0038 F0E7     		b	.L93
 1217              	.L100:
 1218 003a 00BF     		.align	2
 1219              	.L99:
 1220 003c 00000000 		.word	.LANCHOR0
 1221 0040 000C0140 		.word	1073810432
 1222              		.cfi_endproc
 1223              	.LFE209:
 1225              		.section	.text.RELAY13,"ax",%progbits
 1226              		.align	1
 1227              		.global	RELAY13
 1228              		.syntax unified
 1229              		.thumb
 1230              		.thumb_func
 1231              		.fpu softvfp
 1233              	RELAY13:
 1234              	.LVL94:
 1235              	.LFB210:
 237:Src/relay.c   **** 
 238:Src/relay.c   **** void RELAY13(uint8_t status)
 239:Src/relay.c   **** {
 1236              		.loc 1 239 1 is_stmt 1 view -0
 1237              		.cfi_startproc
 1238              		@ args = 0, pretend = 0, frame = 0
 1239              		@ frame_needed = 0, uses_anonymous_args = 0
 1240              		.loc 1 239 1 is_stmt 0 view .LVU306
 1241 0000 10B5     		push	{r4, lr}
 1242              	.LCFI15:
 1243              		.cfi_def_cfa_offset 8
 1244              		.cfi_offset 4, -8
 1245              		.cfi_offset 14, -4
 240:Src/relay.c   ****     if((status) && (relayFlag->rl13 != status))
 1246              		.loc 1 240 5 is_stmt 1 view .LVU307
 1247              		.loc 1 240 7 is_stmt 0 view .LVU308
 1248 0002 0446     		mov	r4, r0
 1249 0004 20B1     		cbz	r0, .L102
 1250              		.loc 1 240 30 discriminator 1 view .LVU309
 1251 0006 0D4B     		ldr	r3, .L107
 1252 0008 1B68     		ldr	r3, [r3]
 1253 000a 1A7B     		ldrb	r2, [r3, #12]	@ zero_extendqisi2
 1254              		.loc 1 240 17 discriminator 1 view .LVU310
 1255 000c 8242     		cmp	r2, r0
 1256 000e 06D1     		bne	.L105
 1257              	.LVL95:
 1258              	.L102:
 241:Src/relay.c   ****     {
 242:Src/relay.c   ****         relayFlag->rl13 = status;
 243:Src/relay.c   ****         RL13(1);
 244:Src/relay.c   ****         // HAL_Delay(50);
 245:Src/relay.c   ****     }
 246:Src/relay.c   ****     if((!status) && (relayFlag->rl13 != status))
 1259              		.loc 1 246 5 is_stmt 1 view .LVU311
 1260              		.loc 1 246 7 is_stmt 0 view .LVU312
 1261 0010 24B9     		cbnz	r4, .L101
 1262              		.loc 1 246 31 discriminator 1 view .LVU313
 1263 0012 0A4B     		ldr	r3, .L107
ARM GAS  /tmp/ccaNbEnj.s 			page 29


 1264 0014 1B68     		ldr	r3, [r3]
 1265 0016 1A7B     		ldrb	r2, [r3, #12]	@ zero_extendqisi2
 1266              		.loc 1 246 18 discriminator 1 view .LVU314
 1267 0018 A242     		cmp	r2, r4
 1268 001a 07D1     		bne	.L106
 1269              	.L101:
 247:Src/relay.c   ****     {
 248:Src/relay.c   ****         relayFlag->rl13 = status;
 249:Src/relay.c   ****         RL13(0);
 250:Src/relay.c   ****     }
 251:Src/relay.c   **** }
 1270              		.loc 1 251 1 view .LVU315
 1271 001c 10BD     		pop	{r4, pc}
 1272              	.LVL96:
 1273              	.L105:
 242:Src/relay.c   ****         RL13(1);
 1274              		.loc 1 242 9 is_stmt 1 view .LVU316
 242:Src/relay.c   ****         RL13(1);
 1275              		.loc 1 242 25 is_stmt 0 view .LVU317
 1276 001e 1873     		strb	r0, [r3, #12]
 243:Src/relay.c   ****         // HAL_Delay(50);
 1277              		.loc 1 243 9 is_stmt 1 view .LVU318
 1278 0020 0022     		movs	r2, #0
 1279 0022 2021     		movs	r1, #32
 1280 0024 0648     		ldr	r0, .L107+4
 1281              	.LVL97:
 243:Src/relay.c   ****         // HAL_Delay(50);
 1282              		.loc 1 243 9 is_stmt 0 view .LVU319
 1283 0026 FFF7FEFF 		bl	HAL_GPIO_WritePin
 1284              	.LVL98:
 243:Src/relay.c   ****         // HAL_Delay(50);
 1285              		.loc 1 243 9 view .LVU320
 1286 002a F1E7     		b	.L102
 1287              	.L106:
 248:Src/relay.c   ****         RL13(0);
 1288              		.loc 1 248 9 is_stmt 1 view .LVU321
 248:Src/relay.c   ****         RL13(0);
 1289              		.loc 1 248 25 is_stmt 0 view .LVU322
 1290 002c 1C73     		strb	r4, [r3, #12]
 249:Src/relay.c   ****     }
 1291              		.loc 1 249 9 is_stmt 1 view .LVU323
 1292 002e 0122     		movs	r2, #1
 1293 0030 2021     		movs	r1, #32
 1294 0032 0348     		ldr	r0, .L107+4
 1295 0034 FFF7FEFF 		bl	HAL_GPIO_WritePin
 1296              	.LVL99:
 1297              		.loc 1 251 1 is_stmt 0 view .LVU324
 1298 0038 F0E7     		b	.L101
 1299              	.L108:
 1300 003a 00BF     		.align	2
 1301              	.L107:
 1302 003c 00000000 		.word	.LANCHOR0
 1303 0040 00100140 		.word	1073811456
 1304              		.cfi_endproc
 1305              	.LFE210:
 1307              		.section	.text.RELAY14,"ax",%progbits
 1308              		.align	1
ARM GAS  /tmp/ccaNbEnj.s 			page 30


 1309              		.global	RELAY14
 1310              		.syntax unified
 1311              		.thumb
 1312              		.thumb_func
 1313              		.fpu softvfp
 1315              	RELAY14:
 1316              	.LVL100:
 1317              	.LFB211:
 252:Src/relay.c   **** 
 253:Src/relay.c   **** void RELAY14(uint8_t status)
 254:Src/relay.c   **** {
 1318              		.loc 1 254 1 is_stmt 1 view -0
 1319              		.cfi_startproc
 1320              		@ args = 0, pretend = 0, frame = 0
 1321              		@ frame_needed = 0, uses_anonymous_args = 0
 1322              		.loc 1 254 1 is_stmt 0 view .LVU326
 1323 0000 10B5     		push	{r4, lr}
 1324              	.LCFI16:
 1325              		.cfi_def_cfa_offset 8
 1326              		.cfi_offset 4, -8
 1327              		.cfi_offset 14, -4
 255:Src/relay.c   ****     if((status) && (relayFlag->rl14 != status))
 1328              		.loc 1 255 5 is_stmt 1 view .LVU327
 1329              		.loc 1 255 7 is_stmt 0 view .LVU328
 1330 0002 0446     		mov	r4, r0
 1331 0004 20B1     		cbz	r0, .L110
 1332              		.loc 1 255 30 discriminator 1 view .LVU329
 1333 0006 0D4B     		ldr	r3, .L115
 1334 0008 1B68     		ldr	r3, [r3]
 1335 000a 5A7B     		ldrb	r2, [r3, #13]	@ zero_extendqisi2
 1336              		.loc 1 255 17 discriminator 1 view .LVU330
 1337 000c 8242     		cmp	r2, r0
 1338 000e 06D1     		bne	.L113
 1339              	.LVL101:
 1340              	.L110:
 256:Src/relay.c   ****     {
 257:Src/relay.c   ****         relayFlag->rl14 = status;
 258:Src/relay.c   ****         RL14(1);
 259:Src/relay.c   ****         // HAL_Delay(100);
 260:Src/relay.c   ****     }
 261:Src/relay.c   ****     if((!status) && (relayFlag->rl14 != status))
 1341              		.loc 1 261 5 is_stmt 1 view .LVU331
 1342              		.loc 1 261 7 is_stmt 0 view .LVU332
 1343 0010 24B9     		cbnz	r4, .L109
 1344              		.loc 1 261 31 discriminator 1 view .LVU333
 1345 0012 0A4B     		ldr	r3, .L115
 1346 0014 1B68     		ldr	r3, [r3]
 1347 0016 5A7B     		ldrb	r2, [r3, #13]	@ zero_extendqisi2
 1348              		.loc 1 261 18 discriminator 1 view .LVU334
 1349 0018 A242     		cmp	r2, r4
 1350 001a 07D1     		bne	.L114
 1351              	.L109:
 262:Src/relay.c   ****     {
 263:Src/relay.c   ****         relayFlag->rl14 = status;
 264:Src/relay.c   ****         RL14(0);
 265:Src/relay.c   ****     }
 266:Src/relay.c   ****     
ARM GAS  /tmp/ccaNbEnj.s 			page 31


 267:Src/relay.c   **** }
 1352              		.loc 1 267 1 view .LVU335
 1353 001c 10BD     		pop	{r4, pc}
 1354              	.LVL102:
 1355              	.L113:
 257:Src/relay.c   ****         RL14(1);
 1356              		.loc 1 257 9 is_stmt 1 view .LVU336
 257:Src/relay.c   ****         RL14(1);
 1357              		.loc 1 257 25 is_stmt 0 view .LVU337
 1358 001e 5873     		strb	r0, [r3, #13]
 258:Src/relay.c   ****         // HAL_Delay(100);
 1359              		.loc 1 258 9 is_stmt 1 view .LVU338
 1360 0020 0022     		movs	r2, #0
 1361 0022 1021     		movs	r1, #16
 1362 0024 0648     		ldr	r0, .L115+4
 1363              	.LVL103:
 258:Src/relay.c   ****         // HAL_Delay(100);
 1364              		.loc 1 258 9 is_stmt 0 view .LVU339
 1365 0026 FFF7FEFF 		bl	HAL_GPIO_WritePin
 1366              	.LVL104:
 258:Src/relay.c   ****         // HAL_Delay(100);
 1367              		.loc 1 258 9 view .LVU340
 1368 002a F1E7     		b	.L110
 1369              	.L114:
 263:Src/relay.c   ****         RL14(0);
 1370              		.loc 1 263 9 is_stmt 1 view .LVU341
 263:Src/relay.c   ****         RL14(0);
 1371              		.loc 1 263 25 is_stmt 0 view .LVU342
 1372 002c 5C73     		strb	r4, [r3, #13]
 264:Src/relay.c   ****     }
 1373              		.loc 1 264 9 is_stmt 1 view .LVU343
 1374 002e 0122     		movs	r2, #1
 1375 0030 1021     		movs	r1, #16
 1376 0032 0348     		ldr	r0, .L115+4
 1377 0034 FFF7FEFF 		bl	HAL_GPIO_WritePin
 1378              	.LVL105:
 1379              		.loc 1 267 1 is_stmt 0 view .LVU344
 1380 0038 F0E7     		b	.L109
 1381              	.L116:
 1382 003a 00BF     		.align	2
 1383              	.L115:
 1384 003c 00000000 		.word	.LANCHOR0
 1385 0040 00100140 		.word	1073811456
 1386              		.cfi_endproc
 1387              	.LFE211:
 1389              		.section	.text.RELAY15,"ax",%progbits
 1390              		.align	1
 1391              		.global	RELAY15
 1392              		.syntax unified
 1393              		.thumb
 1394              		.thumb_func
 1395              		.fpu softvfp
 1397              	RELAY15:
 1398              	.LVL106:
 1399              	.LFB212:
 268:Src/relay.c   **** 
 269:Src/relay.c   **** void RELAY15(uint8_t status)
ARM GAS  /tmp/ccaNbEnj.s 			page 32


 270:Src/relay.c   **** {
 1400              		.loc 1 270 1 is_stmt 1 view -0
 1401              		.cfi_startproc
 1402              		@ args = 0, pretend = 0, frame = 0
 1403              		@ frame_needed = 0, uses_anonymous_args = 0
 1404              		.loc 1 270 1 is_stmt 0 view .LVU346
 1405 0000 10B5     		push	{r4, lr}
 1406              	.LCFI17:
 1407              		.cfi_def_cfa_offset 8
 1408              		.cfi_offset 4, -8
 1409              		.cfi_offset 14, -4
 271:Src/relay.c   ****     if((status) && (relayFlag->rl15 != status))
 1410              		.loc 1 271 5 is_stmt 1 view .LVU347
 1411              		.loc 1 271 7 is_stmt 0 view .LVU348
 1412 0002 0446     		mov	r4, r0
 1413 0004 20B1     		cbz	r0, .L118
 1414              		.loc 1 271 30 discriminator 1 view .LVU349
 1415 0006 0D4B     		ldr	r3, .L123
 1416 0008 1B68     		ldr	r3, [r3]
 1417 000a 9A7B     		ldrb	r2, [r3, #14]	@ zero_extendqisi2
 1418              		.loc 1 271 17 discriminator 1 view .LVU350
 1419 000c 8242     		cmp	r2, r0
 1420 000e 06D1     		bne	.L121
 1421              	.LVL107:
 1422              	.L118:
 272:Src/relay.c   ****     {
 273:Src/relay.c   ****         relayFlag->rl15 = status;
 274:Src/relay.c   ****         RL15(1);
 275:Src/relay.c   ****         // HAL_Delay(100);
 276:Src/relay.c   ****     }
 277:Src/relay.c   ****     if((!status) && (relayFlag->rl15 != status))
 1423              		.loc 1 277 5 is_stmt 1 view .LVU351
 1424              		.loc 1 277 7 is_stmt 0 view .LVU352
 1425 0010 24B9     		cbnz	r4, .L117
 1426              		.loc 1 277 31 discriminator 1 view .LVU353
 1427 0012 0A4B     		ldr	r3, .L123
 1428 0014 1B68     		ldr	r3, [r3]
 1429 0016 9A7B     		ldrb	r2, [r3, #14]	@ zero_extendqisi2
 1430              		.loc 1 277 18 discriminator 1 view .LVU354
 1431 0018 A242     		cmp	r2, r4
 1432 001a 07D1     		bne	.L122
 1433              	.L117:
 278:Src/relay.c   ****     {
 279:Src/relay.c   ****         relayFlag->rl15 = status;
 280:Src/relay.c   ****         RL15(0);
 281:Src/relay.c   ****     }
 282:Src/relay.c   **** }
 1434              		.loc 1 282 1 view .LVU355
 1435 001c 10BD     		pop	{r4, pc}
 1436              	.LVL108:
 1437              	.L121:
 273:Src/relay.c   ****         RL15(1);
 1438              		.loc 1 273 9 is_stmt 1 view .LVU356
 273:Src/relay.c   ****         RL15(1);
 1439              		.loc 1 273 25 is_stmt 0 view .LVU357
 1440 001e 9873     		strb	r0, [r3, #14]
 274:Src/relay.c   ****         // HAL_Delay(100);
ARM GAS  /tmp/ccaNbEnj.s 			page 33


 1441              		.loc 1 274 9 is_stmt 1 view .LVU358
 1442 0020 0022     		movs	r2, #0
 1443 0022 8021     		movs	r1, #128
 1444 0024 0648     		ldr	r0, .L123+4
 1445              	.LVL109:
 274:Src/relay.c   ****         // HAL_Delay(100);
 1446              		.loc 1 274 9 is_stmt 0 view .LVU359
 1447 0026 FFF7FEFF 		bl	HAL_GPIO_WritePin
 1448              	.LVL110:
 274:Src/relay.c   ****         // HAL_Delay(100);
 1449              		.loc 1 274 9 view .LVU360
 1450 002a F1E7     		b	.L118
 1451              	.L122:
 279:Src/relay.c   ****         RL15(0);
 1452              		.loc 1 279 9 is_stmt 1 view .LVU361
 279:Src/relay.c   ****         RL15(0);
 1453              		.loc 1 279 25 is_stmt 0 view .LVU362
 1454 002c 9C73     		strb	r4, [r3, #14]
 280:Src/relay.c   ****     }
 1455              		.loc 1 280 9 is_stmt 1 view .LVU363
 1456 002e 0122     		movs	r2, #1
 1457 0030 8021     		movs	r1, #128
 1458 0032 0348     		ldr	r0, .L123+4
 1459 0034 FFF7FEFF 		bl	HAL_GPIO_WritePin
 1460              	.LVL111:
 1461              		.loc 1 282 1 is_stmt 0 view .LVU364
 1462 0038 F0E7     		b	.L117
 1463              	.L124:
 1464 003a 00BF     		.align	2
 1465              	.L123:
 1466 003c 00000000 		.word	.LANCHOR0
 1467 0040 00080140 		.word	1073809408
 1468              		.cfi_endproc
 1469              	.LFE212:
 1471              		.section	.text.RELAY16,"ax",%progbits
 1472              		.align	1
 1473              		.global	RELAY16
 1474              		.syntax unified
 1475              		.thumb
 1476              		.thumb_func
 1477              		.fpu softvfp
 1479              	RELAY16:
 1480              	.LVL112:
 1481              	.LFB213:
 283:Src/relay.c   **** 
 284:Src/relay.c   **** void RELAY16(uint8_t status)
 285:Src/relay.c   **** {
 1482              		.loc 1 285 1 is_stmt 1 view -0
 1483              		.cfi_startproc
 1484              		@ args = 0, pretend = 0, frame = 0
 1485              		@ frame_needed = 0, uses_anonymous_args = 0
 1486              		.loc 1 285 1 is_stmt 0 view .LVU366
 1487 0000 10B5     		push	{r4, lr}
 1488              	.LCFI18:
 1489              		.cfi_def_cfa_offset 8
 1490              		.cfi_offset 4, -8
 1491              		.cfi_offset 14, -4
ARM GAS  /tmp/ccaNbEnj.s 			page 34


 286:Src/relay.c   ****     if((status) && (relayFlag->rl16 != status))
 1492              		.loc 1 286 5 is_stmt 1 view .LVU367
 1493              		.loc 1 286 7 is_stmt 0 view .LVU368
 1494 0002 0446     		mov	r4, r0
 1495 0004 20B1     		cbz	r0, .L126
 1496              		.loc 1 286 30 discriminator 1 view .LVU369
 1497 0006 0D4B     		ldr	r3, .L131
 1498 0008 1B68     		ldr	r3, [r3]
 1499 000a DA7B     		ldrb	r2, [r3, #15]	@ zero_extendqisi2
 1500              		.loc 1 286 17 discriminator 1 view .LVU370
 1501 000c 8242     		cmp	r2, r0
 1502 000e 06D1     		bne	.L129
 1503              	.LVL113:
 1504              	.L126:
 287:Src/relay.c   ****     {
 288:Src/relay.c   ****         relayFlag->rl16 = status;
 289:Src/relay.c   ****         RL16(1);
 290:Src/relay.c   ****     }
 291:Src/relay.c   ****     if((!status) && (relayFlag->rl16 != status))
 1505              		.loc 1 291 5 is_stmt 1 view .LVU371
 1506              		.loc 1 291 7 is_stmt 0 view .LVU372
 1507 0010 24B9     		cbnz	r4, .L125
 1508              		.loc 1 291 31 discriminator 1 view .LVU373
 1509 0012 0A4B     		ldr	r3, .L131
 1510 0014 1B68     		ldr	r3, [r3]
 1511 0016 DA7B     		ldrb	r2, [r3, #15]	@ zero_extendqisi2
 1512              		.loc 1 291 18 discriminator 1 view .LVU374
 1513 0018 A242     		cmp	r2, r4
 1514 001a 07D1     		bne	.L130
 1515              	.L125:
 292:Src/relay.c   ****     {
 293:Src/relay.c   ****         relayFlag->rl16 = status;
 294:Src/relay.c   ****         RL16(0);
 295:Src/relay.c   ****     }
 296:Src/relay.c   **** }
 1516              		.loc 1 296 1 view .LVU375
 1517 001c 10BD     		pop	{r4, pc}
 1518              	.LVL114:
 1519              	.L129:
 288:Src/relay.c   ****         RL16(1);
 1520              		.loc 1 288 9 is_stmt 1 view .LVU376
 288:Src/relay.c   ****         RL16(1);
 1521              		.loc 1 288 25 is_stmt 0 view .LVU377
 1522 001e D873     		strb	r0, [r3, #15]
 289:Src/relay.c   ****     }
 1523              		.loc 1 289 9 is_stmt 1 view .LVU378
 1524 0020 0022     		movs	r2, #0
 1525 0022 4021     		movs	r1, #64
 1526 0024 0648     		ldr	r0, .L131+4
 1527              	.LVL115:
 289:Src/relay.c   ****     }
 1528              		.loc 1 289 9 is_stmt 0 view .LVU379
 1529 0026 FFF7FEFF 		bl	HAL_GPIO_WritePin
 1530              	.LVL116:
 289:Src/relay.c   ****     }
 1531              		.loc 1 289 9 view .LVU380
 1532 002a F1E7     		b	.L126
ARM GAS  /tmp/ccaNbEnj.s 			page 35


 1533              	.L130:
 293:Src/relay.c   ****         RL16(0);
 1534              		.loc 1 293 9 is_stmt 1 view .LVU381
 293:Src/relay.c   ****         RL16(0);
 1535              		.loc 1 293 25 is_stmt 0 view .LVU382
 1536 002c DC73     		strb	r4, [r3, #15]
 294:Src/relay.c   ****     }
 1537              		.loc 1 294 9 is_stmt 1 view .LVU383
 1538 002e 0122     		movs	r2, #1
 1539 0030 4021     		movs	r1, #64
 1540 0032 0348     		ldr	r0, .L131+4
 1541 0034 FFF7FEFF 		bl	HAL_GPIO_WritePin
 1542              	.LVL117:
 1543              		.loc 1 296 1 is_stmt 0 view .LVU384
 1544 0038 F0E7     		b	.L125
 1545              	.L132:
 1546 003a 00BF     		.align	2
 1547              	.L131:
 1548 003c 00000000 		.word	.LANCHOR0
 1549 0040 00080140 		.word	1073809408
 1550              		.cfi_endproc
 1551              	.LFE213:
 1553              		.section	.text.RELAY_Manage,"ax",%progbits
 1554              		.align	1
 1555              		.global	RELAY_Manage
 1556              		.syntax unified
 1557              		.thumb
 1558              		.thumb_func
 1559              		.fpu softvfp
 1561              	RELAY_Manage:
 1562              	.LFB214:
 297:Src/relay.c   **** 
 298:Src/relay.c   **** void RELAY_Manage(void)
 299:Src/relay.c   **** {
 1563              		.loc 1 299 1 is_stmt 1 view -0
 1564              		.cfi_startproc
 1565              		@ args = 0, pretend = 0, frame = 0
 1566              		@ frame_needed = 0, uses_anonymous_args = 0
 1567              		@ link register save eliminated.
 300:Src/relay.c   ****     // RELAY1(device.valve_fan);                   // quat hut
 301:Src/relay.c   ****     // RELAY2(device.light);                       // den chieu sang
 302:Src/relay.c   ****     // RELAY3(device.warning_red);                 // den bao do
 303:Src/relay.c   ****     // RELAY4(device.warning_green);               // den bao xanh
 304:Src/relay.c   ****     // RELAY5(device.warning_yellow);              // den bao vang
 305:Src/relay.c   ****     // RELAY6(device.door);                        // khoa cua
 306:Src/relay.c   ****     // RELAY7(device.thermistor3);                 // dien tro nhiet 3
 307:Src/relay.c   ****     // RELAY8(device.thermistor1);                 // dien tro nhiet 1
 308:Src/relay.c   ****     // RELAY9(device.thermistor2);                 // dien tro nhiet 2
 309:Src/relay.c   ****     // RELAY10(device.moise.stt_rl);               // may tao am
 310:Src/relay.c   ****     // RELAY11(device.humidify.stt_rl);            // may hut am
 311:Src/relay.c   ****     // RELAY12(device.valve_heater);               // van khi nong
 312:Src/relay.c   ****     // RELAY13(device.valve_cooler);               // van khi lanh 
 313:Src/relay.c   **** }
 1568              		.loc 1 313 1 view .LVU386
 1569 0000 7047     		bx	lr
 1570              		.cfi_endproc
 1571              	.LFE214:
ARM GAS  /tmp/ccaNbEnj.s 			page 36


 1573              		.global	blink_tick
 1574              		.global	relayFlag
 1575              		.section	.bss.blink_tick,"aw",%nobits
 1576              		.align	2
 1577              		.set	.LANCHOR1,. + 0
 1580              	blink_tick:
 1581 0000 00000000 		.space	4
 1582              		.section	.bss.relayFlag,"aw",%nobits
 1583              		.align	2
 1584              		.set	.LANCHOR0,. + 0
 1587              	relayFlag:
 1588 0000 00000000 		.space	4
 1589              		.text
 1590              	.Letext0:
 1591              		.file 2 "/usr/lib/gcc/arm-none-eabi/10.3.1/include/stdint.h"
 1592              		.file 3 "/home/smartth/STM32Cube/Repository/STM32Cube_FW_F1_V1.8.4//Drivers/CMSIS/Device/ST/STM32F
 1593              		.file 4 "/home/smartth/STM32Cube/Repository/STM32Cube_FW_F1_V1.8.4//Drivers/STM32F1xx_HAL_Driver/I
 1594              		.file 5 "/home/smartth/STM32Cube/Repository/STM32Cube_FW_F1_V1.8.4//Drivers/CMSIS/Device/ST/STM32F
 1595              		.file 6 "Inc/relay.h"
 1596              		.file 7 "Inc/stm32f1xx_hal.h"
 1597              		.file 8 "/usr/include/newlib/stdlib.h"
ARM GAS  /tmp/ccaNbEnj.s 			page 37

