ARM GAS  C:\Users\BLACK_~1\AppData\Local\Temp\ccLPMwWu.s 			page 1


   1              		.cpu cortex-m3
   2              		.arch armv7-m
   3              		.fpu softvfp
   4              		.eabi_attribute 20, 1
   5              		.eabi_attribute 21, 1
   6              		.eabi_attribute 23, 3
   7              		.eabi_attribute 24, 1
   8              		.eabi_attribute 25, 1
   9              		.eabi_attribute 26, 1
  10              		.eabi_attribute 30, 1
  11              		.eabi_attribute 34, 1
  12              		.eabi_attribute 18, 4
  13              		.file	"ringbuf.c"
  14              		.text
  15              	.Ltext0:
  16              		.cfi_sections	.debug_frame
  17              		.section	.text.ringbuf_init,"ax",%progbits
  18              		.align	1
  19              		.global	ringbuf_init
  20              		.syntax unified
  21              		.thumb
  22              		.thumb_func
  24              	ringbuf_init:
  25              	.LVL0:
  26              	.LFB0:
  27              		.file 1 "Core/Src/ringbuf.c"
   1:Core/Src/ringbuf.c **** #include <stdint.h>
   2:Core/Src/ringbuf.c **** #include "ringbuf.h"
   3:Core/Src/ringbuf.c **** 
   4:Core/Src/ringbuf.c **** void ringbuf_init(ringbuf *rb, uint8_t *buf, uint32_t size)
   5:Core/Src/ringbuf.c **** {
  28              		.loc 1 5 1 view -0
  29              		.cfi_startproc
  30              		@ args = 0, pretend = 0, frame = 0
  31              		@ frame_needed = 0, uses_anonymous_args = 0
  32              		@ link register save eliminated.
   6:Core/Src/ringbuf.c ****   rb->buf = buf;
  33              		.loc 1 6 3 view .LVU1
  34              		.loc 1 6 11 is_stmt 0 view .LVU2
  35 0000 0160     		str	r1, [r0]
   7:Core/Src/ringbuf.c ****   rb->size  = size;
  36              		.loc 1 7 3 is_stmt 1 view .LVU3
  37              		.loc 1 7 13 is_stmt 0 view .LVU4
  38 0002 4260     		str	r2, [r0, #4]
   8:Core/Src/ringbuf.c ****   rb->pr = rb->pw = 0;
  39              		.loc 1 8 3 is_stmt 1 view .LVU5
  40              		.loc 1 8 19 is_stmt 0 view .LVU6
  41 0004 0023     		movs	r3, #0
  42 0006 8360     		str	r3, [r0, #8]
  43              		.loc 1 8 10 view .LVU7
  44 0008 C360     		str	r3, [r0, #12]
   9:Core/Src/ringbuf.c **** }
  45              		.loc 1 9 1 view .LVU8
  46 000a 7047     		bx	lr
  47              		.cfi_endproc
  48              	.LFE0:
  50              		.section	.text.ringbuf_get,"ax",%progbits
ARM GAS  C:\Users\BLACK_~1\AppData\Local\Temp\ccLPMwWu.s 			page 2


  51              		.align	1
  52              		.global	ringbuf_get
  53              		.syntax unified
  54              		.thumb
  55              		.thumb_func
  57              	ringbuf_get:
  58              	.LVL1:
  59              	.LFB1:
  10:Core/Src/ringbuf.c **** 
  11:Core/Src/ringbuf.c **** uint32_t ringbuf_get(ringbuf *rb, uint8_t *data)
  12:Core/Src/ringbuf.c **** {
  60              		.loc 1 12 1 is_stmt 1 view -0
  61              		.cfi_startproc
  62              		@ args = 0, pretend = 0, frame = 0
  63              		@ frame_needed = 0, uses_anonymous_args = 0
  64              		@ link register save eliminated.
  13:Core/Src/ringbuf.c ****   if (rb->pr == rb->pw) return 0;
  65              		.loc 1 13 3 view .LVU10
  66              		.loc 1 13 9 is_stmt 0 view .LVU11
  67 0000 C368     		ldr	r3, [r0, #12]
  68              		.loc 1 13 19 view .LVU12
  69 0002 8268     		ldr	r2, [r0, #8]
  70              		.loc 1 13 6 view .LVU13
  71 0004 9342     		cmp	r3, r2
  72 0006 0CD0     		beq	.L4
  14:Core/Src/ringbuf.c ****   *data = rb->buf[rb->pr];
  73              		.loc 1 14 3 is_stmt 1 view .LVU14
  74              		.loc 1 14 13 is_stmt 0 view .LVU15
  75 0008 0268     		ldr	r2, [r0]
  76              		.loc 1 14 18 view .LVU16
  77 000a D35C     		ldrb	r3, [r2, r3]	@ zero_extendqisi2
  78              		.loc 1 14 9 view .LVU17
  79 000c 0B70     		strb	r3, [r1]
  15:Core/Src/ringbuf.c ****   rb->pr = (rb->pr + 1) % rb->size;
  80              		.loc 1 15 3 is_stmt 1 view .LVU18
  81              		.loc 1 15 15 is_stmt 0 view .LVU19
  82 000e C368     		ldr	r3, [r0, #12]
  83              		.loc 1 15 20 view .LVU20
  84 0010 0133     		adds	r3, r3, #1
  85              		.loc 1 15 29 view .LVU21
  86 0012 4268     		ldr	r2, [r0, #4]
  87              		.loc 1 15 25 view .LVU22
  88 0014 B3FBF2F1 		udiv	r1, r3, r2
  89              	.LVL2:
  90              		.loc 1 15 25 view .LVU23
  91 0018 02FB1133 		mls	r3, r2, r1, r3
  92              		.loc 1 15 10 view .LVU24
  93 001c C360     		str	r3, [r0, #12]
  16:Core/Src/ringbuf.c ****   return 1;
  94              		.loc 1 16 3 is_stmt 1 view .LVU25
  95              		.loc 1 16 10 is_stmt 0 view .LVU26
  96 001e 0120     		movs	r0, #1
  97              	.LVL3:
  98              		.loc 1 16 10 view .LVU27
  99 0020 7047     		bx	lr
 100              	.LVL4:
 101              	.L4:
ARM GAS  C:\Users\BLACK_~1\AppData\Local\Temp\ccLPMwWu.s 			page 3


  13:Core/Src/ringbuf.c ****   *data = rb->buf[rb->pr];
 102              		.loc 1 13 32 view .LVU28
 103 0022 0020     		movs	r0, #0
 104              	.LVL5:
  17:Core/Src/ringbuf.c **** }
 105              		.loc 1 17 1 view .LVU29
 106 0024 7047     		bx	lr
 107              		.cfi_endproc
 108              	.LFE1:
 110              		.section	.text.ringbuf_put,"ax",%progbits
 111              		.align	1
 112              		.global	ringbuf_put
 113              		.syntax unified
 114              		.thumb
 115              		.thumb_func
 117              	ringbuf_put:
 118              	.LVL6:
 119              	.LFB2:
  18:Core/Src/ringbuf.c **** 
  19:Core/Src/ringbuf.c **** uint32_t ringbuf_put(ringbuf *rb, uint8_t data)
  20:Core/Src/ringbuf.c **** {
 120              		.loc 1 20 1 is_stmt 1 view -0
 121              		.cfi_startproc
 122              		@ args = 0, pretend = 0, frame = 0
 123              		@ frame_needed = 0, uses_anonymous_args = 0
 124              		@ link register save eliminated.
 125              		.loc 1 20 1 is_stmt 0 view .LVU31
 126 0000 10B4     		push	{r4}
 127              	.LCFI0:
 128              		.cfi_def_cfa_offset 4
 129              		.cfi_offset 4, -4
  21:Core/Src/ringbuf.c ****   uint32_t next;
 130              		.loc 1 21 3 is_stmt 1 view .LVU32
  22:Core/Src/ringbuf.c ****   next = (rb->pw + 1) % rb->size;
 131              		.loc 1 22 3 view .LVU33
 132              		.loc 1 22 13 is_stmt 0 view .LVU34
 133 0002 8468     		ldr	r4, [r0, #8]
 134              		.loc 1 22 18 view .LVU35
 135 0004 631C     		adds	r3, r4, #1
 136              		.loc 1 22 27 view .LVU36
 137 0006 4268     		ldr	r2, [r0, #4]
 138              		.loc 1 22 8 view .LVU37
 139 0008 B3FBF2FC 		udiv	ip, r3, r2
 140 000c 02FB1C33 		mls	r3, r2, ip, r3
 141              	.LVL7:
  23:Core/Src/ringbuf.c ****   if (next == rb->pr) return 0;
 142              		.loc 1 23 3 is_stmt 1 view .LVU38
 143              		.loc 1 23 17 is_stmt 0 view .LVU39
 144 0010 C268     		ldr	r2, [r0, #12]
 145              		.loc 1 23 6 view .LVU40
 146 0012 9A42     		cmp	r2, r3
 147 0014 05D0     		beq	.L7
  24:Core/Src/ringbuf.c ****   rb->buf[rb->pw] = data;
 148              		.loc 1 24 3 is_stmt 1 view .LVU41
 149              		.loc 1 24 5 is_stmt 0 view .LVU42
 150 0016 0268     		ldr	r2, [r0]
 151              		.loc 1 24 19 view .LVU43
ARM GAS  C:\Users\BLACK_~1\AppData\Local\Temp\ccLPMwWu.s 			page 4


 152 0018 1155     		strb	r1, [r2, r4]
  25:Core/Src/ringbuf.c ****   rb->pw = next;
 153              		.loc 1 25 3 is_stmt 1 view .LVU44
 154              		.loc 1 25 10 is_stmt 0 view .LVU45
 155 001a 8360     		str	r3, [r0, #8]
  26:Core/Src/ringbuf.c ****   return 1;
 156              		.loc 1 26 3 is_stmt 1 view .LVU46
 157              		.loc 1 26 10 is_stmt 0 view .LVU47
 158 001c 0120     		movs	r0, #1
 159              	.LVL8:
 160              	.L5:
  27:Core/Src/ringbuf.c **** }
 161              		.loc 1 27 1 view .LVU48
 162 001e 10BC     		pop	{r4}
 163              	.LCFI1:
 164              		.cfi_remember_state
 165              		.cfi_restore 4
 166              		.cfi_def_cfa_offset 0
 167 0020 7047     		bx	lr
 168              	.LVL9:
 169              	.L7:
 170              	.LCFI2:
 171              		.cfi_restore_state
  23:Core/Src/ringbuf.c ****   rb->buf[rb->pw] = data;
 172              		.loc 1 23 30 view .LVU49
 173 0022 0020     		movs	r0, #0
 174              	.LVL10:
  23:Core/Src/ringbuf.c ****   rb->buf[rb->pw] = data;
 175              		.loc 1 23 30 view .LVU50
 176 0024 FBE7     		b	.L5
 177              		.cfi_endproc
 178              	.LFE2:
 180              		.text
 181              	.Letext0:
 182              		.file 2 "e:\\gnu arm embedded toolchain\\10 2021.10\\arm-none-eabi\\include\\machine\\_default_typ
 183              		.file 3 "e:\\gnu arm embedded toolchain\\10 2021.10\\arm-none-eabi\\include\\sys\\_stdint.h"
 184              		.file 4 "Core/Inc/ringbuf.h"
ARM GAS  C:\Users\BLACK_~1\AppData\Local\Temp\ccLPMwWu.s 			page 5

