ARM GAS  /tmp/cc9GgjmC.s 			page 1


   1              		.cpu cortex-m3
   2              		.eabi_attribute 20, 1
   3              		.eabi_attribute 21, 1
   4              		.eabi_attribute 23, 3
   5              		.eabi_attribute 24, 1
   6              		.eabi_attribute 25, 1
   7              		.eabi_attribute 26, 1
   8              		.eabi_attribute 30, 1
   9              		.eabi_attribute 34, 1
  10              		.eabi_attribute 18, 4
  11              		.file	"sht_sensor.c"
  12              		.text
  13              	.Ltext0:
  14              		.cfi_sections	.debug_frame
  15              		.global	__aeabi_f2d
  16              		.section	.rodata.SHT_Init_Load.str1.4,"aMS",%progbits,1
  17              		.align	2
  18              	.LC0:
  19 0000 73735F25 		.ascii	"ss_%d | T_a = %2.2f | T_b = %2.2f\012\000"
  19      64207C20 
  19      545F6120 
  19      3D202532 
  19      2E326620 
  20 0023 00       		.align	2
  21              	.LC1:
  22 0024 73735F25 		.ascii	"ss_%d | H_a = %2.2f | H_b = %2.2f\012\000"
  22      64207C20 
  22      485F6120 
  22      3D202532 
  22      2E326620 
  23              		.global	__aeabi_fmul
  24              		.global	__aeabi_f2uiz
  25              		.section	.text.SHT_Init_Load,"ax",%progbits
  26              		.align	1
  27              		.global	SHT_Init_Load
  28              		.arch armv7-m
  29              		.syntax unified
  30              		.thumb
  31              		.thumb_func
  32              		.fpu softvfp
  34              	SHT_Init_Load:
  35              	.LFB197:
  36              		.file 1 "User/Peripherals/sht_sensor.c"
   1:User/Peripherals/sht_sensor.c **** #include "sht_sensor.h"
   2:User/Peripherals/sht_sensor.c **** uint8_t sht_cnt = 0, sht_id = 0, idx = 1, waitting;
   3:User/Peripherals/sht_sensor.c **** uint32_t sht_tick;
   4:User/Peripherals/sht_sensor.c **** SHT_DEVICE_t sht_list[10];
   5:User/Peripherals/sht_sensor.c **** 
   6:User/Peripherals/sht_sensor.c **** #include "modbus_data.h"
   7:User/Peripherals/sht_sensor.c **** extern uint16_t modbus_holding_buf[NoB_HOLDING_REGISTER],
   8:User/Peripherals/sht_sensor.c **** 		modbus_input_buf[NoB_INPUT_REGISTER];
   9:User/Peripherals/sht_sensor.c **** 
  10:User/Peripherals/sht_sensor.c **** #include "control_system.h"
  11:User/Peripherals/sht_sensor.c **** extern DEVICE_t device;
  12:User/Peripherals/sht_sensor.c **** 
  13:User/Peripherals/sht_sensor.c **** #include "config.h"
  14:User/Peripherals/sht_sensor.c **** 
ARM GAS  /tmp/cc9GgjmC.s 			page 2


  15:User/Peripherals/sht_sensor.c **** #include "kalman_filter.h"
  16:User/Peripherals/sht_sensor.c **** Kalman_filter_TypeDef kalman;
  17:User/Peripherals/sht_sensor.c **** 
  18:User/Peripherals/sht_sensor.c **** void SHT_Measurement_Sum(void);
  19:User/Peripherals/sht_sensor.c **** void SHT_Calc_Calib_Linear_Regression(float *val_a_b, float *val_x, float *val_y, uint8_t point);
  20:User/Peripherals/sht_sensor.c **** uint16_t SHT_Calculator(uint16_t *pt, uint16_t *ph, uint16_t t_, uint16_t h_);
  21:User/Peripherals/sht_sensor.c **** 
  22:User/Peripherals/sht_sensor.c **** void SHT_Init_Load(void){
  37              		.loc 1 22 25 view -0
  38              		.cfi_startproc
  39              		@ args = 0, pretend = 0, frame = 0
  40              		@ frame_needed = 0, uses_anonymous_args = 0
  41 0000 2DE9F041 		push	{r4, r5, r6, r7, r8, lr}
  42              	.LCFI0:
  43              		.cfi_def_cfa_offset 24
  44              		.cfi_offset 4, -24
  45              		.cfi_offset 5, -20
  46              		.cfi_offset 6, -16
  47              		.cfi_offset 7, -12
  48              		.cfi_offset 8, -8
  49              		.cfi_offset 14, -4
  50 0004 82B0     		sub	sp, sp, #8
  51              	.LCFI1:
  52              		.cfi_def_cfa_offset 32
  23:User/Peripherals/sht_sensor.c **** 
  24:User/Peripherals/sht_sensor.c ****     // float a_b[2];
  25:User/Peripherals/sht_sensor.c ****     // float pointx[4] = {21.4, 34.5, 50.4, 65.2, 81.4};
  26:User/Peripherals/sht_sensor.c ****     // float pointy[4] = {20,3, 35.2, 49.8, 65.1, 80.2};
  27:User/Peripherals/sht_sensor.c **** 
  28:User/Peripherals/sht_sensor.c ****     for(int i = 0; i < 10; i++){
  53              		.loc 1 28 5 view .LVU1
  54              	.LBB2:
  55              		.loc 1 28 9 view .LVU2
  56              	.LVL0:
  57              		.loc 1 28 13 is_stmt 0 view .LVU3
  58 0006 0024     		movs	r4, #0
  59              		.loc 1 28 5 view .LVU4
  60 0008 42E0     		b	.L2
  61              	.LVL1:
  62              	.L3:
  29:User/Peripherals/sht_sensor.c ****         sht_list[i].temp.a_user = sys_cfg.calib_Ta[i];
  63              		.loc 1 29 9 is_stmt 1 discriminator 3 view .LVU5
  64              		.loc 1 29 51 is_stmt 0 discriminator 3 view .LVU6
  65 000a 2F4B     		ldr	r3, .L5
  66 000c 03EB8402 		add	r2, r3, r4, lsl #2
  67 0010 5068     		ldr	r0, [r2, #4]	@ float
  68              		.loc 1 29 33 discriminator 3 view .LVU7
  69 0012 C4EB0412 		rsb	r2, r4, r4, lsl #4
  70 0016 2D4D     		ldr	r5, .L5+4
  71 0018 05EB8205 		add	r5, r5, r2, lsl #2
  72 001c A860     		str	r0, [r5, #8]	@ float
  30:User/Peripherals/sht_sensor.c ****         sht_list[i].temp.b_user = sys_cfg.calib_Tb[i];
  73              		.loc 1 30 9 is_stmt 1 discriminator 3 view .LVU8
  74              		.loc 1 30 51 is_stmt 0 discriminator 3 view .LVU9
  75 001e 04F10A02 		add	r2, r4, #10
  76 0022 03EB8202 		add	r2, r3, r2, lsl #2
  77 0026 D2F80480 		ldr	r8, [r2, #4]	@ float
ARM GAS  /tmp/cc9GgjmC.s 			page 3


  78              		.loc 1 30 33 discriminator 3 view .LVU10
  79 002a C5F80C80 		str	r8, [r5, #12]	@ float
  31:User/Peripherals/sht_sensor.c ****         sht_list[i].humi.a_user = sys_cfg.calib_Ha[i];
  80              		.loc 1 31 9 is_stmt 1 discriminator 3 view .LVU11
  81              		.loc 1 31 51 is_stmt 0 discriminator 3 view .LVU12
  82 002e 04F11402 		add	r2, r4, #20
  83 0032 03EB8202 		add	r2, r3, r2, lsl #2
  84 0036 5268     		ldr	r2, [r2, #4]	@ float
  85              		.loc 1 31 33 discriminator 3 view .LVU13
  86 0038 6A62     		str	r2, [r5, #36]	@ float
  32:User/Peripherals/sht_sensor.c ****         sht_list[i].humi.b_user = sys_cfg.calib_Hb[i];
  87              		.loc 1 32 9 is_stmt 1 discriminator 3 view .LVU14
  88              		.loc 1 32 51 is_stmt 0 discriminator 3 view .LVU15
  89 003a 04F11E02 		add	r2, r4, #30
  90 003e 03EB8203 		add	r3, r3, r2, lsl #2
  91 0042 5B68     		ldr	r3, [r3, #4]	@ float
  92              		.loc 1 32 33 discriminator 3 view .LVU16
  93 0044 AB62     		str	r3, [r5, #40]	@ float
  33:User/Peripherals/sht_sensor.c **** 
  34:User/Peripherals/sht_sensor.c ****         printf("ss_%d | T_a = %2.2f | T_b = %2.2f\n", i, sht_list[i].temp.a_user , sht_list[i].temp
  94              		.loc 1 34 9 is_stmt 1 discriminator 3 view .LVU17
  95 0046 FFF7FEFF 		bl	__aeabi_f2d
  96              	.LVL2:
  97 004a 0646     		mov	r6, r0
  98 004c 0F46     		mov	r7, r1
  99 004e 4046     		mov	r0, r8
 100 0050 FFF7FEFF 		bl	__aeabi_f2d
 101              	.LVL3:
 102 0054 CDE90001 		strd	r0, [sp]
 103 0058 3246     		mov	r2, r6
 104 005a 3B46     		mov	r3, r7
 105 005c 2146     		mov	r1, r4
 106 005e 1C48     		ldr	r0, .L5+8
 107 0060 FFF7FEFF 		bl	printf
 108              	.LVL4:
  35:User/Peripherals/sht_sensor.c ****         printf("ss_%d | H_a = %2.2f | H_b = %2.2f\n", i, sht_list[i].humi.a_user , sht_list[i].humi
 109              		.loc 1 35 9 discriminator 3 view .LVU18
 110              		.loc 1 35 100 is_stmt 0 discriminator 3 view .LVU19
 111 0064 D5F82880 		ldr	r8, [r5, #40]	@ float
 112              		.loc 1 35 9 discriminator 3 view .LVU20
 113 0068 686A     		ldr	r0, [r5, #36]	@ float
 114 006a FFF7FEFF 		bl	__aeabi_f2d
 115              	.LVL5:
 116 006e 0646     		mov	r6, r0
 117 0070 0F46     		mov	r7, r1
 118 0072 4046     		mov	r0, r8
 119 0074 FFF7FEFF 		bl	__aeabi_f2d
 120              	.LVL6:
 121 0078 CDE90001 		strd	r0, [sp]
 122 007c 3246     		mov	r2, r6
 123 007e 3B46     		mov	r3, r7
 124 0080 2146     		mov	r1, r4
 125 0082 1448     		ldr	r0, .L5+12
 126 0084 FFF7FEFF 		bl	printf
 127              	.LVL7:
  36:User/Peripherals/sht_sensor.c ****         HAL_Delay(50);
 128              		.loc 1 36 9 is_stmt 1 discriminator 3 view .LVU21
ARM GAS  /tmp/cc9GgjmC.s 			page 4


 129 0088 3220     		movs	r0, #50
 130 008a FFF7FEFF 		bl	HAL_Delay
 131              	.LVL8:
  28:User/Peripherals/sht_sensor.c ****         sht_list[i].temp.a_user = sys_cfg.calib_Ta[i];
 132              		.loc 1 28 28 discriminator 3 view .LVU22
  28:User/Peripherals/sht_sensor.c ****         sht_list[i].temp.a_user = sys_cfg.calib_Ta[i];
 133              		.loc 1 28 29 is_stmt 0 discriminator 3 view .LVU23
 134 008e 0134     		adds	r4, r4, #1
 135              	.LVL9:
 136              	.L2:
  28:User/Peripherals/sht_sensor.c ****         sht_list[i].temp.a_user = sys_cfg.calib_Ta[i];
 137              		.loc 1 28 20 is_stmt 1 discriminator 1 view .LVU24
  28:User/Peripherals/sht_sensor.c ****         sht_list[i].temp.a_user = sys_cfg.calib_Ta[i];
 138              		.loc 1 28 5 is_stmt 0 discriminator 1 view .LVU25
 139 0090 092C     		cmp	r4, #9
 140 0092 BADD     		ble	.L3
 141              	.LBE2:
  37:User/Peripherals/sht_sensor.c ****     }
  38:User/Peripherals/sht_sensor.c **** 
  39:User/Peripherals/sht_sensor.c ****     device.temp_set = sys_cfg.settemp;
 142              		.loc 1 39 5 is_stmt 1 view .LVU26
 143              		.loc 1 39 30 is_stmt 0 view .LVU27
 144 0094 0C4A     		ldr	r2, .L5
 145 0096 D2F8A400 		ldr	r0, [r2, #164]	@ float
 146              		.loc 1 39 21 view .LVU28
 147 009a 0F4B     		ldr	r3, .L5+16
 148 009c 9864     		str	r0, [r3, #72]	@ float
  40:User/Peripherals/sht_sensor.c ****     device.humi_set = sys_cfg.sethumi;
 149              		.loc 1 40 5 is_stmt 1 view .LVU29
 150              		.loc 1 40 30 is_stmt 0 view .LVU30
 151 009e D2F8A850 		ldr	r5, [r2, #168]	@ float
 152              		.loc 1 40 21 view .LVU31
 153 00a2 DD64     		str	r5, [r3, #76]	@ float
  41:User/Peripherals/sht_sensor.c ****     modbus_holding_buf[20] = device.temp_set * 10;
 154              		.loc 1 41 5 is_stmt 1 view .LVU32
 155              		.loc 1 41 46 is_stmt 0 view .LVU33
 156 00a4 0D49     		ldr	r1, .L5+20
 157 00a6 FFF7FEFF 		bl	__aeabi_fmul
 158              	.LVL10:
 159              		.loc 1 41 28 view .LVU34
 160 00aa 0D4C     		ldr	r4, .L5+24
 161              	.LVL11:
 162              		.loc 1 41 28 view .LVU35
 163 00ac FFF7FEFF 		bl	__aeabi_f2uiz
 164              	.LVL12:
 165 00b0 2085     		strh	r0, [r4, #40]	@ movhi
  42:User/Peripherals/sht_sensor.c ****     modbus_holding_buf[21] = device.humi_set * 10;
 166              		.loc 1 42 5 is_stmt 1 view .LVU36
 167              		.loc 1 42 46 is_stmt 0 view .LVU37
 168 00b2 0A49     		ldr	r1, .L5+20
 169 00b4 2846     		mov	r0, r5
 170 00b6 FFF7FEFF 		bl	__aeabi_fmul
 171              	.LVL13:
 172              		.loc 1 42 28 view .LVU38
 173 00ba FFF7FEFF 		bl	__aeabi_f2uiz
 174              	.LVL14:
 175 00be 6085     		strh	r0, [r4, #42]	@ movhi
ARM GAS  /tmp/cc9GgjmC.s 			page 5


  43:User/Peripherals/sht_sensor.c **** 
  44:User/Peripherals/sht_sensor.c ****     // test
  45:User/Peripherals/sht_sensor.c ****     // SHT_Calc_Calib_Linear_Regression(&a_b, pointx, pointy, 4);
  46:User/Peripherals/sht_sensor.c ****     // printf("a = %2.2f | b = %2.2f\n", a_b[0], a_b[1]);
  47:User/Peripherals/sht_sensor.c **** }
 176              		.loc 1 47 1 view .LVU39
 177 00c0 02B0     		add	sp, sp, #8
 178              	.LCFI2:
 179              		.cfi_def_cfa_offset 24
 180              		@ sp needed
 181 00c2 BDE8F081 		pop	{r4, r5, r6, r7, r8, pc}
 182              	.L6:
 183 00c6 00BF     		.align	2
 184              	.L5:
 185 00c8 00000000 		.word	sys_cfg
 186 00cc 00000000 		.word	.LANCHOR0
 187 00d0 00000000 		.word	.LC0
 188 00d4 24000000 		.word	.LC1
 189 00d8 00000000 		.word	device
 190 00dc 00002041 		.word	1092616192
 191 00e0 00000000 		.word	modbus_holding_buf
 192              		.cfi_endproc
 193              	.LFE197:
 195              		.section	.text.SHT_Read_Process,"ax",%progbits
 196              		.align	1
 197              		.global	SHT_Read_Process
 198              		.syntax unified
 199              		.thumb
 200              		.thumb_func
 201              		.fpu softvfp
 203              	SHT_Read_Process:
 204              	.LFB198:
  48:User/Peripherals/sht_sensor.c **** 
  49:User/Peripherals/sht_sensor.c **** // Doc tat ca cac cam bien SHT
  50:User/Peripherals/sht_sensor.c **** void SHT_Read_Process(void)
  51:User/Peripherals/sht_sensor.c **** {
 205              		.loc 1 51 1 is_stmt 1 view -0
 206              		.cfi_startproc
 207              		@ args = 0, pretend = 0, frame = 0
 208              		@ frame_needed = 0, uses_anonymous_args = 0
 209 0000 08B5     		push	{r3, lr}
 210              	.LCFI3:
 211              		.cfi_def_cfa_offset 8
 212              		.cfi_offset 3, -8
 213              		.cfi_offset 14, -4
  52:User/Peripherals/sht_sensor.c ****     switch (idx)
 214              		.loc 1 52 5 view .LVU41
 215 0002 1D4B     		ldr	r3, .L13
 216 0004 1B78     		ldrb	r3, [r3]	@ zero_extendqisi2
 217 0006 13B1     		cbz	r3, .L8
 218 0008 012B     		cmp	r3, #1
 219 000a 22D0     		beq	.L9
 220              	.L7:
  53:User/Peripherals/sht_sensor.c ****     {
  54:User/Peripherals/sht_sensor.c ****         case 0:             // Waiting
  55:User/Peripherals/sht_sensor.c ****              if (HAL_GetTick() - sht_tick > 1000)
  56:User/Peripherals/sht_sensor.c ****             {
ARM GAS  /tmp/cc9GgjmC.s 			page 6


  57:User/Peripherals/sht_sensor.c ****                 if (waitting == 0)  sht_list[sht_id].state = 1;     // Error connect line sensor
  58:User/Peripherals/sht_sensor.c ****                 idx = 1;
  59:User/Peripherals/sht_sensor.c ****                 sht_id++;
  60:User/Peripherals/sht_sensor.c ****                 if (sht_id == 10)   sht_id = 0; 
  61:User/Peripherals/sht_sensor.c ****             }
  62:User/Peripherals/sht_sensor.c ****             break;
  63:User/Peripherals/sht_sensor.c ****         case 1:             // READ SHT SENSOR
  64:User/Peripherals/sht_sensor.c ****             Modbus_Uart2_Read_Regs(sht_id+1, 0, 2);
  65:User/Peripherals/sht_sensor.c ****             idx = 0;
  66:User/Peripherals/sht_sensor.c ****             waitting = 0;       // Cho timeout
  67:User/Peripherals/sht_sensor.c ****             sht_tick = HAL_GetTick();
  68:User/Peripherals/sht_sensor.c ****             break;
  69:User/Peripherals/sht_sensor.c ****         
  70:User/Peripherals/sht_sensor.c ****         default:
  71:User/Peripherals/sht_sensor.c ****             break;
  72:User/Peripherals/sht_sensor.c ****     }
  73:User/Peripherals/sht_sensor.c **** }
 221              		.loc 1 73 1 is_stmt 0 view .LVU42
 222 000c 08BD     		pop	{r3, pc}
 223              	.L8:
  55:User/Peripherals/sht_sensor.c ****             {
 224              		.loc 1 55 14 is_stmt 1 view .LVU43
  55:User/Peripherals/sht_sensor.c ****             {
 225              		.loc 1 55 18 is_stmt 0 view .LVU44
 226 000e FFF7FEFF 		bl	HAL_GetTick
 227              	.LVL15:
  55:User/Peripherals/sht_sensor.c ****             {
 228              		.loc 1 55 32 view .LVU45
 229 0012 1A4B     		ldr	r3, .L13+4
 230 0014 1B68     		ldr	r3, [r3]
 231 0016 C01A     		subs	r0, r0, r3
  55:User/Peripherals/sht_sensor.c ****             {
 232              		.loc 1 55 17 view .LVU46
 233 0018 B0F57A7F 		cmp	r0, #1000
 234 001c F6D9     		bls	.L7
  57:User/Peripherals/sht_sensor.c ****                 idx = 1;
 235              		.loc 1 57 17 is_stmt 1 view .LVU47
  57:User/Peripherals/sht_sensor.c ****                 idx = 1;
 236              		.loc 1 57 30 is_stmt 0 view .LVU48
 237 001e 184B     		ldr	r3, .L13+8
 238 0020 1B78     		ldrb	r3, [r3]	@ zero_extendqisi2
  57:User/Peripherals/sht_sensor.c ****                 idx = 1;
 239              		.loc 1 57 20 view .LVU49
 240 0022 43B9     		cbnz	r3, .L11
  57:User/Peripherals/sht_sensor.c ****                 idx = 1;
 241              		.loc 1 57 37 is_stmt 1 discriminator 1 view .LVU50
  57:User/Peripherals/sht_sensor.c ****                 idx = 1;
 242              		.loc 1 57 53 is_stmt 0 discriminator 1 view .LVU51
 243 0024 174B     		ldr	r3, .L13+12
 244 0026 1B78     		ldrb	r3, [r3]	@ zero_extendqisi2
  57:User/Peripherals/sht_sensor.c ****                 idx = 1;
 245              		.loc 1 57 60 discriminator 1 view .LVU52
 246 0028 C3EB0313 		rsb	r3, r3, r3, lsl #4
 247 002c 164A     		ldr	r2, .L13+16
 248 002e 02EB8303 		add	r3, r2, r3, lsl #2
 249 0032 0122     		movs	r2, #1
 250 0034 5A70     		strb	r2, [r3, #1]
ARM GAS  /tmp/cc9GgjmC.s 			page 7


 251              	.L11:
  58:User/Peripherals/sht_sensor.c ****                 sht_id++;
 252              		.loc 1 58 17 is_stmt 1 view .LVU53
  58:User/Peripherals/sht_sensor.c ****                 sht_id++;
 253              		.loc 1 58 21 is_stmt 0 view .LVU54
 254 0036 104B     		ldr	r3, .L13
 255 0038 0122     		movs	r2, #1
 256 003a 1A70     		strb	r2, [r3]
  59:User/Peripherals/sht_sensor.c ****                 if (sht_id == 10)   sht_id = 0; 
 257              		.loc 1 59 17 is_stmt 1 view .LVU55
  59:User/Peripherals/sht_sensor.c ****                 if (sht_id == 10)   sht_id = 0; 
 258              		.loc 1 59 23 is_stmt 0 view .LVU56
 259 003c 114A     		ldr	r2, .L13+12
 260 003e 1378     		ldrb	r3, [r2]	@ zero_extendqisi2
 261 0040 0133     		adds	r3, r3, #1
 262 0042 DBB2     		uxtb	r3, r3
 263 0044 1370     		strb	r3, [r2]
  60:User/Peripherals/sht_sensor.c ****             }
 264              		.loc 1 60 17 is_stmt 1 view .LVU57
  60:User/Peripherals/sht_sensor.c ****             }
 265              		.loc 1 60 20 is_stmt 0 view .LVU58
 266 0046 0A2B     		cmp	r3, #10
 267 0048 E0D1     		bne	.L7
  60:User/Peripherals/sht_sensor.c ****             }
 268              		.loc 1 60 37 is_stmt 1 discriminator 1 view .LVU59
  60:User/Peripherals/sht_sensor.c ****             }
 269              		.loc 1 60 44 is_stmt 0 discriminator 1 view .LVU60
 270 004a 1346     		mov	r3, r2
 271 004c 0022     		movs	r2, #0
 272 004e 1A70     		strb	r2, [r3]
 273 0050 DCE7     		b	.L7
 274              	.L9:
  64:User/Peripherals/sht_sensor.c ****             idx = 0;
 275              		.loc 1 64 13 is_stmt 1 view .LVU61
 276 0052 0C4B     		ldr	r3, .L13+12
 277 0054 1878     		ldrb	r0, [r3]	@ zero_extendqisi2
 278 0056 0130     		adds	r0, r0, #1
 279 0058 0222     		movs	r2, #2
 280 005a 0021     		movs	r1, #0
 281 005c C0B2     		uxtb	r0, r0
 282 005e FFF7FEFF 		bl	Modbus_Uart2_Read_Regs
 283              	.LVL16:
  65:User/Peripherals/sht_sensor.c ****             waitting = 0;       // Cho timeout
 284              		.loc 1 65 13 view .LVU62
  65:User/Peripherals/sht_sensor.c ****             waitting = 0;       // Cho timeout
 285              		.loc 1 65 17 is_stmt 0 view .LVU63
 286 0062 0023     		movs	r3, #0
 287 0064 044A     		ldr	r2, .L13
 288 0066 1370     		strb	r3, [r2]
  66:User/Peripherals/sht_sensor.c ****             sht_tick = HAL_GetTick();
 289              		.loc 1 66 13 is_stmt 1 view .LVU64
  66:User/Peripherals/sht_sensor.c ****             sht_tick = HAL_GetTick();
 290              		.loc 1 66 22 is_stmt 0 view .LVU65
 291 0068 054A     		ldr	r2, .L13+8
 292 006a 1370     		strb	r3, [r2]
  67:User/Peripherals/sht_sensor.c ****             break;
 293              		.loc 1 67 13 is_stmt 1 view .LVU66
ARM GAS  /tmp/cc9GgjmC.s 			page 8


  67:User/Peripherals/sht_sensor.c ****             break;
 294              		.loc 1 67 24 is_stmt 0 view .LVU67
 295 006c FFF7FEFF 		bl	HAL_GetTick
 296              	.LVL17:
  67:User/Peripherals/sht_sensor.c ****             break;
 297              		.loc 1 67 22 view .LVU68
 298 0070 024B     		ldr	r3, .L13+4
 299 0072 1860     		str	r0, [r3]
  68:User/Peripherals/sht_sensor.c ****         
 300              		.loc 1 68 13 is_stmt 1 view .LVU69
 301              		.loc 1 73 1 is_stmt 0 view .LVU70
 302 0074 CAE7     		b	.L7
 303              	.L14:
 304 0076 00BF     		.align	2
 305              	.L13:
 306 0078 00000000 		.word	.LANCHOR1
 307 007c 00000000 		.word	.LANCHOR2
 308 0080 00000000 		.word	.LANCHOR3
 309 0084 00000000 		.word	.LANCHOR4
 310 0088 00000000 		.word	.LANCHOR0
 311              		.cfi_endproc
 312              	.LFE198:
 314              		.section	.rodata.SHT_Get_Calib_Value.str1.4,"aMS",%progbits,1
 315              		.align	2
 316              	.LC2:
 317 0000 53656E73 		.ascii	"Sensor: %d - Reg: %d - Value: %d\012\000"
 317      6F723A20 
 317      2564202D 
 317      20526567 
 317      3A202564 
 318              		.global	__aeabi_i2d
 319              		.global	__aeabi_ddiv
 320              		.global	__aeabi_d2f
 321 0022 0000     		.align	2
 322              	.LC3:
 323 0024 73735F25 		.ascii	"ss_%d | Y1 = %2.2f, X1 = %2.2f\012\000"
 323      64207C20 
 323      5931203D 
 323      2025322E 
 323      32662C20 
 324              		.align	2
 325              	.LC4:
 326 0044 73735F25 		.ascii	"ss_%d | Y2 = %2.2f, X2 = %2.2f\012\000"
 326      64207C20 
 326      5932203D 
 326      2025322E 
 326      32662C20 
 327              		.global	__aeabi_fsub
 328              		.global	__aeabi_fdiv
 329              		.align	2
 330              	.LC5:
 331 0064 53656E73 		.ascii	"Sensor: %d Ta: %2.2f | Tb: %2.2f\012\000"
 331      6F723A20 
 331      25642054 
 331      613A2025 
 331      322E3266 
 332 0086 0000     		.align	2
ARM GAS  /tmp/cc9GgjmC.s 			page 9


 333              	.LC6:
 334 0088 53656E73 		.ascii	"Sensor: %d Ha: %2.2f | Hb: %2.2f\012\000"
 334      6F723A20 
 334      25642048 
 334      613A2025 
 334      322E3266 
 335              		.section	.text.SHT_Get_Calib_Value,"ax",%progbits
 336              		.align	1
 337              		.global	SHT_Get_Calib_Value
 338              		.syntax unified
 339              		.thumb
 340              		.thumb_func
 341              		.fpu softvfp
 343              	SHT_Get_Calib_Value:
 344              	.LVL18:
 345              	.LFB199:
  74:User/Peripherals/sht_sensor.c **** 
  75:User/Peripherals/sht_sensor.c **** void SHT_Get_Calib_Value(uint8_t address, uint16_t value)
  76:User/Peripherals/sht_sensor.c **** {   
 346              		.loc 1 76 1 is_stmt 1 view -0
 347              		.cfi_startproc
 348              		@ args = 0, pretend = 0, frame = 0
 349              		@ frame_needed = 0, uses_anonymous_args = 0
 350              		.loc 1 76 1 is_stmt 0 view .LVU72
 351 0000 2DE9F043 		push	{r4, r5, r6, r7, r8, r9, lr}
 352              	.LCFI4:
 353              		.cfi_def_cfa_offset 28
 354              		.cfi_offset 4, -28
 355              		.cfi_offset 5, -24
 356              		.cfi_offset 6, -20
 357              		.cfi_offset 7, -16
 358              		.cfi_offset 8, -12
 359              		.cfi_offset 9, -8
 360              		.cfi_offset 14, -4
 361 0004 83B0     		sub	sp, sp, #12
 362              	.LCFI5:
 363              		.cfi_def_cfa_offset 40
 364 0006 0E46     		mov	r6, r1
  77:User/Peripherals/sht_sensor.c ****     // hiệu chuẩn 2 điểm
  78:User/Peripherals/sht_sensor.c **** 
  79:User/Peripherals/sht_sensor.c ****     uint8_t _id = (address / 5) - 6; // _id = 0 -> sensor id = 1
 365              		.loc 1 79 5 is_stmt 1 view .LVU73
 366              		.loc 1 79 33 is_stmt 0 view .LVU74
 367 0008 9D4A     		ldr	r2, .L30
 368 000a A2FB0032 		umull	r3, r2, r2, r0
 369 000e 9508     		lsrs	r5, r2, #2
 370              		.loc 1 79 13 view .LVU75
 371 0010 063D     		subs	r5, r5, #6
 372 0012 EDB2     		uxtb	r5, r5
 373              	.LVL19:
  80:User/Peripherals/sht_sensor.c ****     uint8_t _reg = address % 5;
 374              		.loc 1 80 5 is_stmt 1 view .LVU76
 375              		.loc 1 80 13 is_stmt 0 view .LVU77
 376 0014 02F0FC04 		and	r4, r2, #252
 377 0018 04EB9204 		add	r4, r4, r2, lsr #2
 378 001c 041B     		subs	r4, r0, r4
 379 001e E4B2     		uxtb	r4, r4
ARM GAS  /tmp/cc9GgjmC.s 			page 10


 380              	.LVL20:
  81:User/Peripherals/sht_sensor.c **** 
  82:User/Peripherals/sht_sensor.c ****     printf("Sensor: %d - Reg: %d - Value: %d\n", _id, _reg, value);
 381              		.loc 1 82 5 is_stmt 1 view .LVU78
 382 0020 0B46     		mov	r3, r1
 383 0022 2246     		mov	r2, r4
 384 0024 2946     		mov	r1, r5
 385              	.LVL21:
 386              		.loc 1 82 5 is_stmt 0 view .LVU79
 387 0026 9748     		ldr	r0, .L30+4
 388              	.LVL22:
 389              		.loc 1 82 5 view .LVU80
 390 0028 FFF7FEFF 		bl	printf
 391              	.LVL23:
  83:User/Peripherals/sht_sensor.c ****     switch (_reg)
 392              		.loc 1 83 5 is_stmt 1 view .LVU81
 393 002c 042C     		cmp	r4, #4
 394 002e 2FD8     		bhi	.L15
 395 0030 DFE804F0 		tbb	[pc, r4]
 396              	.L18:
 397 0034 03       		.byte	(.L22-.L18)/2
 398 0035 31       		.byte	(.L21-.L18)/2
 399 0036 5D       		.byte	(.L20-.L18)/2
 400 0037 89       		.byte	(.L19-.L18)/2
 401 0038 B5       		.byte	(.L17-.L18)/2
 402 0039 00       		.p2align 1
 403              	.L22:
  84:User/Peripherals/sht_sensor.c ****     {
  85:User/Peripherals/sht_sensor.c ****         case TEMP_Y1_REG:
  86:User/Peripherals/sht_sensor.c ****             sht_list[_id].temp.point.Y1 = value / 10.0;
 404              		.loc 1 86 13 view .LVU82
 405              		.loc 1 86 49 is_stmt 0 view .LVU83
 406 003a 3046     		mov	r0, r6
 407 003c FFF7FEFF 		bl	__aeabi_i2d
 408              	.LVL24:
 409 0040 0022     		movs	r2, #0
 410 0042 914B     		ldr	r3, .L30+8
 411 0044 FFF7FEFF 		bl	__aeabi_ddiv
 412              	.LVL25:
 413 0048 FFF7FEFF 		bl	__aeabi_d2f
 414              	.LVL26:
 415 004c 0746     		mov	r7, r0
 416              		.loc 1 86 41 view .LVU84
 417 004e C5EB0513 		rsb	r3, r5, r5, lsl #4
 418 0052 8E4C     		ldr	r4, .L30+12
 419              	.LVL27:
 420              		.loc 1 86 41 view .LVU85
 421 0054 04EB8304 		add	r4, r4, r3, lsl #2
 422 0058 6061     		str	r0, [r4, #20]	@ float
  87:User/Peripherals/sht_sensor.c ****             sht_list[_id].temp.point.X1 = sht_list[_id].temp.raw / 10.0;
 423              		.loc 1 87 13 is_stmt 1 view .LVU86
 424              		.loc 1 87 66 is_stmt 0 view .LVU87
 425 005a A088     		ldrh	r0, [r4, #4]
 426 005c FFF7FEFF 		bl	__aeabi_i2d
 427              	.LVL28:
 428 0060 0022     		movs	r2, #0
 429 0062 894B     		ldr	r3, .L30+8
ARM GAS  /tmp/cc9GgjmC.s 			page 11


 430 0064 FFF7FEFF 		bl	__aeabi_ddiv
 431              	.LVL29:
 432 0068 FFF7FEFF 		bl	__aeabi_d2f
 433              	.LVL30:
 434 006c 0646     		mov	r6, r0
 435              		.loc 1 87 41 view .LVU88
 436 006e 2061     		str	r0, [r4, #16]	@ float
  88:User/Peripherals/sht_sensor.c ****             printf("ss_%d | Y1 = %2.2f, X1 = %2.2f\n", _id, sht_list[_id].temp.point.Y1, sht_list[_
 437              		.loc 1 88 13 is_stmt 1 view .LVU89
 438 0070 3846     		mov	r0, r7
 439 0072 FFF7FEFF 		bl	__aeabi_f2d
 440              	.LVL31:
 441 0076 8046     		mov	r8, r0
 442 0078 8946     		mov	r9, r1
 443 007a 3046     		mov	r0, r6
 444 007c FFF7FEFF 		bl	__aeabi_f2d
 445              	.LVL32:
 446 0080 CDE90001 		strd	r0, [sp]
 447 0084 4246     		mov	r2, r8
 448 0086 4B46     		mov	r3, r9
 449 0088 2946     		mov	r1, r5
 450 008a 8148     		ldr	r0, .L30+16
 451 008c FFF7FEFF 		bl	printf
 452              	.LVL33:
  89:User/Peripherals/sht_sensor.c ****             break;
 453              		.loc 1 89 13 view .LVU90
 454              	.L15:
  90:User/Peripherals/sht_sensor.c ****         case TEMP_Y2_REG:
  91:User/Peripherals/sht_sensor.c ****             sht_list[_id].temp.point.Y2 = value / 10.0;
  92:User/Peripherals/sht_sensor.c ****             sht_list[_id].temp.point.X2 = sht_list[_id].temp.raw / 10.0;
  93:User/Peripherals/sht_sensor.c ****             printf("ss_%d | Y2 = %2.2f, X2 = %2.2f\n", _id, sht_list[_id].temp.point.Y2, sht_list[_
  94:User/Peripherals/sht_sensor.c **** 
  95:User/Peripherals/sht_sensor.c ****             break;
  96:User/Peripherals/sht_sensor.c **** 
  97:User/Peripherals/sht_sensor.c ****         case HUMI_Y1_REG:
  98:User/Peripherals/sht_sensor.c ****             sht_list[_id].humi.point.Y1 = value / 10.0;
  99:User/Peripherals/sht_sensor.c ****             sht_list[_id].humi.point.X1 = sht_list[_id].humi.raw / 10.0;
 100:User/Peripherals/sht_sensor.c ****             printf("ss_%d | Y2 = %2.2f, X2 = %2.2f\n", _id, sht_list[_id].humi.point.Y1, sht_list[_
 101:User/Peripherals/sht_sensor.c **** 
 102:User/Peripherals/sht_sensor.c ****             break;
 103:User/Peripherals/sht_sensor.c ****         case HUMI_Y2_REG:
 104:User/Peripherals/sht_sensor.c ****             sht_list[_id].humi.point.Y2 = value / 10.0;
 105:User/Peripherals/sht_sensor.c ****             sht_list[_id].humi.point.X2 = sht_list[_id].humi.raw / 10.0;
 106:User/Peripherals/sht_sensor.c ****             printf("ss_%d | Y2 = %2.2f, X2 = %2.2f\n", _id, sht_list[_id].humi.point.Y2, sht_list[_
 107:User/Peripherals/sht_sensor.c **** 
 108:User/Peripherals/sht_sensor.c ****             break;
 109:User/Peripherals/sht_sensor.c **** 
 110:User/Peripherals/sht_sensor.c ****         case ACTION_CALIB_REG:
 111:User/Peripherals/sht_sensor.c ****             // Thu thi hieu chuan, Tim a , b
 112:User/Peripherals/sht_sensor.c ****             if (value == 1)
 113:User/Peripherals/sht_sensor.c ****             {
 114:User/Peripherals/sht_sensor.c ****                 sht_list[_id].temp.a_user = (sht_list[_id].temp.point.Y2 - sht_list[_id].temp.point
 115:User/Peripherals/sht_sensor.c ****                                             (sht_list[_id].temp.point.X2 - sht_list[_id].temp.point
 116:User/Peripherals/sht_sensor.c ****                 sht_list[_id].temp.b_user = sht_list[_id].temp.point.Y1 - (sht_list[_id].temp.a_use
 117:User/Peripherals/sht_sensor.c **** 
 118:User/Peripherals/sht_sensor.c ****                 sys_cfg.calib_Ta[_id] = sht_list[_id].temp.a_user;
 119:User/Peripherals/sht_sensor.c ****                 sys_cfg.calib_Tb[_id] = sht_list[_id].temp.b_user;
ARM GAS  /tmp/cc9GgjmC.s 			page 12


 120:User/Peripherals/sht_sensor.c ****                 CFG_Save();
 121:User/Peripherals/sht_sensor.c **** 
 122:User/Peripherals/sht_sensor.c ****                 printf("Sensor: %d Ta: %2.2f | Tb: %2.2f\n", _id, sht_list[_id].temp.a_user, sht_li
 123:User/Peripherals/sht_sensor.c ****             }
 124:User/Peripherals/sht_sensor.c ****             else if (value == 2)
 125:User/Peripherals/sht_sensor.c ****             {
 126:User/Peripherals/sht_sensor.c ****                 sht_list[_id].humi.a_user = (float)(sht_list[_id].humi.point.Y2 - sht_list[_id].hum
 127:User/Peripherals/sht_sensor.c ****                                             (sht_list[_id].humi.point.X2 - sht_list[_id].humi.point
 128:User/Peripherals/sht_sensor.c ****                 sht_list[_id].humi.b_user = (float)sht_list[_id].humi.point.Y1 - (sht_list[_id].hum
 129:User/Peripherals/sht_sensor.c **** 
 130:User/Peripherals/sht_sensor.c ****                 sys_cfg.calib_Ha[_id] = sht_list[_id].humi.a_user;
 131:User/Peripherals/sht_sensor.c ****                 sys_cfg.calib_Hb[_id] = sht_list[_id].humi.b_user;
 132:User/Peripherals/sht_sensor.c ****                 CFG_Save();
 133:User/Peripherals/sht_sensor.c **** 
 134:User/Peripherals/sht_sensor.c ****                 printf("Sensor: %d Ha: %2.2f | Hb: %2.2f\n", _id, sys_cfg.calib_Ha[_id], sys_cfg.ca
 135:User/Peripherals/sht_sensor.c **** 
 136:User/Peripherals/sht_sensor.c ****             }
 137:User/Peripherals/sht_sensor.c ****             else if (value == 3)
 138:User/Peripherals/sht_sensor.c ****             {
 139:User/Peripherals/sht_sensor.c ****                 sys_cfg.calib_Ta[_id] = sht_list[_id].temp.a_user = 1.0;
 140:User/Peripherals/sht_sensor.c ****                 sys_cfg.calib_Tb[_id] = sht_list[_id].temp.b_user = 0.0;
 141:User/Peripherals/sht_sensor.c ****                 CFG_Save();
 142:User/Peripherals/sht_sensor.c ****                 printf("Sensor: %d Ta: %2.2f | Tb: %2.2f\n", _id, sys_cfg.calib_Ta[_id], sys_cfg.ca
 143:User/Peripherals/sht_sensor.c ****                 
 144:User/Peripherals/sht_sensor.c ****             }
 145:User/Peripherals/sht_sensor.c ****             else if (value == 4)
 146:User/Peripherals/sht_sensor.c ****             {
 147:User/Peripherals/sht_sensor.c ****                 sys_cfg.calib_Ha[_id] = sht_list[_id].humi.a_user = 1.0;
 148:User/Peripherals/sht_sensor.c ****                 sys_cfg.calib_Hb[_id] = sht_list[_id].humi.b_user = 0.0;
 149:User/Peripherals/sht_sensor.c ****                 CFG_Save();
 150:User/Peripherals/sht_sensor.c ****                 printf("Sensor: %d Ha: %2.2f | Hb: %2.2f\n", _id, sys_cfg.calib_Ha[_id], sys_cfg.ca
 151:User/Peripherals/sht_sensor.c **** 
 152:User/Peripherals/sht_sensor.c ****             }
 153:User/Peripherals/sht_sensor.c ****             break;
 154:User/Peripherals/sht_sensor.c ****         default:
 155:User/Peripherals/sht_sensor.c ****             break;
 156:User/Peripherals/sht_sensor.c ****     }
 157:User/Peripherals/sht_sensor.c **** }
 455              		.loc 1 157 1 is_stmt 0 view .LVU91
 456 0090 03B0     		add	sp, sp, #12
 457              	.LCFI6:
 458              		.cfi_remember_state
 459              		.cfi_def_cfa_offset 28
 460              		@ sp needed
 461 0092 BDE8F083 		pop	{r4, r5, r6, r7, r8, r9, pc}
 462              	.LVL34:
 463              	.L21:
 464              	.LCFI7:
 465              		.cfi_restore_state
  91:User/Peripherals/sht_sensor.c ****             sht_list[_id].temp.point.X2 = sht_list[_id].temp.raw / 10.0;
 466              		.loc 1 91 13 is_stmt 1 view .LVU92
  91:User/Peripherals/sht_sensor.c ****             sht_list[_id].temp.point.X2 = sht_list[_id].temp.raw / 10.0;
 467              		.loc 1 91 49 is_stmt 0 view .LVU93
 468 0096 3046     		mov	r0, r6
 469 0098 FFF7FEFF 		bl	__aeabi_i2d
 470              	.LVL35:
 471 009c 0022     		movs	r2, #0
ARM GAS  /tmp/cc9GgjmC.s 			page 13


 472 009e 7A4B     		ldr	r3, .L30+8
 473 00a0 FFF7FEFF 		bl	__aeabi_ddiv
 474              	.LVL36:
 475 00a4 FFF7FEFF 		bl	__aeabi_d2f
 476              	.LVL37:
 477 00a8 0746     		mov	r7, r0
  91:User/Peripherals/sht_sensor.c ****             sht_list[_id].temp.point.X2 = sht_list[_id].temp.raw / 10.0;
 478              		.loc 1 91 41 view .LVU94
 479 00aa C5EB0513 		rsb	r3, r5, r5, lsl #4
 480 00ae 774C     		ldr	r4, .L30+12
 481              	.LVL38:
  91:User/Peripherals/sht_sensor.c ****             sht_list[_id].temp.point.X2 = sht_list[_id].temp.raw / 10.0;
 482              		.loc 1 91 41 view .LVU95
 483 00b0 04EB8304 		add	r4, r4, r3, lsl #2
 484 00b4 E061     		str	r0, [r4, #28]	@ float
  92:User/Peripherals/sht_sensor.c ****             printf("ss_%d | Y2 = %2.2f, X2 = %2.2f\n", _id, sht_list[_id].temp.point.Y2, sht_list[_
 485              		.loc 1 92 13 is_stmt 1 view .LVU96
  92:User/Peripherals/sht_sensor.c ****             printf("ss_%d | Y2 = %2.2f, X2 = %2.2f\n", _id, sht_list[_id].temp.point.Y2, sht_list[_
 486              		.loc 1 92 66 is_stmt 0 view .LVU97
 487 00b6 A088     		ldrh	r0, [r4, #4]
 488 00b8 FFF7FEFF 		bl	__aeabi_i2d
 489              	.LVL39:
 490 00bc 0022     		movs	r2, #0
 491 00be 724B     		ldr	r3, .L30+8
 492 00c0 FFF7FEFF 		bl	__aeabi_ddiv
 493              	.LVL40:
 494 00c4 FFF7FEFF 		bl	__aeabi_d2f
 495              	.LVL41:
 496 00c8 0646     		mov	r6, r0
  92:User/Peripherals/sht_sensor.c ****             printf("ss_%d | Y2 = %2.2f, X2 = %2.2f\n", _id, sht_list[_id].temp.point.Y2, sht_list[_
 497              		.loc 1 92 41 view .LVU98
 498 00ca A061     		str	r0, [r4, #24]	@ float
  93:User/Peripherals/sht_sensor.c **** 
 499              		.loc 1 93 13 is_stmt 1 view .LVU99
 500 00cc 3846     		mov	r0, r7
 501 00ce FFF7FEFF 		bl	__aeabi_f2d
 502              	.LVL42:
 503 00d2 8046     		mov	r8, r0
 504 00d4 8946     		mov	r9, r1
 505 00d6 3046     		mov	r0, r6
 506 00d8 FFF7FEFF 		bl	__aeabi_f2d
 507              	.LVL43:
 508 00dc CDE90001 		strd	r0, [sp]
 509 00e0 4246     		mov	r2, r8
 510 00e2 4B46     		mov	r3, r9
 511 00e4 2946     		mov	r1, r5
 512 00e6 6B48     		ldr	r0, .L30+20
 513 00e8 FFF7FEFF 		bl	printf
 514              	.LVL44:
  95:User/Peripherals/sht_sensor.c **** 
 515              		.loc 1 95 13 view .LVU100
 516 00ec D0E7     		b	.L15
 517              	.LVL45:
 518              	.L20:
  98:User/Peripherals/sht_sensor.c ****             sht_list[_id].humi.point.X1 = sht_list[_id].humi.raw / 10.0;
 519              		.loc 1 98 13 view .LVU101
  98:User/Peripherals/sht_sensor.c ****             sht_list[_id].humi.point.X1 = sht_list[_id].humi.raw / 10.0;
ARM GAS  /tmp/cc9GgjmC.s 			page 14


 520              		.loc 1 98 49 is_stmt 0 view .LVU102
 521 00ee 3046     		mov	r0, r6
 522 00f0 FFF7FEFF 		bl	__aeabi_i2d
 523              	.LVL46:
 524 00f4 0022     		movs	r2, #0
 525 00f6 644B     		ldr	r3, .L30+8
 526 00f8 FFF7FEFF 		bl	__aeabi_ddiv
 527              	.LVL47:
 528 00fc FFF7FEFF 		bl	__aeabi_d2f
 529              	.LVL48:
 530 0100 0746     		mov	r7, r0
  98:User/Peripherals/sht_sensor.c ****             sht_list[_id].humi.point.X1 = sht_list[_id].humi.raw / 10.0;
 531              		.loc 1 98 41 view .LVU103
 532 0102 C5EB0513 		rsb	r3, r5, r5, lsl #4
 533 0106 614C     		ldr	r4, .L30+12
 534              	.LVL49:
  98:User/Peripherals/sht_sensor.c ****             sht_list[_id].humi.point.X1 = sht_list[_id].humi.raw / 10.0;
 535              		.loc 1 98 41 view .LVU104
 536 0108 04EB8304 		add	r4, r4, r3, lsl #2
 537 010c 2063     		str	r0, [r4, #48]	@ float
  99:User/Peripherals/sht_sensor.c ****             printf("ss_%d | Y2 = %2.2f, X2 = %2.2f\n", _id, sht_list[_id].humi.point.Y1, sht_list[_
 538              		.loc 1 99 13 is_stmt 1 view .LVU105
  99:User/Peripherals/sht_sensor.c ****             printf("ss_%d | Y2 = %2.2f, X2 = %2.2f\n", _id, sht_list[_id].humi.point.Y1, sht_list[_
 539              		.loc 1 99 66 is_stmt 0 view .LVU106
 540 010e 208C     		ldrh	r0, [r4, #32]
 541 0110 FFF7FEFF 		bl	__aeabi_i2d
 542              	.LVL50:
 543 0114 0022     		movs	r2, #0
 544 0116 5C4B     		ldr	r3, .L30+8
 545 0118 FFF7FEFF 		bl	__aeabi_ddiv
 546              	.LVL51:
 547 011c FFF7FEFF 		bl	__aeabi_d2f
 548              	.LVL52:
 549 0120 0646     		mov	r6, r0
  99:User/Peripherals/sht_sensor.c ****             printf("ss_%d | Y2 = %2.2f, X2 = %2.2f\n", _id, sht_list[_id].humi.point.Y1, sht_list[_
 550              		.loc 1 99 41 view .LVU107
 551 0122 E062     		str	r0, [r4, #44]	@ float
 100:User/Peripherals/sht_sensor.c **** 
 552              		.loc 1 100 13 is_stmt 1 view .LVU108
 553 0124 3846     		mov	r0, r7
 554 0126 FFF7FEFF 		bl	__aeabi_f2d
 555              	.LVL53:
 556 012a 8046     		mov	r8, r0
 557 012c 8946     		mov	r9, r1
 558 012e 3046     		mov	r0, r6
 559 0130 FFF7FEFF 		bl	__aeabi_f2d
 560              	.LVL54:
 561 0134 CDE90001 		strd	r0, [sp]
 562 0138 4246     		mov	r2, r8
 563 013a 4B46     		mov	r3, r9
 564 013c 2946     		mov	r1, r5
 565 013e 5548     		ldr	r0, .L30+20
 566 0140 FFF7FEFF 		bl	printf
 567              	.LVL55:
 102:User/Peripherals/sht_sensor.c ****         case HUMI_Y2_REG:
 568              		.loc 1 102 13 view .LVU109
 569 0144 A4E7     		b	.L15
ARM GAS  /tmp/cc9GgjmC.s 			page 15


 570              	.LVL56:
 571              	.L19:
 104:User/Peripherals/sht_sensor.c ****             sht_list[_id].humi.point.X2 = sht_list[_id].humi.raw / 10.0;
 572              		.loc 1 104 13 view .LVU110
 104:User/Peripherals/sht_sensor.c ****             sht_list[_id].humi.point.X2 = sht_list[_id].humi.raw / 10.0;
 573              		.loc 1 104 49 is_stmt 0 view .LVU111
 574 0146 3046     		mov	r0, r6
 575 0148 FFF7FEFF 		bl	__aeabi_i2d
 576              	.LVL57:
 577 014c 0022     		movs	r2, #0
 578 014e 4E4B     		ldr	r3, .L30+8
 579 0150 FFF7FEFF 		bl	__aeabi_ddiv
 580              	.LVL58:
 581 0154 FFF7FEFF 		bl	__aeabi_d2f
 582              	.LVL59:
 583 0158 0746     		mov	r7, r0
 104:User/Peripherals/sht_sensor.c ****             sht_list[_id].humi.point.X2 = sht_list[_id].humi.raw / 10.0;
 584              		.loc 1 104 41 view .LVU112
 585 015a C5EB0513 		rsb	r3, r5, r5, lsl #4
 586 015e 4B4C     		ldr	r4, .L30+12
 587              	.LVL60:
 104:User/Peripherals/sht_sensor.c ****             sht_list[_id].humi.point.X2 = sht_list[_id].humi.raw / 10.0;
 588              		.loc 1 104 41 view .LVU113
 589 0160 04EB8304 		add	r4, r4, r3, lsl #2
 590 0164 A063     		str	r0, [r4, #56]	@ float
 105:User/Peripherals/sht_sensor.c ****             printf("ss_%d | Y2 = %2.2f, X2 = %2.2f\n", _id, sht_list[_id].humi.point.Y2, sht_list[_
 591              		.loc 1 105 13 is_stmt 1 view .LVU114
 105:User/Peripherals/sht_sensor.c ****             printf("ss_%d | Y2 = %2.2f, X2 = %2.2f\n", _id, sht_list[_id].humi.point.Y2, sht_list[_
 592              		.loc 1 105 66 is_stmt 0 view .LVU115
 593 0166 208C     		ldrh	r0, [r4, #32]
 594 0168 FFF7FEFF 		bl	__aeabi_i2d
 595              	.LVL61:
 596 016c 0022     		movs	r2, #0
 597 016e 464B     		ldr	r3, .L30+8
 598 0170 FFF7FEFF 		bl	__aeabi_ddiv
 599              	.LVL62:
 600 0174 FFF7FEFF 		bl	__aeabi_d2f
 601              	.LVL63:
 602 0178 0646     		mov	r6, r0
 105:User/Peripherals/sht_sensor.c ****             printf("ss_%d | Y2 = %2.2f, X2 = %2.2f\n", _id, sht_list[_id].humi.point.Y2, sht_list[_
 603              		.loc 1 105 41 view .LVU116
 604 017a 6063     		str	r0, [r4, #52]	@ float
 106:User/Peripherals/sht_sensor.c **** 
 605              		.loc 1 106 13 is_stmt 1 view .LVU117
 606 017c 3846     		mov	r0, r7
 607 017e FFF7FEFF 		bl	__aeabi_f2d
 608              	.LVL64:
 609 0182 8046     		mov	r8, r0
 610 0184 8946     		mov	r9, r1
 611 0186 3046     		mov	r0, r6
 612 0188 FFF7FEFF 		bl	__aeabi_f2d
 613              	.LVL65:
 614 018c CDE90001 		strd	r0, [sp]
 615 0190 4246     		mov	r2, r8
 616 0192 4B46     		mov	r3, r9
 617 0194 2946     		mov	r1, r5
 618 0196 3F48     		ldr	r0, .L30+20
ARM GAS  /tmp/cc9GgjmC.s 			page 16


 619 0198 FFF7FEFF 		bl	printf
 620              	.LVL66:
 108:User/Peripherals/sht_sensor.c **** 
 621              		.loc 1 108 13 view .LVU118
 622 019c 78E7     		b	.L15
 623              	.LVL67:
 624              	.L17:
 112:User/Peripherals/sht_sensor.c ****             {
 625              		.loc 1 112 13 view .LVU119
 112:User/Peripherals/sht_sensor.c ****             {
 626              		.loc 1 112 16 is_stmt 0 view .LVU120
 627 019e 012E     		cmp	r6, #1
 628 01a0 30D0     		beq	.L27
 124:User/Peripherals/sht_sensor.c ****             {
 629              		.loc 1 124 18 is_stmt 1 view .LVU121
 124:User/Peripherals/sht_sensor.c ****             {
 630              		.loc 1 124 21 is_stmt 0 view .LVU122
 631 01a2 022E     		cmp	r6, #2
 632 01a4 7ED0     		beq	.L28
 137:User/Peripherals/sht_sensor.c ****             {
 633              		.loc 1 137 18 is_stmt 1 view .LVU123
 137:User/Peripherals/sht_sensor.c ****             {
 634              		.loc 1 137 21 is_stmt 0 view .LVU124
 635 01a6 032E     		cmp	r6, #3
 636 01a8 00F0BB80 		beq	.L29
 145:User/Peripherals/sht_sensor.c ****             {
 637              		.loc 1 145 18 is_stmt 1 view .LVU125
 145:User/Peripherals/sht_sensor.c ****             {
 638              		.loc 1 145 21 is_stmt 0 view .LVU126
 639 01ac 042E     		cmp	r6, #4
 640 01ae 7FF46FAF 		bne	.L15
 147:User/Peripherals/sht_sensor.c ****                 sys_cfg.calib_Hb[_id] = sht_list[_id].humi.b_user = 0.0;
 641              		.loc 1 147 17 is_stmt 1 view .LVU127
 147:User/Peripherals/sht_sensor.c ****                 sys_cfg.calib_Hb[_id] = sht_list[_id].humi.b_user = 0.0;
 642              		.loc 1 147 67 is_stmt 0 view .LVU128
 643 01b2 C5EB0512 		rsb	r2, r5, r5, lsl #4
 644 01b6 354B     		ldr	r3, .L30+12
 645 01b8 03EB8203 		add	r3, r3, r2, lsl #2
 646 01bc 4FF07E52 		mov	r2, #1065353216
 647 01c0 5A62     		str	r2, [r3, #36]	@ float
 147:User/Peripherals/sht_sensor.c ****                 sys_cfg.calib_Hb[_id] = sht_list[_id].humi.b_user = 0.0;
 648              		.loc 1 147 39 view .LVU129
 649 01c2 354C     		ldr	r4, .L30+24
 650              	.LVL68:
 147:User/Peripherals/sht_sensor.c ****                 sys_cfg.calib_Hb[_id] = sht_list[_id].humi.b_user = 0.0;
 651              		.loc 1 147 39 view .LVU130
 652 01c4 05F11406 		add	r6, r5, #20
 653 01c8 04EB8606 		add	r6, r4, r6, lsl #2
 654 01cc 7260     		str	r2, [r6, #4]	@ float
 148:User/Peripherals/sht_sensor.c ****                 CFG_Save();
 655              		.loc 1 148 17 is_stmt 1 view .LVU131
 148:User/Peripherals/sht_sensor.c ****                 CFG_Save();
 656              		.loc 1 148 67 is_stmt 0 view .LVU132
 657 01ce 0022     		movs	r2, #0
 658 01d0 9A62     		str	r2, [r3, #40]	@ float
 148:User/Peripherals/sht_sensor.c ****                 CFG_Save();
 659              		.loc 1 148 39 view .LVU133
ARM GAS  /tmp/cc9GgjmC.s 			page 17


 660 01d2 05F11E03 		add	r3, r5, #30
 661 01d6 04EB8304 		add	r4, r4, r3, lsl #2
 662 01da 6260     		str	r2, [r4, #4]	@ float
 149:User/Peripherals/sht_sensor.c ****                 printf("Sensor: %d Ha: %2.2f | Hb: %2.2f\n", _id, sys_cfg.calib_Ha[_id], sys_cfg.ca
 663              		.loc 1 149 17 is_stmt 1 view .LVU134
 664 01dc FFF7FEFF 		bl	CFG_Save
 665              	.LVL69:
 150:User/Peripherals/sht_sensor.c **** 
 666              		.loc 1 150 17 view .LVU135
 150:User/Peripherals/sht_sensor.c **** 
 667              		.loc 1 150 106 is_stmt 0 view .LVU136
 668 01e0 6468     		ldr	r4, [r4, #4]	@ float
 150:User/Peripherals/sht_sensor.c **** 
 669              		.loc 1 150 17 view .LVU137
 670 01e2 7068     		ldr	r0, [r6, #4]	@ float
 671 01e4 FFF7FEFF 		bl	__aeabi_f2d
 672              	.LVL70:
 673 01e8 0646     		mov	r6, r0
 674 01ea 0F46     		mov	r7, r1
 675 01ec 2046     		mov	r0, r4
 676 01ee FFF7FEFF 		bl	__aeabi_f2d
 677              	.LVL71:
 678 01f2 CDE90001 		strd	r0, [sp]
 679 01f6 3246     		mov	r2, r6
 680 01f8 3B46     		mov	r3, r7
 681 01fa 2946     		mov	r1, r5
 682 01fc 2748     		ldr	r0, .L30+28
 683 01fe FFF7FEFF 		bl	printf
 684              	.LVL72:
 685              		.loc 1 157 1 view .LVU138
 686 0202 45E7     		b	.L15
 687              	.LVL73:
 688              	.L27:
 114:User/Peripherals/sht_sensor.c ****                                             (sht_list[_id].temp.point.X2 - sht_list[_id].temp.point
 689              		.loc 1 114 17 is_stmt 1 view .LVU139
 114:User/Peripherals/sht_sensor.c ****                                             (sht_list[_id].temp.point.X2 - sht_list[_id].temp.point
 690              		.loc 1 114 70 is_stmt 0 view .LVU140
 691 0204 C5EB0513 		rsb	r3, r5, r5, lsl #4
 692 0208 204C     		ldr	r4, .L30+12
 693              	.LVL74:
 114:User/Peripherals/sht_sensor.c ****                                             (sht_list[_id].temp.point.X2 - sht_list[_id].temp.point
 694              		.loc 1 114 70 view .LVU141
 695 020a 04EB8304 		add	r4, r4, r3, lsl #2
 114:User/Peripherals/sht_sensor.c ****                                             (sht_list[_id].temp.point.X2 - sht_list[_id].temp.point
 696              		.loc 1 114 100 view .LVU142
 697 020e 6769     		ldr	r7, [r4, #20]	@ float
 114:User/Peripherals/sht_sensor.c ****                                             (sht_list[_id].temp.point.X2 - sht_list[_id].temp.point
 698              		.loc 1 114 74 view .LVU143
 699 0210 3946     		mov	r1, r7
 700 0212 E069     		ldr	r0, [r4, #28]	@ float
 701 0214 FFF7FEFF 		bl	__aeabi_fsub
 702              	.LVL75:
 703 0218 0646     		mov	r6, r0
 115:User/Peripherals/sht_sensor.c ****                 sht_list[_id].temp.b_user = sht_list[_id].temp.point.Y1 - (sht_list[_id].temp.a_use
 704              		.loc 1 115 100 view .LVU144
 705 021a D4F81080 		ldr	r8, [r4, #16]	@ float
 115:User/Peripherals/sht_sensor.c ****                 sht_list[_id].temp.b_user = sht_list[_id].temp.point.Y1 - (sht_list[_id].temp.a_use
ARM GAS  /tmp/cc9GgjmC.s 			page 18


 706              		.loc 1 115 74 view .LVU145
 707 021e 4146     		mov	r1, r8
 708 0220 A069     		ldr	r0, [r4, #24]	@ float
 709 0222 FFF7FEFF 		bl	__aeabi_fsub
 710              	.LVL76:
 711 0226 0146     		mov	r1, r0
 114:User/Peripherals/sht_sensor.c ****                                             (sht_list[_id].temp.point.X2 - sht_list[_id].temp.point
 712              		.loc 1 114 105 view .LVU146
 713 0228 3046     		mov	r0, r6
 714 022a FFF7FEFF 		bl	__aeabi_fdiv
 715              	.LVL77:
 716 022e 0646     		mov	r6, r0
 114:User/Peripherals/sht_sensor.c ****                                             (sht_list[_id].temp.point.X2 - sht_list[_id].temp.point
 717              		.loc 1 114 43 view .LVU147
 718 0230 A060     		str	r0, [r4, #8]	@ float
 116:User/Peripherals/sht_sensor.c **** 
 719              		.loc 1 116 17 is_stmt 1 view .LVU148
 116:User/Peripherals/sht_sensor.c **** 
 720              		.loc 1 116 103 is_stmt 0 view .LVU149
 721 0232 0146     		mov	r1, r0
 722 0234 4046     		mov	r0, r8
 723 0236 FFF7FEFF 		bl	__aeabi_fmul
 724              	.LVL78:
 725 023a 0146     		mov	r1, r0
 116:User/Peripherals/sht_sensor.c **** 
 726              		.loc 1 116 73 view .LVU150
 727 023c 3846     		mov	r0, r7
 728 023e FFF7FEFF 		bl	__aeabi_fsub
 729              	.LVL79:
 116:User/Peripherals/sht_sensor.c **** 
 730              		.loc 1 116 43 view .LVU151
 731 0242 E060     		str	r0, [r4, #12]	@ float
 118:User/Peripherals/sht_sensor.c ****                 sys_cfg.calib_Tb[_id] = sht_list[_id].temp.b_user;
 732              		.loc 1 118 17 is_stmt 1 view .LVU152
 118:User/Peripherals/sht_sensor.c ****                 sys_cfg.calib_Tb[_id] = sht_list[_id].temp.b_user;
 733              		.loc 1 118 39 is_stmt 0 view .LVU153
 734 0244 144B     		ldr	r3, .L30+24
 735 0246 03EB8502 		add	r2, r3, r5, lsl #2
 736 024a 5660     		str	r6, [r2, #4]	@ float
 119:User/Peripherals/sht_sensor.c ****                 CFG_Save();
 737              		.loc 1 119 17 is_stmt 1 view .LVU154
 119:User/Peripherals/sht_sensor.c ****                 CFG_Save();
 738              		.loc 1 119 39 is_stmt 0 view .LVU155
 739 024c 05F10A02 		add	r2, r5, #10
 740 0250 03EB8203 		add	r3, r3, r2, lsl #2
 741 0254 5860     		str	r0, [r3, #4]	@ float
 120:User/Peripherals/sht_sensor.c **** 
 742              		.loc 1 120 17 is_stmt 1 view .LVU156
 743 0256 FFF7FEFF 		bl	CFG_Save
 744              	.LVL80:
 122:User/Peripherals/sht_sensor.c ****             }
 745              		.loc 1 122 17 view .LVU157
 122:User/Peripherals/sht_sensor.c ****             }
 746              		.loc 1 122 112 is_stmt 0 view .LVU158
 747 025a D4F80C80 		ldr	r8, [r4, #12]	@ float
 122:User/Peripherals/sht_sensor.c ****             }
 748              		.loc 1 122 17 view .LVU159
ARM GAS  /tmp/cc9GgjmC.s 			page 19


 749 025e A068     		ldr	r0, [r4, #8]	@ float
 750 0260 FFF7FEFF 		bl	__aeabi_f2d
 751              	.LVL81:
 752 0264 0646     		mov	r6, r0
 753 0266 0F46     		mov	r7, r1
 754 0268 4046     		mov	r0, r8
 755 026a FFF7FEFF 		bl	__aeabi_f2d
 756              	.LVL82:
 757 026e CDE90001 		strd	r0, [sp]
 758 0272 3246     		mov	r2, r6
 759 0274 3B46     		mov	r3, r7
 760 0276 2946     		mov	r1, r5
 761 0278 0948     		ldr	r0, .L30+32
 762 027a FFF7FEFF 		bl	printf
 763              	.LVL83:
 764 027e 07E7     		b	.L15
 765              	.L31:
 766              		.align	2
 767              	.L30:
 768 0280 CDCCCCCC 		.word	-858993459
 769 0284 00000000 		.word	.LC2
 770 0288 00002440 		.word	1076101120
 771 028c 00000000 		.word	.LANCHOR0
 772 0290 24000000 		.word	.LC3
 773 0294 44000000 		.word	.LC4
 774 0298 00000000 		.word	sys_cfg
 775 029c 88000000 		.word	.LC6
 776 02a0 64000000 		.word	.LC5
 777              	.LVL84:
 778              	.L28:
 126:User/Peripherals/sht_sensor.c ****                                             (sht_list[_id].humi.point.X2 - sht_list[_id].humi.point
 779              		.loc 1 126 17 is_stmt 1 view .LVU160
 126:User/Peripherals/sht_sensor.c ****                                             (sht_list[_id].humi.point.X2 - sht_list[_id].humi.point
 780              		.loc 1 126 77 is_stmt 0 view .LVU161
 781 02a4 C5EB0513 		rsb	r3, r5, r5, lsl #4
 782 02a8 314C     		ldr	r4, .L32
 783              	.LVL85:
 126:User/Peripherals/sht_sensor.c ****                                             (sht_list[_id].humi.point.X2 - sht_list[_id].humi.point
 784              		.loc 1 126 77 view .LVU162
 785 02aa 04EB8304 		add	r4, r4, r3, lsl #2
 126:User/Peripherals/sht_sensor.c ****                                             (sht_list[_id].humi.point.X2 - sht_list[_id].humi.point
 786              		.loc 1 126 107 view .LVU163
 787 02ae 276B     		ldr	r7, [r4, #48]	@ float
 126:User/Peripherals/sht_sensor.c ****                                             (sht_list[_id].humi.point.X2 - sht_list[_id].humi.point
 788              		.loc 1 126 45 view .LVU164
 789 02b0 3946     		mov	r1, r7
 790 02b2 A06B     		ldr	r0, [r4, #56]	@ float
 791 02b4 FFF7FEFF 		bl	__aeabi_fsub
 792              	.LVL86:
 793 02b8 0646     		mov	r6, r0
 127:User/Peripherals/sht_sensor.c ****                 sht_list[_id].humi.b_user = (float)sht_list[_id].humi.point.Y1 - (sht_list[_id].hum
 794              		.loc 1 127 100 view .LVU165
 795 02ba D4F82C80 		ldr	r8, [r4, #44]	@ float
 127:User/Peripherals/sht_sensor.c ****                 sht_list[_id].humi.b_user = (float)sht_list[_id].humi.point.Y1 - (sht_list[_id].hum
 796              		.loc 1 127 74 view .LVU166
 797 02be 4146     		mov	r1, r8
 798 02c0 606B     		ldr	r0, [r4, #52]	@ float
ARM GAS  /tmp/cc9GgjmC.s 			page 20


 799 02c2 FFF7FEFF 		bl	__aeabi_fsub
 800              	.LVL87:
 801 02c6 0146     		mov	r1, r0
 126:User/Peripherals/sht_sensor.c ****                                             (sht_list[_id].humi.point.X2 - sht_list[_id].humi.point
 802              		.loc 1 126 112 view .LVU167
 803 02c8 3046     		mov	r0, r6
 804 02ca FFF7FEFF 		bl	__aeabi_fdiv
 805              	.LVL88:
 806 02ce 0646     		mov	r6, r0
 126:User/Peripherals/sht_sensor.c ****                                             (sht_list[_id].humi.point.X2 - sht_list[_id].humi.point
 807              		.loc 1 126 43 view .LVU168
 808 02d0 6062     		str	r0, [r4, #36]	@ float
 128:User/Peripherals/sht_sensor.c **** 
 809              		.loc 1 128 17 is_stmt 1 view .LVU169
 128:User/Peripherals/sht_sensor.c **** 
 810              		.loc 1 128 108 is_stmt 0 view .LVU170
 811 02d2 0146     		mov	r1, r0
 812 02d4 4046     		mov	r0, r8
 813 02d6 FFF7FEFF 		bl	__aeabi_fmul
 814              	.LVL89:
 815 02da 0146     		mov	r1, r0
 128:User/Peripherals/sht_sensor.c **** 
 816              		.loc 1 128 80 view .LVU171
 817 02dc 3846     		mov	r0, r7
 818 02de FFF7FEFF 		bl	__aeabi_fsub
 819              	.LVL90:
 128:User/Peripherals/sht_sensor.c **** 
 820              		.loc 1 128 43 view .LVU172
 821 02e2 A062     		str	r0, [r4, #40]	@ float
 130:User/Peripherals/sht_sensor.c ****                 sys_cfg.calib_Hb[_id] = sht_list[_id].humi.b_user;
 822              		.loc 1 130 17 is_stmt 1 view .LVU173
 130:User/Peripherals/sht_sensor.c ****                 sys_cfg.calib_Hb[_id] = sht_list[_id].humi.b_user;
 823              		.loc 1 130 39 is_stmt 0 view .LVU174
 824 02e4 234C     		ldr	r4, .L32+4
 825 02e6 05F11407 		add	r7, r5, #20
 826 02ea 04EB8707 		add	r7, r4, r7, lsl #2
 827 02ee 7E60     		str	r6, [r7, #4]	@ float
 131:User/Peripherals/sht_sensor.c ****                 CFG_Save();
 828              		.loc 1 131 17 is_stmt 1 view .LVU175
 131:User/Peripherals/sht_sensor.c ****                 CFG_Save();
 829              		.loc 1 131 39 is_stmt 0 view .LVU176
 830 02f0 05F11E03 		add	r3, r5, #30
 831 02f4 04EB8304 		add	r4, r4, r3, lsl #2
 832 02f8 6060     		str	r0, [r4, #4]	@ float
 132:User/Peripherals/sht_sensor.c **** 
 833              		.loc 1 132 17 is_stmt 1 view .LVU177
 834 02fa FFF7FEFF 		bl	CFG_Save
 835              	.LVL91:
 134:User/Peripherals/sht_sensor.c **** 
 836              		.loc 1 134 17 view .LVU178
 134:User/Peripherals/sht_sensor.c **** 
 837              		.loc 1 134 106 is_stmt 0 view .LVU179
 838 02fe 6468     		ldr	r4, [r4, #4]	@ float
 134:User/Peripherals/sht_sensor.c **** 
 839              		.loc 1 134 17 view .LVU180
 840 0300 7868     		ldr	r0, [r7, #4]	@ float
 841 0302 FFF7FEFF 		bl	__aeabi_f2d
ARM GAS  /tmp/cc9GgjmC.s 			page 21


 842              	.LVL92:
 843 0306 0646     		mov	r6, r0
 844 0308 0F46     		mov	r7, r1
 845 030a 2046     		mov	r0, r4
 846 030c FFF7FEFF 		bl	__aeabi_f2d
 847              	.LVL93:
 848 0310 CDE90001 		strd	r0, [sp]
 849 0314 3246     		mov	r2, r6
 850 0316 3B46     		mov	r3, r7
 851 0318 2946     		mov	r1, r5
 852 031a 1748     		ldr	r0, .L32+8
 853 031c FFF7FEFF 		bl	printf
 854              	.LVL94:
 855 0320 B6E6     		b	.L15
 856              	.LVL95:
 857              	.L29:
 139:User/Peripherals/sht_sensor.c ****                 sys_cfg.calib_Tb[_id] = sht_list[_id].temp.b_user = 0.0;
 858              		.loc 1 139 17 is_stmt 1 view .LVU181
 139:User/Peripherals/sht_sensor.c ****                 sys_cfg.calib_Tb[_id] = sht_list[_id].temp.b_user = 0.0;
 859              		.loc 1 139 67 is_stmt 0 view .LVU182
 860 0322 C5EB0512 		rsb	r2, r5, r5, lsl #4
 861 0326 124B     		ldr	r3, .L32
 862 0328 03EB8203 		add	r3, r3, r2, lsl #2
 863 032c 4FF07E52 		mov	r2, #1065353216
 864 0330 9A60     		str	r2, [r3, #8]	@ float
 139:User/Peripherals/sht_sensor.c ****                 sys_cfg.calib_Tb[_id] = sht_list[_id].temp.b_user = 0.0;
 865              		.loc 1 139 39 view .LVU183
 866 0332 104C     		ldr	r4, .L32+4
 867              	.LVL96:
 139:User/Peripherals/sht_sensor.c ****                 sys_cfg.calib_Tb[_id] = sht_list[_id].temp.b_user = 0.0;
 868              		.loc 1 139 39 view .LVU184
 869 0334 04EB8506 		add	r6, r4, r5, lsl #2
 870 0338 7260     		str	r2, [r6, #4]	@ float
 140:User/Peripherals/sht_sensor.c ****                 CFG_Save();
 871              		.loc 1 140 17 is_stmt 1 view .LVU185
 140:User/Peripherals/sht_sensor.c ****                 CFG_Save();
 872              		.loc 1 140 67 is_stmt 0 view .LVU186
 873 033a 0022     		movs	r2, #0
 874 033c DA60     		str	r2, [r3, #12]	@ float
 140:User/Peripherals/sht_sensor.c ****                 CFG_Save();
 875              		.loc 1 140 39 view .LVU187
 876 033e 05F10A03 		add	r3, r5, #10
 877 0342 04EB8304 		add	r4, r4, r3, lsl #2
 878 0346 6260     		str	r2, [r4, #4]	@ float
 141:User/Peripherals/sht_sensor.c ****                 printf("Sensor: %d Ta: %2.2f | Tb: %2.2f\n", _id, sys_cfg.calib_Ta[_id], sys_cfg.ca
 879              		.loc 1 141 17 is_stmt 1 view .LVU188
 880 0348 FFF7FEFF 		bl	CFG_Save
 881              	.LVL97:
 142:User/Peripherals/sht_sensor.c ****                 
 882              		.loc 1 142 17 view .LVU189
 142:User/Peripherals/sht_sensor.c ****                 
 883              		.loc 1 142 106 is_stmt 0 view .LVU190
 884 034c 6468     		ldr	r4, [r4, #4]	@ float
 142:User/Peripherals/sht_sensor.c ****                 
 885              		.loc 1 142 17 view .LVU191
 886 034e 7068     		ldr	r0, [r6, #4]	@ float
 887 0350 FFF7FEFF 		bl	__aeabi_f2d
ARM GAS  /tmp/cc9GgjmC.s 			page 22


 888              	.LVL98:
 889 0354 0646     		mov	r6, r0
 890 0356 0F46     		mov	r7, r1
 891 0358 2046     		mov	r0, r4
 892 035a FFF7FEFF 		bl	__aeabi_f2d
 893              	.LVL99:
 894 035e CDE90001 		strd	r0, [sp]
 895 0362 3246     		mov	r2, r6
 896 0364 3B46     		mov	r3, r7
 897 0366 2946     		mov	r1, r5
 898 0368 0448     		ldr	r0, .L32+12
 899 036a FFF7FEFF 		bl	printf
 900              	.LVL100:
 901 036e 8FE6     		b	.L15
 902              	.L33:
 903              		.align	2
 904              	.L32:
 905 0370 00000000 		.word	.LANCHOR0
 906 0374 00000000 		.word	sys_cfg
 907 0378 88000000 		.word	.LC6
 908 037c 64000000 		.word	.LC5
 909              		.cfi_endproc
 910              	.LFE199:
 912              		.section	.text.SHT_Measurement_Sum,"ax",%progbits
 913              		.align	1
 914              		.global	SHT_Measurement_Sum
 915              		.syntax unified
 916              		.thumb
 917              		.thumb_func
 918              		.fpu softvfp
 920              	SHT_Measurement_Sum:
 921              	.LFB201:
 158:User/Peripherals/sht_sensor.c **** 
 159:User/Peripherals/sht_sensor.c **** // Lay gia tri cac cam bien
 160:User/Peripherals/sht_sensor.c **** void SHT_Get_Value(uint8_t id, uint16_t t, uint16_t h)
 161:User/Peripherals/sht_sensor.c **** {
 162:User/Peripherals/sht_sensor.c ****     // kiem tra gia tri over range -> loi cam bien
 163:User/Peripherals/sht_sensor.c **** 
 164:User/Peripherals/sht_sensor.c ****     if(SHT_Calculator(&sht_list[id].temp.raw, &sht_list[id].humi.raw, t, h) == 0)
 165:User/Peripherals/sht_sensor.c ****     {
 166:User/Peripherals/sht_sensor.c ****         // gan trang thai = 0 
 167:User/Peripherals/sht_sensor.c ****         modbus_input_buf[id*5+2] = sht_list[id].state = 0;
 168:User/Peripherals/sht_sensor.c **** 
 169:User/Peripherals/sht_sensor.c ****         // gia tri user sau khi hieu chinh tu user
 170:User/Peripherals/sht_sensor.c ****         modbus_input_buf[id*5] = sht_list[id].temp.user = (sht_list[id].temp.a_user * sht_list[id].
 171:User/Peripherals/sht_sensor.c ****         modbus_input_buf[id*5+1] = sht_list[id].humi.user = (sht_list[id].humi.a_user * sht_list[id
 172:User/Peripherals/sht_sensor.c ****     }
 173:User/Peripherals/sht_sensor.c ****     else
 174:User/Peripherals/sht_sensor.c ****     {
 175:User/Peripherals/sht_sensor.c ****         modbus_input_buf[id*5+2] = sht_list[id].state = 2;
 176:User/Peripherals/sht_sensor.c ****     }
 177:User/Peripherals/sht_sensor.c **** 
 178:User/Peripherals/sht_sensor.c ****     if(sht_id < 8) {
 179:User/Peripherals/sht_sensor.c ****         sht_cnt++;
 180:User/Peripherals/sht_sensor.c ****     } else if (sht_id == 8) {
 181:User/Peripherals/sht_sensor.c ****         // Da request het cam bien => tinh sum
 182:User/Peripherals/sht_sensor.c ****         SHT_Measurement_Sum();
ARM GAS  /tmp/cc9GgjmC.s 			page 23


 183:User/Peripherals/sht_sensor.c ****         sht_cnt = 0;
 184:User/Peripherals/sht_sensor.c ****     }
 185:User/Peripherals/sht_sensor.c **** 
 186:User/Peripherals/sht_sensor.c ****     waitting = 1; // Next con tiep theo
 187:User/Peripherals/sht_sensor.c ****     sht_tick = HAL_GetTick();
 188:User/Peripherals/sht_sensor.c **** }
 189:User/Peripherals/sht_sensor.c **** 
 190:User/Peripherals/sht_sensor.c **** void SHT_Measurement_Sum(void)
 191:User/Peripherals/sht_sensor.c **** {
 922              		.loc 1 191 1 is_stmt 1 view -0
 923              		.cfi_startproc
 924              		@ args = 0, pretend = 0, frame = 0
 925              		@ frame_needed = 0, uses_anonymous_args = 0
 926 0000 F8B5     		push	{r3, r4, r5, r6, r7, lr}
 927              	.LCFI8:
 928              		.cfi_def_cfa_offset 24
 929              		.cfi_offset 3, -24
 930              		.cfi_offset 4, -20
 931              		.cfi_offset 5, -16
 932              		.cfi_offset 6, -12
 933              		.cfi_offset 7, -8
 934              		.cfi_offset 14, -4
 192:User/Peripherals/sht_sensor.c ****     uint16_t temp_sum = 0, humi_sum = 0;
 935              		.loc 1 192 5 view .LVU193
 936              	.LVL101:
 193:User/Peripherals/sht_sensor.c ****     for (int i = 0; i < 8; i++)
 937              		.loc 1 193 5 view .LVU194
 938              	.LBB3:
 939              		.loc 1 193 10 view .LVU195
 940              		.loc 1 193 14 is_stmt 0 view .LVU196
 941 0002 0023     		movs	r3, #0
 942              	.LBE3:
 192:User/Peripherals/sht_sensor.c ****     uint16_t temp_sum = 0, humi_sum = 0;
 943              		.loc 1 192 28 view .LVU197
 944 0004 1C46     		mov	r4, r3
 192:User/Peripherals/sht_sensor.c ****     uint16_t temp_sum = 0, humi_sum = 0;
 945              		.loc 1 192 14 view .LVU198
 946 0006 1846     		mov	r0, r3
 947              	.LBB4:
 948              		.loc 1 193 5 view .LVU199
 949 0008 00E0     		b	.L35
 950              	.LVL102:
 951              	.L36:
 952              		.loc 1 193 28 is_stmt 1 discriminator 2 view .LVU200
 953              		.loc 1 193 29 is_stmt 0 discriminator 2 view .LVU201
 954 000a 0133     		adds	r3, r3, #1
 955              	.LVL103:
 956              	.L35:
 957              		.loc 1 193 21 is_stmt 1 discriminator 1 view .LVU202
 958              		.loc 1 193 5 is_stmt 0 discriminator 1 view .LVU203
 959 000c 072B     		cmp	r3, #7
 960 000e 12DC     		bgt	.L39
 194:User/Peripherals/sht_sensor.c ****     {
 195:User/Peripherals/sht_sensor.c ****         if (sht_list[i].state == 0)
 961              		.loc 1 195 9 is_stmt 1 view .LVU204
 962              		.loc 1 195 24 is_stmt 0 view .LVU205
 963 0010 C3EB0312 		rsb	r2, r3, r3, lsl #4
ARM GAS  /tmp/cc9GgjmC.s 			page 24


 964 0014 1E49     		ldr	r1, .L40
 965 0016 01EB8202 		add	r2, r1, r2, lsl #2
 966 001a 5278     		ldrb	r2, [r2, #1]	@ zero_extendqisi2
 967              		.loc 1 195 12 view .LVU206
 968 001c 002A     		cmp	r2, #0
 969 001e F4D1     		bne	.L36
 196:User/Peripherals/sht_sensor.c ****         {
 197:User/Peripherals/sht_sensor.c ****             temp_sum += sht_list[i].temp.user;
 970              		.loc 1 197 13 is_stmt 1 view .LVU207
 971              		.loc 1 197 41 is_stmt 0 view .LVU208
 972 0020 C3EB0312 		rsb	r2, r3, r3, lsl #4
 973 0024 01EB8202 		add	r2, r1, r2, lsl #2
 974 0028 D188     		ldrh	r1, [r2, #6]
 975              		.loc 1 197 22 view .LVU209
 976 002a 0144     		add	r1, r1, r0
 977 002c 88B2     		uxth	r0, r1
 978              	.LVL104:
 198:User/Peripherals/sht_sensor.c ****             humi_sum += sht_list[i].humi.user;
 979              		.loc 1 198 13 is_stmt 1 view .LVU210
 980              		.loc 1 198 41 is_stmt 0 view .LVU211
 981 002e 528C     		ldrh	r2, [r2, #34]
 982              		.loc 1 198 22 view .LVU212
 983 0030 2244     		add	r2, r2, r4
 984 0032 94B2     		uxth	r4, r2
 985              	.LVL105:
 986              		.loc 1 198 22 view .LVU213
 987 0034 E9E7     		b	.L36
 988              	.L39:
 989              		.loc 1 198 22 view .LVU214
 990              	.LBE4:
 199:User/Peripherals/sht_sensor.c ****         }
 200:User/Peripherals/sht_sensor.c ****     }
 201:User/Peripherals/sht_sensor.c ****     // Tinh trung binh
 202:User/Peripherals/sht_sensor.c **** 
 203:User/Peripherals/sht_sensor.c ****     device.temp_now = (temp_sum / sht_cnt) / 10.0;
 991              		.loc 1 203 5 is_stmt 1 view .LVU215
 992              		.loc 1 203 33 is_stmt 0 view .LVU216
 993 0036 174B     		ldr	r3, .L40+4
 994              	.LVL106:
 995              		.loc 1 203 33 view .LVU217
 996 0038 1F78     		ldrb	r7, [r3]	@ zero_extendqisi2
 997              		.loc 1 203 44 view .LVU218
 998 003a 90FBF7F0 		sdiv	r0, r0, r7
 999              	.LVL107:
 1000              		.loc 1 203 44 view .LVU219
 1001 003e FFF7FEFF 		bl	__aeabi_i2d
 1002              	.LVL108:
 1003 0042 0022     		movs	r2, #0
 1004 0044 144B     		ldr	r3, .L40+8
 1005 0046 FFF7FEFF 		bl	__aeabi_ddiv
 1006              	.LVL109:
 1007 004a FFF7FEFF 		bl	__aeabi_d2f
 1008              	.LVL110:
 1009 004e 0546     		mov	r5, r0
 1010              		.loc 1 203 21 view .LVU220
 1011 0050 124E     		ldr	r6, .L40+12
 1012 0052 3064     		str	r0, [r6, #64]	@ float
ARM GAS  /tmp/cc9GgjmC.s 			page 25


 204:User/Peripherals/sht_sensor.c ****     device.humi_now = (humi_sum / sht_cnt) / 10.0;
 1013              		.loc 1 204 5 is_stmt 1 view .LVU221
 1014              		.loc 1 204 44 is_stmt 0 view .LVU222
 1015 0054 94FBF7F0 		sdiv	r0, r4, r7
 1016 0058 FFF7FEFF 		bl	__aeabi_i2d
 1017              	.LVL111:
 1018 005c 0022     		movs	r2, #0
 1019 005e 0E4B     		ldr	r3, .L40+8
 1020 0060 FFF7FEFF 		bl	__aeabi_ddiv
 1021              	.LVL112:
 1022 0064 FFF7FEFF 		bl	__aeabi_d2f
 1023              	.LVL113:
 1024 0068 0446     		mov	r4, r0
 1025              	.LVL114:
 1026              		.loc 1 204 21 view .LVU223
 1027 006a 7064     		str	r0, [r6, #68]	@ float
 205:User/Peripherals/sht_sensor.c **** 
 206:User/Peripherals/sht_sensor.c ****     modbus_input_buf[50] = device.temp_now * 10;
 1028              		.loc 1 206 5 is_stmt 1 view .LVU224
 1029              		.loc 1 206 44 is_stmt 0 view .LVU225
 1030 006c 0C49     		ldr	r1, .L40+16
 1031 006e 2846     		mov	r0, r5
 1032 0070 FFF7FEFF 		bl	__aeabi_fmul
 1033              	.LVL115:
 1034              		.loc 1 206 26 view .LVU226
 1035 0074 0B4D     		ldr	r5, .L40+20
 1036 0076 FFF7FEFF 		bl	__aeabi_f2uiz
 1037              	.LVL116:
 1038 007a A5F86400 		strh	r0, [r5, #100]	@ movhi
 207:User/Peripherals/sht_sensor.c ****     modbus_input_buf[51] = device.humi_now * 10;
 1039              		.loc 1 207 5 is_stmt 1 view .LVU227
 1040              		.loc 1 207 44 is_stmt 0 view .LVU228
 1041 007e 0849     		ldr	r1, .L40+16
 1042 0080 2046     		mov	r0, r4
 1043 0082 FFF7FEFF 		bl	__aeabi_fmul
 1044              	.LVL117:
 1045              		.loc 1 207 26 view .LVU229
 1046 0086 FFF7FEFF 		bl	__aeabi_f2uiz
 1047              	.LVL118:
 1048 008a A5F86600 		strh	r0, [r5, #102]	@ movhi
 208:User/Peripherals/sht_sensor.c **** }
 1049              		.loc 1 208 1 view .LVU230
 1050 008e F8BD     		pop	{r3, r4, r5, r6, r7, pc}
 1051              	.L41:
 1052              		.align	2
 1053              	.L40:
 1054 0090 00000000 		.word	.LANCHOR0
 1055 0094 00000000 		.word	.LANCHOR5
 1056 0098 00002440 		.word	1076101120
 1057 009c 00000000 		.word	device
 1058 00a0 00002041 		.word	1092616192
 1059 00a4 00000000 		.word	modbus_input_buf
 1060              		.cfi_endproc
 1061              	.LFE201:
 1063              		.global	__aeabi_fadd
 1064              		.global	__aeabi_i2f
 1065              		.section	.text.SHT_Calc_Calib_Linear_Regression,"ax",%progbits
ARM GAS  /tmp/cc9GgjmC.s 			page 26


 1066              		.align	1
 1067              		.global	SHT_Calc_Calib_Linear_Regression
 1068              		.syntax unified
 1069              		.thumb
 1070              		.thumb_func
 1071              		.fpu softvfp
 1073              	SHT_Calc_Calib_Linear_Regression:
 1074              	.LVL119:
 1075              	.LFB202:
 209:User/Peripherals/sht_sensor.c **** 
 210:User/Peripherals/sht_sensor.c **** void SHT_Calc_Calib_Linear_Regression(float *val_a_b, float *val_x, float *val_y, uint8_t point)
 211:User/Peripherals/sht_sensor.c **** {
 1076              		.loc 1 211 1 is_stmt 1 view -0
 1077              		.cfi_startproc
 1078              		@ args = 0, pretend = 0, frame = 16
 1079              		@ frame_needed = 0, uses_anonymous_args = 0
 1080              		.loc 1 211 1 is_stmt 0 view .LVU232
 1081 0000 2DE9F04F 		push	{r4, r5, r6, r7, r8, r9, r10, fp, lr}
 1082              	.LCFI9:
 1083              		.cfi_def_cfa_offset 36
 1084              		.cfi_offset 4, -36
 1085              		.cfi_offset 5, -32
 1086              		.cfi_offset 6, -28
 1087              		.cfi_offset 7, -24
 1088              		.cfi_offset 8, -20
 1089              		.cfi_offset 9, -16
 1090              		.cfi_offset 10, -12
 1091              		.cfi_offset 11, -8
 1092              		.cfi_offset 14, -4
 1093 0004 85B0     		sub	sp, sp, #20
 1094              	.LCFI10:
 1095              		.cfi_def_cfa_offset 56
 1096 0006 0390     		str	r0, [sp, #12]
 1097 0008 0291     		str	r1, [sp, #8]
 1098 000a 9146     		mov	r9, r2
 1099 000c 9B46     		mov	fp, r3
 212:User/Peripherals/sht_sensor.c ****     /*
 213:User/Peripherals/sht_sensor.c ****         + val_a_b giá trị a, b sau khi tính toán sẽ trả về mảng val_a_b[0], val_a_b[1]
 214:User/Peripherals/sht_sensor.c ****     */
 215:User/Peripherals/sht_sensor.c ****     float sumX = 0, sumY = 0, sumX2 = 0, sumXY = 0;
 1100              		.loc 1 215 5 is_stmt 1 view .LVU233
 1101              	.LVL120:
 216:User/Peripherals/sht_sensor.c **** 
 217:User/Peripherals/sht_sensor.c ****     for(int i = 1; i <= point; i++)
 1102              		.loc 1 217 5 view .LVU234
 1103              	.LBB5:
 1104              		.loc 1 217 9 view .LVU235
 1105              		.loc 1 217 13 is_stmt 0 view .LVU236
 1106 000e 0124     		movs	r4, #1
 1107              	.LBE5:
 215:User/Peripherals/sht_sensor.c **** 
 1108              		.loc 1 215 42 view .LVU237
 1109 0010 0027     		movs	r7, #0
 215:User/Peripherals/sht_sensor.c **** 
 1110              		.loc 1 215 31 view .LVU238
 1111 0012 0197     		str	r7, [sp, #4]	@ float
 215:User/Peripherals/sht_sensor.c **** 
ARM GAS  /tmp/cc9GgjmC.s 			page 27


 1112              		.loc 1 215 21 view .LVU239
 1113 0014 B846     		mov	r8, r7
 215:User/Peripherals/sht_sensor.c **** 
 1114              		.loc 1 215 11 view .LVU240
 1115 0016 3E46     		mov	r6, r7
 1116              	.LBB6:
 1117              		.loc 1 217 5 view .LVU241
 1118 0018 21E0     		b	.L43
 1119              	.LVL121:
 1120              	.L44:
 218:User/Peripherals/sht_sensor.c ****     {
 219:User/Peripherals/sht_sensor.c ****         sumX += val_x[i];
 1121              		.loc 1 219 9 is_stmt 1 discriminator 3 view .LVU242
 1122              		.loc 1 219 22 is_stmt 0 discriminator 3 view .LVU243
 1123 001a 029B     		ldr	r3, [sp, #8]
 1124 001c 53F82450 		ldr	r5, [r3, r4, lsl #2]	@ float
 1125              		.loc 1 219 14 discriminator 3 view .LVU244
 1126 0020 2946     		mov	r1, r5
 1127 0022 3046     		mov	r0, r6
 1128 0024 FFF7FEFF 		bl	__aeabi_fadd
 1129              	.LVL122:
 1130 0028 0646     		mov	r6, r0
 1131              	.LVL123:
 220:User/Peripherals/sht_sensor.c ****         sumX2 += val_x[i] * val_x[i];
 1132              		.loc 1 220 9 is_stmt 1 discriminator 3 view .LVU245
 1133              		.loc 1 220 27 is_stmt 0 discriminator 3 view .LVU246
 1134 002a 2946     		mov	r1, r5
 1135 002c 2846     		mov	r0, r5
 1136              	.LVL124:
 1137              		.loc 1 220 27 discriminator 3 view .LVU247
 1138 002e FFF7FEFF 		bl	__aeabi_fmul
 1139              	.LVL125:
 1140 0032 0146     		mov	r1, r0
 1141              		.loc 1 220 15 discriminator 3 view .LVU248
 1142 0034 0198     		ldr	r0, [sp, #4]	@ float
 1143 0036 FFF7FEFF 		bl	__aeabi_fadd
 1144              	.LVL126:
 1145 003a 0190     		str	r0, [sp, #4]	@ float
 1146              	.LVL127:
 221:User/Peripherals/sht_sensor.c ****         sumY += val_y[i];
 1147              		.loc 1 221 9 is_stmt 1 discriminator 3 view .LVU249
 1148              		.loc 1 221 22 is_stmt 0 discriminator 3 view .LVU250
 1149 003c 59F824A0 		ldr	r10, [r9, r4, lsl #2]	@ float
 1150              		.loc 1 221 14 discriminator 3 view .LVU251
 1151 0040 5146     		mov	r1, r10
 1152 0042 4046     		mov	r0, r8
 1153              	.LVL128:
 1154              		.loc 1 221 14 discriminator 3 view .LVU252
 1155 0044 FFF7FEFF 		bl	__aeabi_fadd
 1156              	.LVL129:
 1157 0048 8046     		mov	r8, r0
 1158              	.LVL130:
 222:User/Peripherals/sht_sensor.c ****         sumXY += val_x[i] * val_y[i];
 1159              		.loc 1 222 9 is_stmt 1 discriminator 3 view .LVU253
 1160              		.loc 1 222 27 is_stmt 0 discriminator 3 view .LVU254
 1161 004a 5146     		mov	r1, r10
 1162 004c 2846     		mov	r0, r5
ARM GAS  /tmp/cc9GgjmC.s 			page 28


 1163              	.LVL131:
 1164              		.loc 1 222 27 discriminator 3 view .LVU255
 1165 004e FFF7FEFF 		bl	__aeabi_fmul
 1166              	.LVL132:
 1167 0052 0146     		mov	r1, r0
 1168              		.loc 1 222 15 discriminator 3 view .LVU256
 1169 0054 3846     		mov	r0, r7
 1170 0056 FFF7FEFF 		bl	__aeabi_fadd
 1171              	.LVL133:
 1172 005a 0746     		mov	r7, r0
 1173              	.LVL134:
 217:User/Peripherals/sht_sensor.c ****     {
 1174              		.loc 1 217 32 is_stmt 1 discriminator 3 view .LVU257
 217:User/Peripherals/sht_sensor.c ****     {
 1175              		.loc 1 217 33 is_stmt 0 discriminator 3 view .LVU258
 1176 005c 0134     		adds	r4, r4, #1
 1177              	.LVL135:
 1178              	.L43:
 217:User/Peripherals/sht_sensor.c ****     {
 1179              		.loc 1 217 20 is_stmt 1 discriminator 1 view .LVU259
 217:User/Peripherals/sht_sensor.c ****     {
 1180              		.loc 1 217 5 is_stmt 0 discriminator 1 view .LVU260
 1181 005e A345     		cmp	fp, r4
 1182 0060 DBDA     		bge	.L44
 1183              	.LBE6:
 223:User/Peripherals/sht_sensor.c ****     }
 224:User/Peripherals/sht_sensor.c **** 
 225:User/Peripherals/sht_sensor.c ****     val_a_b[1] = (point * sumXY - sumX * sumY) / (point * sumX2 - sumX * sumX);
 1184              		.loc 1 225 5 is_stmt 1 view .LVU261
 1185              		.loc 1 225 25 is_stmt 0 view .LVU262
 1186 0062 5846     		mov	r0, fp
 1187 0064 FFF7FEFF 		bl	__aeabi_i2f
 1188              	.LVL136:
 1189 0068 0446     		mov	r4, r0
 1190              	.LVL137:
 1191              		.loc 1 225 25 view .LVU263
 1192 006a 3946     		mov	r1, r7
 1193 006c FFF7FEFF 		bl	__aeabi_fmul
 1194              	.LVL138:
 1195 0070 0546     		mov	r5, r0
 1196              		.loc 1 225 40 view .LVU264
 1197 0072 4146     		mov	r1, r8
 1198 0074 3046     		mov	r0, r6
 1199 0076 FFF7FEFF 		bl	__aeabi_fmul
 1200              	.LVL139:
 1201 007a 0146     		mov	r1, r0
 1202              		.loc 1 225 33 view .LVU265
 1203 007c 2846     		mov	r0, r5
 1204 007e FFF7FEFF 		bl	__aeabi_fsub
 1205              	.LVL140:
 1206 0082 0546     		mov	r5, r0
 1207              		.loc 1 225 57 view .LVU266
 1208 0084 0199     		ldr	r1, [sp, #4]	@ float
 1209 0086 2046     		mov	r0, r4
 1210 0088 FFF7FEFF 		bl	__aeabi_fmul
 1211              	.LVL141:
 1212 008c 0746     		mov	r7, r0
ARM GAS  /tmp/cc9GgjmC.s 			page 29


 1213              	.LVL142:
 1214              		.loc 1 225 72 view .LVU267
 1215 008e 3146     		mov	r1, r6
 1216 0090 3046     		mov	r0, r6
 1217 0092 FFF7FEFF 		bl	__aeabi_fmul
 1218              	.LVL143:
 1219 0096 0146     		mov	r1, r0
 1220              		.loc 1 225 65 view .LVU268
 1221 0098 3846     		mov	r0, r7
 1222 009a FFF7FEFF 		bl	__aeabi_fsub
 1223              	.LVL144:
 1224 009e 0146     		mov	r1, r0
 1225              		.loc 1 225 48 view .LVU269
 1226 00a0 2846     		mov	r0, r5
 1227 00a2 FFF7FEFF 		bl	__aeabi_fdiv
 1228              	.LVL145:
 1229              		.loc 1 225 16 view .LVU270
 1230 00a6 039D     		ldr	r5, [sp, #12]
 1231 00a8 6860     		str	r0, [r5, #4]	@ float
 226:User/Peripherals/sht_sensor.c ****     val_a_b[0] = (sumY - val_a_b[1] * sumX ) / point;
 1232              		.loc 1 226 5 is_stmt 1 view .LVU271
 1233              		.loc 1 226 37 is_stmt 0 view .LVU272
 1234 00aa 3146     		mov	r1, r6
 1235 00ac FFF7FEFF 		bl	__aeabi_fmul
 1236              	.LVL146:
 1237 00b0 0146     		mov	r1, r0
 1238              		.loc 1 226 24 view .LVU273
 1239 00b2 4046     		mov	r0, r8
 1240 00b4 FFF7FEFF 		bl	__aeabi_fsub
 1241              	.LVL147:
 1242              		.loc 1 226 46 view .LVU274
 1243 00b8 2146     		mov	r1, r4
 1244 00ba FFF7FEFF 		bl	__aeabi_fdiv
 1245              	.LVL148:
 1246              		.loc 1 226 16 view .LVU275
 1247 00be 2860     		str	r0, [r5]	@ float
 227:User/Peripherals/sht_sensor.c **** }
 1248              		.loc 1 227 1 view .LVU276
 1249 00c0 05B0     		add	sp, sp, #20
 1250              	.LCFI11:
 1251              		.cfi_def_cfa_offset 36
 1252              		@ sp needed
 1253 00c2 BDE8F08F 		pop	{r4, r5, r6, r7, r8, r9, r10, fp, pc}
 1254              		.loc 1 227 1 view .LVU277
 1255              		.cfi_endproc
 1256              	.LFE202:
 1258              		.section	.text.SHT_Calculator,"ax",%progbits
 1259              		.align	1
 1260              		.global	SHT_Calculator
 1261              		.syntax unified
 1262              		.thumb
 1263              		.thumb_func
 1264              		.fpu softvfp
 1266              	SHT_Calculator:
 1267              	.LVL149:
 1268              	.LFB203:
 228:User/Peripherals/sht_sensor.c **** 
ARM GAS  /tmp/cc9GgjmC.s 			page 30


 229:User/Peripherals/sht_sensor.c **** uint16_t SHT_Calculator(uint16_t *pt, uint16_t *ph, uint16_t t_, uint16_t h_)
 230:User/Peripherals/sht_sensor.c **** {
 1269              		.loc 1 230 1 is_stmt 1 view -0
 1270              		.cfi_startproc
 1271              		@ args = 0, pretend = 0, frame = 0
 1272              		@ frame_needed = 0, uses_anonymous_args = 0
 1273              		@ link register save eliminated.
 231:User/Peripherals/sht_sensor.c ****     uint16_t range_t_min = 0xFF38;  // -20.00 celsius
 1274              		.loc 1 231 5 view .LVU279
 232:User/Peripherals/sht_sensor.c ****     uint16_t range_t_max = 0x0320;  // 80.00 celsius
 1275              		.loc 1 232 5 view .LVU280
 233:User/Peripherals/sht_sensor.c ****     uint16_t range_h_min = 0x000;   // 0 %RH
 1276              		.loc 1 233 5 view .LVU281
 234:User/Peripherals/sht_sensor.c ****     uint16_t range_h_max = 0x03E8;  // 100 %RH
 1277              		.loc 1 234 5 view .LVU282
 235:User/Peripherals/sht_sensor.c **** 
 236:User/Peripherals/sht_sensor.c ****     if(range_t_min <= t_ && t_ <= 0xFFFF)    *pt = (t_ - 65536);
 1278              		.loc 1 236 5 view .LVU283
 1279              		.loc 1 236 7 is_stmt 0 view .LVU284
 1280 0000 4FF6377C 		movw	ip, #65335
 1281 0004 6245     		cmp	r2, ip
 1282 0006 06D9     		bls	.L47
 1283              		.loc 1 236 46 is_stmt 1 discriminator 1 view .LVU285
 1284              		.loc 1 236 50 is_stmt 0 discriminator 1 view .LVU286
 1285 0008 0280     		strh	r2, [r0]	@ movhi
 1286              	.L48:
 237:User/Peripherals/sht_sensor.c ****     else if( 0x0000 <= t_ && t_ <= range_t_max)  *pt = t_;
 238:User/Peripherals/sht_sensor.c ****     else    return 2;
 239:User/Peripherals/sht_sensor.c **** 
 240:User/Peripherals/sht_sensor.c ****     if( range_h_min <= h_ && h_ <= range_h_max)   *ph = h_;
 1287              		.loc 1 240 5 is_stmt 1 view .LVU287
 1288              		.loc 1 240 27 is_stmt 0 view .LVU288
 1289 000a B3F57A7F 		cmp	r3, #1000
 1290 000e 09D8     		bhi	.L51
 1291              		.loc 1 240 51 is_stmt 1 discriminator 2 view .LVU289
 1292              		.loc 1 240 55 is_stmt 0 discriminator 2 view .LVU290
 1293 0010 0B80     		strh	r3, [r1]	@ movhi
 241:User/Peripherals/sht_sensor.c ****     else    return 2;
 242:User/Peripherals/sht_sensor.c **** 
 243:User/Peripherals/sht_sensor.c ****     return 0;
 1294              		.loc 1 243 5 is_stmt 1 discriminator 2 view .LVU291
 1295              		.loc 1 243 12 is_stmt 0 discriminator 2 view .LVU292
 1296 0012 0020     		movs	r0, #0
 1297              	.LVL150:
 1298              		.loc 1 243 12 discriminator 2 view .LVU293
 1299 0014 7047     		bx	lr
 1300              	.LVL151:
 1301              	.L47:
 237:User/Peripherals/sht_sensor.c ****     else if( 0x0000 <= t_ && t_ <= range_t_max)  *pt = t_;
 1302              		.loc 1 237 10 is_stmt 1 view .LVU294
 237:User/Peripherals/sht_sensor.c ****     else if( 0x0000 <= t_ && t_ <= range_t_max)  *pt = t_;
 1303              		.loc 1 237 12 is_stmt 0 view .LVU295
 1304 0016 B2F5487F 		cmp	r2, #800
 1305 001a 01D8     		bhi	.L50
 237:User/Peripherals/sht_sensor.c ****     else if( 0x0000 <= t_ && t_ <= range_t_max)  *pt = t_;
 1306              		.loc 1 237 50 is_stmt 1 discriminator 1 view .LVU296
 237:User/Peripherals/sht_sensor.c ****     else if( 0x0000 <= t_ && t_ <= range_t_max)  *pt = t_;
ARM GAS  /tmp/cc9GgjmC.s 			page 31


 1307              		.loc 1 237 54 is_stmt 0 discriminator 1 view .LVU297
 1308 001c 0280     		strh	r2, [r0]	@ movhi
 1309 001e F4E7     		b	.L48
 1310              	.L50:
 238:User/Peripherals/sht_sensor.c **** 
 1311              		.loc 1 238 20 view .LVU298
 1312 0020 0220     		movs	r0, #2
 1313              	.LVL152:
 238:User/Peripherals/sht_sensor.c **** 
 1314              		.loc 1 238 20 view .LVU299
 1315 0022 7047     		bx	lr
 1316              	.LVL153:
 1317              	.L51:
 241:User/Peripherals/sht_sensor.c ****     else    return 2;
 1318              		.loc 1 241 20 view .LVU300
 1319 0024 0220     		movs	r0, #2
 1320              	.LVL154:
 244:User/Peripherals/sht_sensor.c **** }...
 1321              		.loc 1 244 1 view .LVU301
 1322 0026 7047     		bx	lr
 1323              		.cfi_endproc
 1324              	.LFE203:
 1326              		.global	__aeabi_dadd
 1327              		.global	__aeabi_dmul
 1328              		.global	__aeabi_d2uiz
 1329              		.section	.text.SHT_Get_Value,"ax",%progbits
 1330              		.align	1
 1331              		.global	SHT_Get_Value
 1332              		.syntax unified
 1333              		.thumb
 1334              		.thumb_func
 1335              		.fpu softvfp
 1337              	SHT_Get_Value:
 1338              	.LVL155:
 1339              	.LFB200:
 161:User/Peripherals/sht_sensor.c **** {
 1340              		.loc 1 161 1 is_stmt 1 view -0
 1341              		.cfi_startproc
 1342              		@ args = 0, pretend = 0, frame = 0
 1343              		@ frame_needed = 0, uses_anonymous_args = 0
 161:User/Peripherals/sht_sensor.c **** {
 1344              		.loc 1 161 1 is_stmt 0 view .LVU303
 1345 0000 2DE9F84F 		push	{r3, r4, r5, r6, r7, r8, r9, r10, fp, lr}
 1346              	.LCFI12:
 1347              		.cfi_def_cfa_offset 40
 1348              		.cfi_offset 3, -40
 1349              		.cfi_offset 4, -36
 1350              		.cfi_offset 5, -32
 1351              		.cfi_offset 6, -28
 1352              		.cfi_offset 7, -24
 1353              		.cfi_offset 8, -20
 1354              		.cfi_offset 9, -16
 1355              		.cfi_offset 10, -12
 1356              		.cfi_offset 11, -8
 1357              		.cfi_offset 14, -4
 1358 0004 0446     		mov	r4, r0
 1359 0006 1346     		mov	r3, r2
ARM GAS  /tmp/cc9GgjmC.s 			page 32


 164:User/Peripherals/sht_sensor.c ****     if(SHT_Calculator(&sht_list[id].temp.raw, &sht_list[id].humi.raw, t, h) == 0)
 1360              		.loc 1 164 5 is_stmt 1 view .LVU304
 164:User/Peripherals/sht_sensor.c ****     if(SHT_Calculator(&sht_list[id].temp.raw, &sht_list[id].humi.raw, t, h) == 0)
 1361              		.loc 1 164 8 is_stmt 0 view .LVU305
 1362 0008 454E     		ldr	r6, .L58
 1363 000a C0EB0015 		rsb	r5, r0, r0, lsl #4
 1364 000e AD00     		lsls	r5, r5, #2
 1365 0010 2035     		adds	r5, r5, #32
 1366 0012 C0EB0010 		rsb	r0, r0, r0, lsl #4
 1367              	.LVL156:
 164:User/Peripherals/sht_sensor.c ****     if(SHT_Calculator(&sht_list[id].temp.raw, &sht_list[id].humi.raw, t, h) == 0)
 1368              		.loc 1 164 8 view .LVU306
 1369 0016 06EB8000 		add	r0, r6, r0, lsl #2
 1370 001a 0A46     		mov	r2, r1
 1371              	.LVL157:
 164:User/Peripherals/sht_sensor.c ****     if(SHT_Calculator(&sht_list[id].temp.raw, &sht_list[id].humi.raw, t, h) == 0)
 1372              		.loc 1 164 8 view .LVU307
 1373 001c 7119     		adds	r1, r6, r5
 1374              	.LVL158:
 164:User/Peripherals/sht_sensor.c ****     if(SHT_Calculator(&sht_list[id].temp.raw, &sht_list[id].humi.raw, t, h) == 0)
 1375              		.loc 1 164 8 view .LVU308
 1376 001e 0430     		adds	r0, r0, #4
 1377 0020 FFF7FEFF 		bl	SHT_Calculator
 1378              	.LVL159:
 164:User/Peripherals/sht_sensor.c ****     if(SHT_Calculator(&sht_list[id].temp.raw, &sht_list[id].humi.raw, t, h) == 0)
 1379              		.loc 1 164 7 view .LVU309
 1380 0024 0028     		cmp	r0, #0
 1381 0026 64D1     		bne	.L53
 167:User/Peripherals/sht_sensor.c ****         modbus_input_buf[id*5+2] = sht_list[id].state = 0;
 1382              		.loc 1 167 9 is_stmt 1 view .LVU310
 167:User/Peripherals/sht_sensor.c ****         modbus_input_buf[id*5+2] = sht_list[id].state = 0;
 1383              		.loc 1 167 55 is_stmt 0 view .LVU311
 1384 0028 C4EB0415 		rsb	r5, r4, r4, lsl #4
 1385 002c 06EB8505 		add	r5, r6, r5, lsl #2
 1386 0030 0023     		movs	r3, #0
 1387 0032 6B70     		strb	r3, [r5, #1]
 167:User/Peripherals/sht_sensor.c ****         modbus_input_buf[id*5+2] = sht_list[id].state = 0;
 1388              		.loc 1 167 28 view .LVU312
 1389 0034 04EB8406 		add	r6, r4, r4, lsl #2
 167:User/Peripherals/sht_sensor.c ****         modbus_input_buf[id*5+2] = sht_list[id].state = 0;
 1390              		.loc 1 167 30 view .LVU313
 1391 0038 B21C     		adds	r2, r6, #2
 167:User/Peripherals/sht_sensor.c ****         modbus_input_buf[id*5+2] = sht_list[id].state = 0;
 1392              		.loc 1 167 34 view .LVU314
 1393 003a DFF8E8A0 		ldr	r10, .L58+4
 1394 003e 2AF81230 		strh	r3, [r10, r2, lsl #1]	@ movhi
 170:User/Peripherals/sht_sensor.c ****         modbus_input_buf[id*5] = sht_list[id].temp.user = (sht_list[id].temp.a_user * sht_list[id].
 1395              		.loc 1 170 9 is_stmt 1 view .LVU315
 170:User/Peripherals/sht_sensor.c ****         modbus_input_buf[id*5] = sht_list[id].temp.user = (sht_list[id].temp.a_user * sht_list[id].
 1396              		.loc 1 170 77 is_stmt 0 view .LVU316
 1397 0042 D5F80880 		ldr	r8, [r5, #8]	@ float
 170:User/Peripherals/sht_sensor.c ****         modbus_input_buf[id*5] = sht_list[id].temp.user = (sht_list[id].temp.a_user * sht_list[id].
 1398              		.loc 1 170 85 view .LVU317
 1399 0046 A888     		ldrh	r0, [r5, #4]
 1400 0048 FFF7FEFF 		bl	__aeabi_i2f
 1401              	.LVL160:
 1402 004c 4146     		mov	r1, r8
ARM GAS  /tmp/cc9GgjmC.s 			page 33


 1403 004e FFF7FEFF 		bl	__aeabi_fmul
 1404              	.LVL161:
 1405 0052 FFF7FEFF 		bl	__aeabi_f2d
 1406              	.LVL162:
 170:User/Peripherals/sht_sensor.c ****         modbus_input_buf[id*5] = sht_list[id].temp.user = (sht_list[id].temp.a_user * sht_list[id].
 1407              		.loc 1 170 109 view .LVU318
 1408 0056 0022     		movs	r2, #0
 1409 0058 334B     		ldr	r3, .L58+8
 1410 005a FFF7FEFF 		bl	__aeabi_ddiv
 1411              	.LVL163:
 1412 005e 8046     		mov	r8, r0
 1413 0060 8946     		mov	r9, r1
 170:User/Peripherals/sht_sensor.c ****         modbus_input_buf[id*5] = sht_list[id].temp.user = (sht_list[id].temp.a_user * sht_list[id].
 1414              		.loc 1 170 135 view .LVU319
 1415 0062 E868     		ldr	r0, [r5, #12]	@ float
 1416 0064 FFF7FEFF 		bl	__aeabi_f2d
 1417              	.LVL164:
 1418 0068 0246     		mov	r2, r0
 1419 006a 0B46     		mov	r3, r1
 170:User/Peripherals/sht_sensor.c ****         modbus_input_buf[id*5] = sht_list[id].temp.user = (sht_list[id].temp.a_user * sht_list[id].
 1420              		.loc 1 170 116 view .LVU320
 1421 006c 4046     		mov	r0, r8
 1422 006e 4946     		mov	r1, r9
 1423 0070 FFF7FEFF 		bl	__aeabi_dadd
 1424              	.LVL165:
 170:User/Peripherals/sht_sensor.c ****         modbus_input_buf[id*5] = sht_list[id].temp.user = (sht_list[id].temp.a_user * sht_list[id].
 1425              		.loc 1 170 144 view .LVU321
 1426 0074 0022     		movs	r2, #0
 1427 0076 2C4B     		ldr	r3, .L58+8
 1428 0078 FFF7FEFF 		bl	__aeabi_dmul
 1429              	.LVL166:
 170:User/Peripherals/sht_sensor.c ****         modbus_input_buf[id*5] = sht_list[id].temp.user = (sht_list[id].temp.a_user * sht_list[id].
 1430              		.loc 1 170 57 view .LVU322
 1431 007c FFF7FEFF 		bl	__aeabi_d2uiz
 1432              	.LVL167:
 1433 0080 80B2     		uxth	r0, r0
 1434 0082 E880     		strh	r0, [r5, #6]	@ movhi
 170:User/Peripherals/sht_sensor.c ****         modbus_input_buf[id*5] = sht_list[id].temp.user = (sht_list[id].temp.a_user * sht_list[id].
 1435              		.loc 1 170 32 view .LVU323
 1436 0084 2AF81600 		strh	r0, [r10, r6, lsl #1]	@ movhi
 171:User/Peripherals/sht_sensor.c ****         modbus_input_buf[id*5+1] = sht_list[id].humi.user = (sht_list[id].humi.a_user * sht_list[id
 1437              		.loc 1 171 9 is_stmt 1 view .LVU324
 171:User/Peripherals/sht_sensor.c ****         modbus_input_buf[id*5+1] = sht_list[id].humi.user = (sht_list[id].humi.a_user * sht_list[id
 1438              		.loc 1 171 79 is_stmt 0 view .LVU325
 1439 0088 D5F82480 		ldr	r8, [r5, #36]	@ float
 171:User/Peripherals/sht_sensor.c ****         modbus_input_buf[id*5+1] = sht_list[id].humi.user = (sht_list[id].humi.a_user * sht_list[id
 1440              		.loc 1 171 87 view .LVU326
 1441 008c 288C     		ldrh	r0, [r5, #32]
 1442 008e FFF7FEFF 		bl	__aeabi_i2f
 1443              	.LVL168:
 1444 0092 4146     		mov	r1, r8
 1445 0094 FFF7FEFF 		bl	__aeabi_fmul
 1446              	.LVL169:
 1447 0098 FFF7FEFF 		bl	__aeabi_f2d
 1448              	.LVL170:
 171:User/Peripherals/sht_sensor.c ****         modbus_input_buf[id*5+1] = sht_list[id].humi.user = (sht_list[id].humi.a_user * sht_list[id
 1449              		.loc 1 171 111 view .LVU327
ARM GAS  /tmp/cc9GgjmC.s 			page 34


 1450 009c 0022     		movs	r2, #0
 1451 009e 224B     		ldr	r3, .L58+8
 1452 00a0 FFF7FEFF 		bl	__aeabi_ddiv
 1453              	.LVL171:
 1454 00a4 8046     		mov	r8, r0
 1455 00a6 8946     		mov	r9, r1
 171:User/Peripherals/sht_sensor.c ****         modbus_input_buf[id*5+1] = sht_list[id].humi.user = (sht_list[id].humi.a_user * sht_list[id
 1456              		.loc 1 171 137 view .LVU328
 1457 00a8 A86A     		ldr	r0, [r5, #40]	@ float
 1458 00aa FFF7FEFF 		bl	__aeabi_f2d
 1459              	.LVL172:
 1460 00ae 0246     		mov	r2, r0
 1461 00b0 0B46     		mov	r3, r1
 171:User/Peripherals/sht_sensor.c ****         modbus_input_buf[id*5+1] = sht_list[id].humi.user = (sht_list[id].humi.a_user * sht_list[id
 1462              		.loc 1 171 118 view .LVU329
 1463 00b2 4046     		mov	r0, r8
 1464 00b4 4946     		mov	r1, r9
 1465 00b6 FFF7FEFF 		bl	__aeabi_dadd
 1466              	.LVL173:
 171:User/Peripherals/sht_sensor.c ****         modbus_input_buf[id*5+1] = sht_list[id].humi.user = (sht_list[id].humi.a_user * sht_list[id
 1467              		.loc 1 171 146 view .LVU330
 1468 00ba 0022     		movs	r2, #0
 1469 00bc 1A4B     		ldr	r3, .L58+8
 1470 00be FFF7FEFF 		bl	__aeabi_dmul
 1471              	.LVL174:
 171:User/Peripherals/sht_sensor.c ****         modbus_input_buf[id*5+1] = sht_list[id].humi.user = (sht_list[id].humi.a_user * sht_list[id
 1472              		.loc 1 171 59 view .LVU331
 1473 00c2 FFF7FEFF 		bl	__aeabi_d2uiz
 1474              	.LVL175:
 1475 00c6 80B2     		uxth	r0, r0
 1476 00c8 6884     		strh	r0, [r5, #34]	@ movhi
 171:User/Peripherals/sht_sensor.c ****         modbus_input_buf[id*5+1] = sht_list[id].humi.user = (sht_list[id].humi.a_user * sht_list[id
 1477              		.loc 1 171 30 view .LVU332
 1478 00ca 0136     		adds	r6, r6, #1
 171:User/Peripherals/sht_sensor.c ****         modbus_input_buf[id*5+1] = sht_list[id].humi.user = (sht_list[id].humi.a_user * sht_list[id
 1479              		.loc 1 171 34 view .LVU333
 1480 00cc 2AF81600 		strh	r0, [r10, r6, lsl #1]	@ movhi
 1481              	.L54:
 178:User/Peripherals/sht_sensor.c ****     if(sht_id < 8) {
 1482              		.loc 1 178 5 is_stmt 1 view .LVU334
 178:User/Peripherals/sht_sensor.c ****     if(sht_id < 8) {
 1483              		.loc 1 178 15 is_stmt 0 view .LVU335
 1484 00d0 164B     		ldr	r3, .L58+12
 1485 00d2 1B78     		ldrb	r3, [r3]	@ zero_extendqisi2
 178:User/Peripherals/sht_sensor.c ****     if(sht_id < 8) {
 1486              		.loc 1 178 7 view .LVU336
 1487 00d4 072B     		cmp	r3, #7
 1488 00d6 1AD8     		bhi	.L55
 179:User/Peripherals/sht_sensor.c ****         sht_cnt++;
 1489              		.loc 1 179 9 is_stmt 1 view .LVU337
 179:User/Peripherals/sht_sensor.c ****         sht_cnt++;
 1490              		.loc 1 179 16 is_stmt 0 view .LVU338
 1491 00d8 154A     		ldr	r2, .L58+16
 1492 00da 1378     		ldrb	r3, [r2]	@ zero_extendqisi2
 1493 00dc 0133     		adds	r3, r3, #1
 1494 00de 1370     		strb	r3, [r2]
 1495              	.L56:
ARM GAS  /tmp/cc9GgjmC.s 			page 35


 186:User/Peripherals/sht_sensor.c ****     waitting = 1; // Next con tiep theo
 1496              		.loc 1 186 5 is_stmt 1 view .LVU339
 186:User/Peripherals/sht_sensor.c ****     waitting = 1; // Next con tiep theo
 1497              		.loc 1 186 14 is_stmt 0 view .LVU340
 1498 00e0 144B     		ldr	r3, .L58+20
 1499 00e2 0122     		movs	r2, #1
 1500 00e4 1A70     		strb	r2, [r3]
 187:User/Peripherals/sht_sensor.c ****     sht_tick = HAL_GetTick();
 1501              		.loc 1 187 5 is_stmt 1 view .LVU341
 187:User/Peripherals/sht_sensor.c ****     sht_tick = HAL_GetTick();
 1502              		.loc 1 187 16 is_stmt 0 view .LVU342
 1503 00e6 FFF7FEFF 		bl	HAL_GetTick
 1504              	.LVL176:
 187:User/Peripherals/sht_sensor.c ****     sht_tick = HAL_GetTick();
 1505              		.loc 1 187 14 view .LVU343
 1506 00ea 134B     		ldr	r3, .L58+24
 1507 00ec 1860     		str	r0, [r3]
 188:User/Peripherals/sht_sensor.c **** }
 1508              		.loc 1 188 1 view .LVU344
 1509 00ee BDE8F88F 		pop	{r3, r4, r5, r6, r7, r8, r9, r10, fp, pc}
 1510              	.L53:
 175:User/Peripherals/sht_sensor.c ****         modbus_input_buf[id*5+2] = sht_list[id].state = 2;
 1511              		.loc 1 175 9 is_stmt 1 view .LVU345
 175:User/Peripherals/sht_sensor.c ****         modbus_input_buf[id*5+2] = sht_list[id].state = 2;
 1512              		.loc 1 175 55 is_stmt 0 view .LVU346
 1513 00f2 C4EB0412 		rsb	r2, r4, r4, lsl #4
 1514 00f6 0A4B     		ldr	r3, .L58
 1515 00f8 03EB8203 		add	r3, r3, r2, lsl #2
 1516 00fc 0222     		movs	r2, #2
 1517 00fe 5A70     		strb	r2, [r3, #1]
 175:User/Peripherals/sht_sensor.c ****         modbus_input_buf[id*5+2] = sht_list[id].state = 2;
 1518              		.loc 1 175 28 view .LVU347
 1519 0100 04EB8404 		add	r4, r4, r4, lsl #2
 175:User/Peripherals/sht_sensor.c ****         modbus_input_buf[id*5+2] = sht_list[id].state = 2;
 1520              		.loc 1 175 30 view .LVU348
 1521 0104 1444     		add	r4, r4, r2
 175:User/Peripherals/sht_sensor.c ****         modbus_input_buf[id*5+2] = sht_list[id].state = 2;
 1522              		.loc 1 175 34 view .LVU349
 1523 0106 074B     		ldr	r3, .L58+4
 1524 0108 23F81420 		strh	r2, [r3, r4, lsl #1]	@ movhi
 1525 010c E0E7     		b	.L54
 1526              	.L55:
 180:User/Peripherals/sht_sensor.c ****     } else if (sht_id == 8) {
 1527              		.loc 1 180 12 is_stmt 1 view .LVU350
 180:User/Peripherals/sht_sensor.c ****     } else if (sht_id == 8) {
 1528              		.loc 1 180 15 is_stmt 0 view .LVU351
 1529 010e 082B     		cmp	r3, #8
 1530 0110 E6D1     		bne	.L56
 182:User/Peripherals/sht_sensor.c ****         SHT_Measurement_Sum();
 1531              		.loc 1 182 9 is_stmt 1 view .LVU352
 1532 0112 FFF7FEFF 		bl	SHT_Measurement_Sum
 1533              	.LVL177:
 183:User/Peripherals/sht_sensor.c ****         sht_cnt = 0;
 1534              		.loc 1 183 9 view .LVU353
 183:User/Peripherals/sht_sensor.c ****         sht_cnt = 0;
 1535              		.loc 1 183 17 is_stmt 0 view .LVU354
 1536 0116 064B     		ldr	r3, .L58+16
ARM GAS  /tmp/cc9GgjmC.s 			page 36


 1537 0118 0022     		movs	r2, #0
 1538 011a 1A70     		strb	r2, [r3]
 1539 011c E0E7     		b	.L56
 1540              	.L59:
 1541 011e 00BF     		.align	2
 1542              	.L58:
 1543 0120 00000000 		.word	.LANCHOR0
 1544 0124 00000000 		.word	modbus_input_buf
 1545 0128 00002440 		.word	1076101120
 1546 012c 00000000 		.word	.LANCHOR4
 1547 0130 00000000 		.word	.LANCHOR5
 1548 0134 00000000 		.word	.LANCHOR3
 1549 0138 00000000 		.word	.LANCHOR2
 1550              		.cfi_endproc
 1551              	.LFE200:
 1553              		.global	kalman
 1554              		.global	sht_list
 1555              		.global	sht_tick
 1556              		.global	waitting
 1557              		.global	idx
 1558              		.global	sht_id
 1559              		.global	sht_cnt
 1560              		.section	.bss.kalman,"aw",%nobits
 1561              		.align	2
 1564              	kalman:
 1565 0000 00000000 		.space	68
 1565      00000000 
 1565      00000000 
 1565      00000000 
 1565      00000000 
 1566              		.section	.bss.sht_cnt,"aw",%nobits
 1567              		.set	.LANCHOR5,. + 0
 1570              	sht_cnt:
 1571 0000 00       		.space	1
 1572              		.section	.bss.sht_id,"aw",%nobits
 1573              		.set	.LANCHOR4,. + 0
 1576              	sht_id:
 1577 0000 00       		.space	1
 1578              		.section	.bss.sht_list,"aw",%nobits
 1579              		.align	2
 1580              		.set	.LANCHOR0,. + 0
 1583              	sht_list:
 1584 0000 00000000 		.space	600
 1584      00000000 
 1584      00000000 
 1584      00000000 
 1584      00000000 
 1585              		.section	.bss.sht_tick,"aw",%nobits
 1586              		.align	2
 1587              		.set	.LANCHOR2,. + 0
 1590              	sht_tick:
 1591 0000 00000000 		.space	4
 1592              		.section	.bss.waitting,"aw",%nobits
 1593              		.set	.LANCHOR3,. + 0
 1596              	waitting:
 1597 0000 00       		.space	1
 1598              		.section	.data.idx,"aw"
ARM GAS  /tmp/cc9GgjmC.s 			page 37


 1599              		.set	.LANCHOR1,. + 0
 1602              	idx:
 1603 0000 01       		.byte	1
 1604              		.text
 1605              	.Letext0:
 1606              		.file 2 "/usr/lib/gcc/arm-none-eabi/10.3.1/include/stdint.h"
 1607              		.file 3 "User/Peripherals/sht_sensor.h"
 1608              		.file 4 "User/Modbus/modbus_data.h"
 1609              		.file 5 "User/System/control_system.h"
 1610              		.file 6 "User/System/config.h"
 1611              		.file 7 "User/Math/kalman_filter.h"
 1612              		.file 8 "Inc/stm32f1xx_hal.h"
 1613              		.file 9 "/usr/include/newlib/stdio.h"
ARM GAS  /tmp/cc9GgjmC.s 			page 38

