ARM GAS  /tmp/ccYBp0oC.s 			page 1


   1              		.cpu cortex-m3
   2              		.eabi_attribute 20, 1
   3              		.eabi_attribute 21, 1
   4              		.eabi_attribute 23, 3
   5              		.eabi_attribute 24, 1
   6              		.eabi_attribute 25, 1
   7              		.eabi_attribute 26, 1
   8              		.eabi_attribute 30, 1
   9              		.eabi_attribute 34, 1
  10              		.eabi_attribute 18, 4
  11              		.file	"stm32f1xx_hal_rtc_ex.c"
  12              		.text
  13              	.Ltext0:
  14              		.cfi_sections	.debug_frame
  15              		.section	.text.HAL_RTCEx_SetTamper,"ax",%progbits
  16              		.align	1
  17              		.global	HAL_RTCEx_SetTamper
  18              		.arch armv7-m
  19              		.syntax unified
  20              		.thumb
  21              		.thumb_func
  22              		.fpu softvfp
  24              	HAL_RTCEx_SetTamper:
  25              	.LVL0:
  26              	.LFB65:
  27              		.file 1 "/home/smartth/STM32Cube/Repository/STM32Cube_FW_F1_V1.8.4//Drivers/STM32F1xx_HAL_Driver/S
   1:/home/smartth/STM32Cube/Repository/STM32Cube_FW_F1_V1.8.4//Drivers/STM32F1xx_HAL_Driver/Src/stm32f1xx_hal_rtc_ex.c **** /**
   2:/home/smartth/STM32Cube/Repository/STM32Cube_FW_F1_V1.8.4//Drivers/STM32F1xx_HAL_Driver/Src/stm32f1xx_hal_rtc_ex.c ****   ******************************************************************************
   3:/home/smartth/STM32Cube/Repository/STM32Cube_FW_F1_V1.8.4//Drivers/STM32F1xx_HAL_Driver/Src/stm32f1xx_hal_rtc_ex.c ****   * @file    stm32f1xx_hal_rtc_ex.c
   4:/home/smartth/STM32Cube/Repository/STM32Cube_FW_F1_V1.8.4//Drivers/STM32F1xx_HAL_Driver/Src/stm32f1xx_hal_rtc_ex.c ****   * @author  MCD Application Team
   5:/home/smartth/STM32Cube/Repository/STM32Cube_FW_F1_V1.8.4//Drivers/STM32F1xx_HAL_Driver/Src/stm32f1xx_hal_rtc_ex.c ****   * @brief   Extended RTC HAL module driver.
   6:/home/smartth/STM32Cube/Repository/STM32Cube_FW_F1_V1.8.4//Drivers/STM32F1xx_HAL_Driver/Src/stm32f1xx_hal_rtc_ex.c ****   *          This file provides firmware functions to manage the following
   7:/home/smartth/STM32Cube/Repository/STM32Cube_FW_F1_V1.8.4//Drivers/STM32F1xx_HAL_Driver/Src/stm32f1xx_hal_rtc_ex.c ****   *          functionalities of the Real Time Clock (RTC) Extension peripheral:
   8:/home/smartth/STM32Cube/Repository/STM32Cube_FW_F1_V1.8.4//Drivers/STM32F1xx_HAL_Driver/Src/stm32f1xx_hal_rtc_ex.c ****   *           + RTC Tamper functions
   9:/home/smartth/STM32Cube/Repository/STM32Cube_FW_F1_V1.8.4//Drivers/STM32F1xx_HAL_Driver/Src/stm32f1xx_hal_rtc_ex.c ****   *           + Extension Control functions
  10:/home/smartth/STM32Cube/Repository/STM32Cube_FW_F1_V1.8.4//Drivers/STM32F1xx_HAL_Driver/Src/stm32f1xx_hal_rtc_ex.c ****   *           + Extension RTC features functions
  11:/home/smartth/STM32Cube/Repository/STM32Cube_FW_F1_V1.8.4//Drivers/STM32F1xx_HAL_Driver/Src/stm32f1xx_hal_rtc_ex.c ****   *
  12:/home/smartth/STM32Cube/Repository/STM32Cube_FW_F1_V1.8.4//Drivers/STM32F1xx_HAL_Driver/Src/stm32f1xx_hal_rtc_ex.c ****   ******************************************************************************
  13:/home/smartth/STM32Cube/Repository/STM32Cube_FW_F1_V1.8.4//Drivers/STM32F1xx_HAL_Driver/Src/stm32f1xx_hal_rtc_ex.c ****   * @attention
  14:/home/smartth/STM32Cube/Repository/STM32Cube_FW_F1_V1.8.4//Drivers/STM32F1xx_HAL_Driver/Src/stm32f1xx_hal_rtc_ex.c ****   *
  15:/home/smartth/STM32Cube/Repository/STM32Cube_FW_F1_V1.8.4//Drivers/STM32F1xx_HAL_Driver/Src/stm32f1xx_hal_rtc_ex.c ****   * <h2><center>&copy; Copyright (c) 2016 STMicroelectronics.
  16:/home/smartth/STM32Cube/Repository/STM32Cube_FW_F1_V1.8.4//Drivers/STM32F1xx_HAL_Driver/Src/stm32f1xx_hal_rtc_ex.c ****   * All rights reserved.</center></h2>
  17:/home/smartth/STM32Cube/Repository/STM32Cube_FW_F1_V1.8.4//Drivers/STM32F1xx_HAL_Driver/Src/stm32f1xx_hal_rtc_ex.c ****   *
  18:/home/smartth/STM32Cube/Repository/STM32Cube_FW_F1_V1.8.4//Drivers/STM32F1xx_HAL_Driver/Src/stm32f1xx_hal_rtc_ex.c ****   * This software component is licensed by ST under BSD 3-Clause license,
  19:/home/smartth/STM32Cube/Repository/STM32Cube_FW_F1_V1.8.4//Drivers/STM32F1xx_HAL_Driver/Src/stm32f1xx_hal_rtc_ex.c ****   * the "License"; You may not use this file except in compliance with the
  20:/home/smartth/STM32Cube/Repository/STM32Cube_FW_F1_V1.8.4//Drivers/STM32F1xx_HAL_Driver/Src/stm32f1xx_hal_rtc_ex.c ****   * License. You may obtain a copy of the License at:
  21:/home/smartth/STM32Cube/Repository/STM32Cube_FW_F1_V1.8.4//Drivers/STM32F1xx_HAL_Driver/Src/stm32f1xx_hal_rtc_ex.c ****   *                        opensource.org/licenses/BSD-3-Clause
  22:/home/smartth/STM32Cube/Repository/STM32Cube_FW_F1_V1.8.4//Drivers/STM32F1xx_HAL_Driver/Src/stm32f1xx_hal_rtc_ex.c ****   *
  23:/home/smartth/STM32Cube/Repository/STM32Cube_FW_F1_V1.8.4//Drivers/STM32F1xx_HAL_Driver/Src/stm32f1xx_hal_rtc_ex.c ****   ******************************************************************************
  24:/home/smartth/STM32Cube/Repository/STM32Cube_FW_F1_V1.8.4//Drivers/STM32F1xx_HAL_Driver/Src/stm32f1xx_hal_rtc_ex.c ****   */
  25:/home/smartth/STM32Cube/Repository/STM32Cube_FW_F1_V1.8.4//Drivers/STM32F1xx_HAL_Driver/Src/stm32f1xx_hal_rtc_ex.c **** 
  26:/home/smartth/STM32Cube/Repository/STM32Cube_FW_F1_V1.8.4//Drivers/STM32F1xx_HAL_Driver/Src/stm32f1xx_hal_rtc_ex.c **** /* Includes ------------------------------------------------------------------*/
  27:/home/smartth/STM32Cube/Repository/STM32Cube_FW_F1_V1.8.4//Drivers/STM32F1xx_HAL_Driver/Src/stm32f1xx_hal_rtc_ex.c **** #include "stm32f1xx_hal.h"
  28:/home/smartth/STM32Cube/Repository/STM32Cube_FW_F1_V1.8.4//Drivers/STM32F1xx_HAL_Driver/Src/stm32f1xx_hal_rtc_ex.c **** 
  29:/home/smartth/STM32Cube/Repository/STM32Cube_FW_F1_V1.8.4//Drivers/STM32F1xx_HAL_Driver/Src/stm32f1xx_hal_rtc_ex.c **** /** @addtogroup STM32F1xx_HAL_Driver
  30:/home/smartth/STM32Cube/Repository/STM32Cube_FW_F1_V1.8.4//Drivers/STM32F1xx_HAL_Driver/Src/stm32f1xx_hal_rtc_ex.c ****   * @{
  31:/home/smartth/STM32Cube/Repository/STM32Cube_FW_F1_V1.8.4//Drivers/STM32F1xx_HAL_Driver/Src/stm32f1xx_hal_rtc_ex.c ****   */
ARM GAS  /tmp/ccYBp0oC.s 			page 2


  32:/home/smartth/STM32Cube/Repository/STM32Cube_FW_F1_V1.8.4//Drivers/STM32F1xx_HAL_Driver/Src/stm32f1xx_hal_rtc_ex.c **** 
  33:/home/smartth/STM32Cube/Repository/STM32Cube_FW_F1_V1.8.4//Drivers/STM32F1xx_HAL_Driver/Src/stm32f1xx_hal_rtc_ex.c **** #ifdef HAL_RTC_MODULE_ENABLED
  34:/home/smartth/STM32Cube/Repository/STM32Cube_FW_F1_V1.8.4//Drivers/STM32F1xx_HAL_Driver/Src/stm32f1xx_hal_rtc_ex.c **** 
  35:/home/smartth/STM32Cube/Repository/STM32Cube_FW_F1_V1.8.4//Drivers/STM32F1xx_HAL_Driver/Src/stm32f1xx_hal_rtc_ex.c **** /** @defgroup RTCEx RTCEx
  36:/home/smartth/STM32Cube/Repository/STM32Cube_FW_F1_V1.8.4//Drivers/STM32F1xx_HAL_Driver/Src/stm32f1xx_hal_rtc_ex.c ****   * @brief RTC Extended HAL module driver
  37:/home/smartth/STM32Cube/Repository/STM32Cube_FW_F1_V1.8.4//Drivers/STM32F1xx_HAL_Driver/Src/stm32f1xx_hal_rtc_ex.c ****   * @{
  38:/home/smartth/STM32Cube/Repository/STM32Cube_FW_F1_V1.8.4//Drivers/STM32F1xx_HAL_Driver/Src/stm32f1xx_hal_rtc_ex.c ****   */
  39:/home/smartth/STM32Cube/Repository/STM32Cube_FW_F1_V1.8.4//Drivers/STM32F1xx_HAL_Driver/Src/stm32f1xx_hal_rtc_ex.c **** 
  40:/home/smartth/STM32Cube/Repository/STM32Cube_FW_F1_V1.8.4//Drivers/STM32F1xx_HAL_Driver/Src/stm32f1xx_hal_rtc_ex.c **** /* Private typedef -----------------------------------------------------------*/
  41:/home/smartth/STM32Cube/Repository/STM32Cube_FW_F1_V1.8.4//Drivers/STM32F1xx_HAL_Driver/Src/stm32f1xx_hal_rtc_ex.c **** /* Private define ------------------------------------------------------------*/
  42:/home/smartth/STM32Cube/Repository/STM32Cube_FW_F1_V1.8.4//Drivers/STM32F1xx_HAL_Driver/Src/stm32f1xx_hal_rtc_ex.c **** /* Private macro -------------------------------------------------------------*/
  43:/home/smartth/STM32Cube/Repository/STM32Cube_FW_F1_V1.8.4//Drivers/STM32F1xx_HAL_Driver/Src/stm32f1xx_hal_rtc_ex.c **** /** @defgroup RTCEx_Private_Macros RTCEx Private Macros
  44:/home/smartth/STM32Cube/Repository/STM32Cube_FW_F1_V1.8.4//Drivers/STM32F1xx_HAL_Driver/Src/stm32f1xx_hal_rtc_ex.c ****   * @{
  45:/home/smartth/STM32Cube/Repository/STM32Cube_FW_F1_V1.8.4//Drivers/STM32F1xx_HAL_Driver/Src/stm32f1xx_hal_rtc_ex.c ****   */
  46:/home/smartth/STM32Cube/Repository/STM32Cube_FW_F1_V1.8.4//Drivers/STM32F1xx_HAL_Driver/Src/stm32f1xx_hal_rtc_ex.c **** /**
  47:/home/smartth/STM32Cube/Repository/STM32Cube_FW_F1_V1.8.4//Drivers/STM32F1xx_HAL_Driver/Src/stm32f1xx_hal_rtc_ex.c ****   * @}
  48:/home/smartth/STM32Cube/Repository/STM32Cube_FW_F1_V1.8.4//Drivers/STM32F1xx_HAL_Driver/Src/stm32f1xx_hal_rtc_ex.c ****   */
  49:/home/smartth/STM32Cube/Repository/STM32Cube_FW_F1_V1.8.4//Drivers/STM32F1xx_HAL_Driver/Src/stm32f1xx_hal_rtc_ex.c **** 
  50:/home/smartth/STM32Cube/Repository/STM32Cube_FW_F1_V1.8.4//Drivers/STM32F1xx_HAL_Driver/Src/stm32f1xx_hal_rtc_ex.c **** /* Private variables ---------------------------------------------------------*/
  51:/home/smartth/STM32Cube/Repository/STM32Cube_FW_F1_V1.8.4//Drivers/STM32F1xx_HAL_Driver/Src/stm32f1xx_hal_rtc_ex.c **** /* Private function prototypes -----------------------------------------------*/
  52:/home/smartth/STM32Cube/Repository/STM32Cube_FW_F1_V1.8.4//Drivers/STM32F1xx_HAL_Driver/Src/stm32f1xx_hal_rtc_ex.c **** /* Private functions ---------------------------------------------------------*/
  53:/home/smartth/STM32Cube/Repository/STM32Cube_FW_F1_V1.8.4//Drivers/STM32F1xx_HAL_Driver/Src/stm32f1xx_hal_rtc_ex.c **** 
  54:/home/smartth/STM32Cube/Repository/STM32Cube_FW_F1_V1.8.4//Drivers/STM32F1xx_HAL_Driver/Src/stm32f1xx_hal_rtc_ex.c **** /** @defgroup RTCEx_Exported_Functions RTCEx Exported Functions
  55:/home/smartth/STM32Cube/Repository/STM32Cube_FW_F1_V1.8.4//Drivers/STM32F1xx_HAL_Driver/Src/stm32f1xx_hal_rtc_ex.c ****   * @{
  56:/home/smartth/STM32Cube/Repository/STM32Cube_FW_F1_V1.8.4//Drivers/STM32F1xx_HAL_Driver/Src/stm32f1xx_hal_rtc_ex.c ****   */
  57:/home/smartth/STM32Cube/Repository/STM32Cube_FW_F1_V1.8.4//Drivers/STM32F1xx_HAL_Driver/Src/stm32f1xx_hal_rtc_ex.c **** 
  58:/home/smartth/STM32Cube/Repository/STM32Cube_FW_F1_V1.8.4//Drivers/STM32F1xx_HAL_Driver/Src/stm32f1xx_hal_rtc_ex.c **** /** @defgroup RTCEx_Exported_Functions_Group1 RTC Tamper functions
  59:/home/smartth/STM32Cube/Repository/STM32Cube_FW_F1_V1.8.4//Drivers/STM32F1xx_HAL_Driver/Src/stm32f1xx_hal_rtc_ex.c ****   * @brief    RTC Tamper functions
  60:/home/smartth/STM32Cube/Repository/STM32Cube_FW_F1_V1.8.4//Drivers/STM32F1xx_HAL_Driver/Src/stm32f1xx_hal_rtc_ex.c ****   *
  61:/home/smartth/STM32Cube/Repository/STM32Cube_FW_F1_V1.8.4//Drivers/STM32F1xx_HAL_Driver/Src/stm32f1xx_hal_rtc_ex.c **** @verbatim
  62:/home/smartth/STM32Cube/Repository/STM32Cube_FW_F1_V1.8.4//Drivers/STM32F1xx_HAL_Driver/Src/stm32f1xx_hal_rtc_ex.c ****  ===============================================================================
  63:/home/smartth/STM32Cube/Repository/STM32Cube_FW_F1_V1.8.4//Drivers/STM32F1xx_HAL_Driver/Src/stm32f1xx_hal_rtc_ex.c ****                  ##### RTC Tamper functions #####
  64:/home/smartth/STM32Cube/Repository/STM32Cube_FW_F1_V1.8.4//Drivers/STM32F1xx_HAL_Driver/Src/stm32f1xx_hal_rtc_ex.c ****  ===============================================================================
  65:/home/smartth/STM32Cube/Repository/STM32Cube_FW_F1_V1.8.4//Drivers/STM32F1xx_HAL_Driver/Src/stm32f1xx_hal_rtc_ex.c **** 
  66:/home/smartth/STM32Cube/Repository/STM32Cube_FW_F1_V1.8.4//Drivers/STM32F1xx_HAL_Driver/Src/stm32f1xx_hal_rtc_ex.c ****  [..] This section provides functions allowing to configure Tamper feature
  67:/home/smartth/STM32Cube/Repository/STM32Cube_FW_F1_V1.8.4//Drivers/STM32F1xx_HAL_Driver/Src/stm32f1xx_hal_rtc_ex.c **** 
  68:/home/smartth/STM32Cube/Repository/STM32Cube_FW_F1_V1.8.4//Drivers/STM32F1xx_HAL_Driver/Src/stm32f1xx_hal_rtc_ex.c **** @endverbatim
  69:/home/smartth/STM32Cube/Repository/STM32Cube_FW_F1_V1.8.4//Drivers/STM32F1xx_HAL_Driver/Src/stm32f1xx_hal_rtc_ex.c ****   * @{
  70:/home/smartth/STM32Cube/Repository/STM32Cube_FW_F1_V1.8.4//Drivers/STM32F1xx_HAL_Driver/Src/stm32f1xx_hal_rtc_ex.c ****   */
  71:/home/smartth/STM32Cube/Repository/STM32Cube_FW_F1_V1.8.4//Drivers/STM32F1xx_HAL_Driver/Src/stm32f1xx_hal_rtc_ex.c **** 
  72:/home/smartth/STM32Cube/Repository/STM32Cube_FW_F1_V1.8.4//Drivers/STM32F1xx_HAL_Driver/Src/stm32f1xx_hal_rtc_ex.c **** /**
  73:/home/smartth/STM32Cube/Repository/STM32Cube_FW_F1_V1.8.4//Drivers/STM32F1xx_HAL_Driver/Src/stm32f1xx_hal_rtc_ex.c ****   * @brief  Sets Tamper
  74:/home/smartth/STM32Cube/Repository/STM32Cube_FW_F1_V1.8.4//Drivers/STM32F1xx_HAL_Driver/Src/stm32f1xx_hal_rtc_ex.c ****   * @note   By calling this API we disable the tamper interrupt for all tampers.
  75:/home/smartth/STM32Cube/Repository/STM32Cube_FW_F1_V1.8.4//Drivers/STM32F1xx_HAL_Driver/Src/stm32f1xx_hal_rtc_ex.c ****   * @param  hrtc: pointer to a RTC_HandleTypeDef structure that contains
  76:/home/smartth/STM32Cube/Repository/STM32Cube_FW_F1_V1.8.4//Drivers/STM32F1xx_HAL_Driver/Src/stm32f1xx_hal_rtc_ex.c ****   *                the configuration information for RTC.
  77:/home/smartth/STM32Cube/Repository/STM32Cube_FW_F1_V1.8.4//Drivers/STM32F1xx_HAL_Driver/Src/stm32f1xx_hal_rtc_ex.c ****   * @param  sTamper: Pointer to Tamper Structure.
  78:/home/smartth/STM32Cube/Repository/STM32Cube_FW_F1_V1.8.4//Drivers/STM32F1xx_HAL_Driver/Src/stm32f1xx_hal_rtc_ex.c ****   * @note   Tamper can be enabled only if ASOE and CCO bit are reset
  79:/home/smartth/STM32Cube/Repository/STM32Cube_FW_F1_V1.8.4//Drivers/STM32F1xx_HAL_Driver/Src/stm32f1xx_hal_rtc_ex.c ****   * @retval HAL status
  80:/home/smartth/STM32Cube/Repository/STM32Cube_FW_F1_V1.8.4//Drivers/STM32F1xx_HAL_Driver/Src/stm32f1xx_hal_rtc_ex.c ****   */
  81:/home/smartth/STM32Cube/Repository/STM32Cube_FW_F1_V1.8.4//Drivers/STM32F1xx_HAL_Driver/Src/stm32f1xx_hal_rtc_ex.c **** HAL_StatusTypeDef HAL_RTCEx_SetTamper(RTC_HandleTypeDef *hrtc, RTC_TamperTypeDef *sTamper)
  82:/home/smartth/STM32Cube/Repository/STM32Cube_FW_F1_V1.8.4//Drivers/STM32F1xx_HAL_Driver/Src/stm32f1xx_hal_rtc_ex.c **** {
  28              		.loc 1 82 1 view -0
  29              		.cfi_startproc
  30              		@ args = 0, pretend = 0, frame = 0
  31              		@ frame_needed = 0, uses_anonymous_args = 0
  32              		@ link register save eliminated.
  83:/home/smartth/STM32Cube/Repository/STM32Cube_FW_F1_V1.8.4//Drivers/STM32F1xx_HAL_Driver/Src/stm32f1xx_hal_rtc_ex.c ****   /* Check input parameters */
ARM GAS  /tmp/ccYBp0oC.s 			page 3


  84:/home/smartth/STM32Cube/Repository/STM32Cube_FW_F1_V1.8.4//Drivers/STM32F1xx_HAL_Driver/Src/stm32f1xx_hal_rtc_ex.c ****   if ((hrtc == NULL) || (sTamper == NULL))
  33              		.loc 1 84 3 view .LVU1
  34              		.loc 1 84 6 is_stmt 0 view .LVU2
  35 0000 18B3     		cbz	r0, .L4
  36 0002 0346     		mov	r3, r0
  37              		.loc 1 84 22 discriminator 1 view .LVU3
  38 0004 19B3     		cbz	r1, .L5
  85:/home/smartth/STM32Cube/Repository/STM32Cube_FW_F1_V1.8.4//Drivers/STM32F1xx_HAL_Driver/Src/stm32f1xx_hal_rtc_ex.c ****   {
  86:/home/smartth/STM32Cube/Repository/STM32Cube_FW_F1_V1.8.4//Drivers/STM32F1xx_HAL_Driver/Src/stm32f1xx_hal_rtc_ex.c ****     return HAL_ERROR;
  87:/home/smartth/STM32Cube/Repository/STM32Cube_FW_F1_V1.8.4//Drivers/STM32F1xx_HAL_Driver/Src/stm32f1xx_hal_rtc_ex.c ****   }
  88:/home/smartth/STM32Cube/Repository/STM32Cube_FW_F1_V1.8.4//Drivers/STM32F1xx_HAL_Driver/Src/stm32f1xx_hal_rtc_ex.c **** 
  89:/home/smartth/STM32Cube/Repository/STM32Cube_FW_F1_V1.8.4//Drivers/STM32F1xx_HAL_Driver/Src/stm32f1xx_hal_rtc_ex.c ****   /* Check the parameters */
  90:/home/smartth/STM32Cube/Repository/STM32Cube_FW_F1_V1.8.4//Drivers/STM32F1xx_HAL_Driver/Src/stm32f1xx_hal_rtc_ex.c ****   assert_param(IS_RTC_TAMPER(sTamper->Tamper));
  39              		.loc 1 90 3 is_stmt 1 view .LVU4
  91:/home/smartth/STM32Cube/Repository/STM32Cube_FW_F1_V1.8.4//Drivers/STM32F1xx_HAL_Driver/Src/stm32f1xx_hal_rtc_ex.c ****   assert_param(IS_RTC_TAMPER_TRIGGER(sTamper->Trigger));
  40              		.loc 1 91 3 view .LVU5
  92:/home/smartth/STM32Cube/Repository/STM32Cube_FW_F1_V1.8.4//Drivers/STM32F1xx_HAL_Driver/Src/stm32f1xx_hal_rtc_ex.c **** 
  93:/home/smartth/STM32Cube/Repository/STM32Cube_FW_F1_V1.8.4//Drivers/STM32F1xx_HAL_Driver/Src/stm32f1xx_hal_rtc_ex.c ****   /* Process Locked */
  94:/home/smartth/STM32Cube/Repository/STM32Cube_FW_F1_V1.8.4//Drivers/STM32F1xx_HAL_Driver/Src/stm32f1xx_hal_rtc_ex.c ****   __HAL_LOCK(hrtc);
  41              		.loc 1 94 3 view .LVU6
  42              		.loc 1 94 3 view .LVU7
  43 0006 027C     		ldrb	r2, [r0, #16]	@ zero_extendqisi2
  44 0008 012A     		cmp	r2, #1
  45 000a 22D0     		beq	.L6
  46              		.loc 1 94 3 discriminator 2 view .LVU8
  47 000c 0122     		movs	r2, #1
  48 000e 0274     		strb	r2, [r0, #16]
  49              		.loc 1 94 3 discriminator 2 view .LVU9
  95:/home/smartth/STM32Cube/Repository/STM32Cube_FW_F1_V1.8.4//Drivers/STM32F1xx_HAL_Driver/Src/stm32f1xx_hal_rtc_ex.c **** 
  96:/home/smartth/STM32Cube/Repository/STM32Cube_FW_F1_V1.8.4//Drivers/STM32F1xx_HAL_Driver/Src/stm32f1xx_hal_rtc_ex.c ****   hrtc->State = HAL_RTC_STATE_BUSY;
  50              		.loc 1 96 3 discriminator 2 view .LVU10
  51              		.loc 1 96 15 is_stmt 0 discriminator 2 view .LVU11
  52 0010 0222     		movs	r2, #2
  53 0012 4274     		strb	r2, [r0, #17]
  97:/home/smartth/STM32Cube/Repository/STM32Cube_FW_F1_V1.8.4//Drivers/STM32F1xx_HAL_Driver/Src/stm32f1xx_hal_rtc_ex.c **** 
  98:/home/smartth/STM32Cube/Repository/STM32Cube_FW_F1_V1.8.4//Drivers/STM32F1xx_HAL_Driver/Src/stm32f1xx_hal_rtc_ex.c ****   if (HAL_IS_BIT_SET(BKP->RTCCR, (BKP_RTCCR_CCO | BKP_RTCCR_ASOE)))
  54              		.loc 1 98 3 is_stmt 1 discriminator 2 view .LVU12
  55              		.loc 1 98 7 is_stmt 0 discriminator 2 view .LVU13
  56 0014 104A     		ldr	r2, .L11
  57 0016 D26A     		ldr	r2, [r2, #44]
  58              		.loc 1 98 6 discriminator 2 view .LVU14
  59 0018 12F4C07F 		tst	r2, #384
  60 001c 0FD1     		bne	.L10
  82:/home/smartth/STM32Cube/Repository/STM32Cube_FW_F1_V1.8.4//Drivers/STM32F1xx_HAL_Driver/Src/stm32f1xx_hal_rtc_ex.c ****   /* Check input parameters */
  61              		.loc 1 82 1 view .LVU15
  62 001e 10B4     		push	{r4}
  63              	.LCFI0:
  64              		.cfi_def_cfa_offset 4
  65              		.cfi_offset 4, -4
  99:/home/smartth/STM32Cube/Repository/STM32Cube_FW_F1_V1.8.4//Drivers/STM32F1xx_HAL_Driver/Src/stm32f1xx_hal_rtc_ex.c ****   {
 100:/home/smartth/STM32Cube/Repository/STM32Cube_FW_F1_V1.8.4//Drivers/STM32F1xx_HAL_Driver/Src/stm32f1xx_hal_rtc_ex.c ****     hrtc->State = HAL_RTC_STATE_ERROR;
 101:/home/smartth/STM32Cube/Repository/STM32Cube_FW_F1_V1.8.4//Drivers/STM32F1xx_HAL_Driver/Src/stm32f1xx_hal_rtc_ex.c **** 
 102:/home/smartth/STM32Cube/Repository/STM32Cube_FW_F1_V1.8.4//Drivers/STM32F1xx_HAL_Driver/Src/stm32f1xx_hal_rtc_ex.c ****     /* Process Unlocked */
 103:/home/smartth/STM32Cube/Repository/STM32Cube_FW_F1_V1.8.4//Drivers/STM32F1xx_HAL_Driver/Src/stm32f1xx_hal_rtc_ex.c ****     __HAL_UNLOCK(hrtc);
 104:/home/smartth/STM32Cube/Repository/STM32Cube_FW_F1_V1.8.4//Drivers/STM32F1xx_HAL_Driver/Src/stm32f1xx_hal_rtc_ex.c **** 
 105:/home/smartth/STM32Cube/Repository/STM32Cube_FW_F1_V1.8.4//Drivers/STM32F1xx_HAL_Driver/Src/stm32f1xx_hal_rtc_ex.c ****     return HAL_ERROR;
 106:/home/smartth/STM32Cube/Repository/STM32Cube_FW_F1_V1.8.4//Drivers/STM32F1xx_HAL_Driver/Src/stm32f1xx_hal_rtc_ex.c ****   }
ARM GAS  /tmp/ccYBp0oC.s 			page 4


 107:/home/smartth/STM32Cube/Repository/STM32Cube_FW_F1_V1.8.4//Drivers/STM32F1xx_HAL_Driver/Src/stm32f1xx_hal_rtc_ex.c **** 
 108:/home/smartth/STM32Cube/Repository/STM32Cube_FW_F1_V1.8.4//Drivers/STM32F1xx_HAL_Driver/Src/stm32f1xx_hal_rtc_ex.c ****   MODIFY_REG(BKP->CR, (BKP_CR_TPE | BKP_CR_TPAL), (sTamper->Tamper | (sTamper->Trigger)));
  66              		.loc 1 108 3 is_stmt 1 view .LVU16
  67 0020 0D4C     		ldr	r4, .L11
  68 0022 226B     		ldr	r2, [r4, #48]
  69 0024 22F00302 		bic	r2, r2, #3
  70 0028 0868     		ldr	r0, [r1]
  71              	.LVL1:
  72              		.loc 1 108 3 is_stmt 0 view .LVU17
  73 002a 4968     		ldr	r1, [r1, #4]
  74              	.LVL2:
  75              		.loc 1 108 3 view .LVU18
  76 002c 0143     		orrs	r1, r1, r0
  77 002e 0A43     		orrs	r2, r2, r1
  78 0030 2263     		str	r2, [r4, #48]
 109:/home/smartth/STM32Cube/Repository/STM32Cube_FW_F1_V1.8.4//Drivers/STM32F1xx_HAL_Driver/Src/stm32f1xx_hal_rtc_ex.c **** 
 110:/home/smartth/STM32Cube/Repository/STM32Cube_FW_F1_V1.8.4//Drivers/STM32F1xx_HAL_Driver/Src/stm32f1xx_hal_rtc_ex.c ****   hrtc->State = HAL_RTC_STATE_READY;
  79              		.loc 1 110 3 is_stmt 1 view .LVU19
  80              		.loc 1 110 15 is_stmt 0 view .LVU20
  81 0032 0122     		movs	r2, #1
  82 0034 5A74     		strb	r2, [r3, #17]
 111:/home/smartth/STM32Cube/Repository/STM32Cube_FW_F1_V1.8.4//Drivers/STM32F1xx_HAL_Driver/Src/stm32f1xx_hal_rtc_ex.c **** 
 112:/home/smartth/STM32Cube/Repository/STM32Cube_FW_F1_V1.8.4//Drivers/STM32F1xx_HAL_Driver/Src/stm32f1xx_hal_rtc_ex.c ****   /* Process Unlocked */
 113:/home/smartth/STM32Cube/Repository/STM32Cube_FW_F1_V1.8.4//Drivers/STM32F1xx_HAL_Driver/Src/stm32f1xx_hal_rtc_ex.c ****   __HAL_UNLOCK(hrtc);
  83              		.loc 1 113 3 is_stmt 1 view .LVU21
  84              		.loc 1 113 3 view .LVU22
  85 0036 0020     		movs	r0, #0
  86 0038 1874     		strb	r0, [r3, #16]
  87              		.loc 1 113 3 view .LVU23
 114:/home/smartth/STM32Cube/Repository/STM32Cube_FW_F1_V1.8.4//Drivers/STM32F1xx_HAL_Driver/Src/stm32f1xx_hal_rtc_ex.c **** 
 115:/home/smartth/STM32Cube/Repository/STM32Cube_FW_F1_V1.8.4//Drivers/STM32F1xx_HAL_Driver/Src/stm32f1xx_hal_rtc_ex.c ****   return HAL_OK;
  88              		.loc 1 115 3 view .LVU24
 116:/home/smartth/STM32Cube/Repository/STM32Cube_FW_F1_V1.8.4//Drivers/STM32F1xx_HAL_Driver/Src/stm32f1xx_hal_rtc_ex.c **** }
  89              		.loc 1 116 1 is_stmt 0 view .LVU25
  90 003a 10BC     		pop	{r4}
  91              	.LCFI1:
  92              		.cfi_restore 4
  93              		.cfi_def_cfa_offset 0
  94 003c 7047     		bx	lr
  95              	.LVL3:
  96              	.L10:
 100:/home/smartth/STM32Cube/Repository/STM32Cube_FW_F1_V1.8.4//Drivers/STM32F1xx_HAL_Driver/Src/stm32f1xx_hal_rtc_ex.c **** 
  97              		.loc 1 100 5 is_stmt 1 view .LVU26
 100:/home/smartth/STM32Cube/Repository/STM32Cube_FW_F1_V1.8.4//Drivers/STM32F1xx_HAL_Driver/Src/stm32f1xx_hal_rtc_ex.c **** 
  98              		.loc 1 100 17 is_stmt 0 view .LVU27
  99 003e 0422     		movs	r2, #4
 100 0040 4274     		strb	r2, [r0, #17]
 103:/home/smartth/STM32Cube/Repository/STM32Cube_FW_F1_V1.8.4//Drivers/STM32F1xx_HAL_Driver/Src/stm32f1xx_hal_rtc_ex.c **** 
 101              		.loc 1 103 5 is_stmt 1 view .LVU28
 103:/home/smartth/STM32Cube/Repository/STM32Cube_FW_F1_V1.8.4//Drivers/STM32F1xx_HAL_Driver/Src/stm32f1xx_hal_rtc_ex.c **** 
 102              		.loc 1 103 5 view .LVU29
 103 0042 0022     		movs	r2, #0
 104 0044 0274     		strb	r2, [r0, #16]
 103:/home/smartth/STM32Cube/Repository/STM32Cube_FW_F1_V1.8.4//Drivers/STM32F1xx_HAL_Driver/Src/stm32f1xx_hal_rtc_ex.c **** 
 105              		.loc 1 103 5 view .LVU30
 105:/home/smartth/STM32Cube/Repository/STM32Cube_FW_F1_V1.8.4//Drivers/STM32F1xx_HAL_Driver/Src/stm32f1xx_hal_rtc_ex.c ****   }
 106              		.loc 1 105 5 view .LVU31
ARM GAS  /tmp/ccYBp0oC.s 			page 5


 105:/home/smartth/STM32Cube/Repository/STM32Cube_FW_F1_V1.8.4//Drivers/STM32F1xx_HAL_Driver/Src/stm32f1xx_hal_rtc_ex.c ****   }
 107              		.loc 1 105 12 is_stmt 0 view .LVU32
 108 0046 0120     		movs	r0, #1
 109              	.LVL4:
 105:/home/smartth/STM32Cube/Repository/STM32Cube_FW_F1_V1.8.4//Drivers/STM32F1xx_HAL_Driver/Src/stm32f1xx_hal_rtc_ex.c ****   }
 110              		.loc 1 105 12 view .LVU33
 111 0048 7047     		bx	lr
 112              	.LVL5:
 113              	.L4:
  86:/home/smartth/STM32Cube/Repository/STM32Cube_FW_F1_V1.8.4//Drivers/STM32F1xx_HAL_Driver/Src/stm32f1xx_hal_rtc_ex.c ****   }
 114              		.loc 1 86 12 view .LVU34
 115 004a 0120     		movs	r0, #1
 116              	.LVL6:
  86:/home/smartth/STM32Cube/Repository/STM32Cube_FW_F1_V1.8.4//Drivers/STM32F1xx_HAL_Driver/Src/stm32f1xx_hal_rtc_ex.c ****   }
 117              		.loc 1 86 12 view .LVU35
 118 004c 7047     		bx	lr
 119              	.LVL7:
 120              	.L5:
  86:/home/smartth/STM32Cube/Repository/STM32Cube_FW_F1_V1.8.4//Drivers/STM32F1xx_HAL_Driver/Src/stm32f1xx_hal_rtc_ex.c ****   }
 121              		.loc 1 86 12 view .LVU36
 122 004e 0120     		movs	r0, #1
 123              	.LVL8:
  86:/home/smartth/STM32Cube/Repository/STM32Cube_FW_F1_V1.8.4//Drivers/STM32F1xx_HAL_Driver/Src/stm32f1xx_hal_rtc_ex.c ****   }
 124              		.loc 1 86 12 view .LVU37
 125 0050 7047     		bx	lr
 126              	.LVL9:
 127              	.L6:
  94:/home/smartth/STM32Cube/Repository/STM32Cube_FW_F1_V1.8.4//Drivers/STM32F1xx_HAL_Driver/Src/stm32f1xx_hal_rtc_ex.c **** 
 128              		.loc 1 94 3 view .LVU38
 129 0052 0220     		movs	r0, #2
 130              	.LVL10:
 131              		.loc 1 116 1 view .LVU39
 132 0054 7047     		bx	lr
 133              	.L12:
 134 0056 00BF     		.align	2
 135              	.L11:
 136 0058 006C0040 		.word	1073769472
 137              		.cfi_endproc
 138              	.LFE65:
 140              		.section	.text.HAL_RTCEx_SetTamper_IT,"ax",%progbits
 141              		.align	1
 142              		.global	HAL_RTCEx_SetTamper_IT
 143              		.syntax unified
 144              		.thumb
 145              		.thumb_func
 146              		.fpu softvfp
 148              	HAL_RTCEx_SetTamper_IT:
 149              	.LVL11:
 150              	.LFB66:
 117:/home/smartth/STM32Cube/Repository/STM32Cube_FW_F1_V1.8.4//Drivers/STM32F1xx_HAL_Driver/Src/stm32f1xx_hal_rtc_ex.c **** 
 118:/home/smartth/STM32Cube/Repository/STM32Cube_FW_F1_V1.8.4//Drivers/STM32F1xx_HAL_Driver/Src/stm32f1xx_hal_rtc_ex.c **** /**
 119:/home/smartth/STM32Cube/Repository/STM32Cube_FW_F1_V1.8.4//Drivers/STM32F1xx_HAL_Driver/Src/stm32f1xx_hal_rtc_ex.c ****   * @brief  Sets Tamper with interrupt.
 120:/home/smartth/STM32Cube/Repository/STM32Cube_FW_F1_V1.8.4//Drivers/STM32F1xx_HAL_Driver/Src/stm32f1xx_hal_rtc_ex.c ****   * @note   By calling this API we force the tamper interrupt for all tampers.
 121:/home/smartth/STM32Cube/Repository/STM32Cube_FW_F1_V1.8.4//Drivers/STM32F1xx_HAL_Driver/Src/stm32f1xx_hal_rtc_ex.c ****   * @param  hrtc: pointer to a RTC_HandleTypeDef structure that contains
 122:/home/smartth/STM32Cube/Repository/STM32Cube_FW_F1_V1.8.4//Drivers/STM32F1xx_HAL_Driver/Src/stm32f1xx_hal_rtc_ex.c ****   *                the configuration information for RTC.
 123:/home/smartth/STM32Cube/Repository/STM32Cube_FW_F1_V1.8.4//Drivers/STM32F1xx_HAL_Driver/Src/stm32f1xx_hal_rtc_ex.c ****   * @param  sTamper: Pointer to RTC Tamper.
 124:/home/smartth/STM32Cube/Repository/STM32Cube_FW_F1_V1.8.4//Drivers/STM32F1xx_HAL_Driver/Src/stm32f1xx_hal_rtc_ex.c ****   * @note   Tamper can be enabled only if ASOE and CCO bit are reset
ARM GAS  /tmp/ccYBp0oC.s 			page 6


 125:/home/smartth/STM32Cube/Repository/STM32Cube_FW_F1_V1.8.4//Drivers/STM32F1xx_HAL_Driver/Src/stm32f1xx_hal_rtc_ex.c ****   * @retval HAL status
 126:/home/smartth/STM32Cube/Repository/STM32Cube_FW_F1_V1.8.4//Drivers/STM32F1xx_HAL_Driver/Src/stm32f1xx_hal_rtc_ex.c ****   */
 127:/home/smartth/STM32Cube/Repository/STM32Cube_FW_F1_V1.8.4//Drivers/STM32F1xx_HAL_Driver/Src/stm32f1xx_hal_rtc_ex.c **** HAL_StatusTypeDef HAL_RTCEx_SetTamper_IT(RTC_HandleTypeDef *hrtc, RTC_TamperTypeDef *sTamper)
 128:/home/smartth/STM32Cube/Repository/STM32Cube_FW_F1_V1.8.4//Drivers/STM32F1xx_HAL_Driver/Src/stm32f1xx_hal_rtc_ex.c **** {
 151              		.loc 1 128 1 is_stmt 1 view -0
 152              		.cfi_startproc
 153              		@ args = 0, pretend = 0, frame = 0
 154              		@ frame_needed = 0, uses_anonymous_args = 0
 155              		@ link register save eliminated.
 129:/home/smartth/STM32Cube/Repository/STM32Cube_FW_F1_V1.8.4//Drivers/STM32F1xx_HAL_Driver/Src/stm32f1xx_hal_rtc_ex.c ****   /* Check input parameters */
 130:/home/smartth/STM32Cube/Repository/STM32Cube_FW_F1_V1.8.4//Drivers/STM32F1xx_HAL_Driver/Src/stm32f1xx_hal_rtc_ex.c ****   if ((hrtc == NULL) || (sTamper == NULL))
 156              		.loc 1 130 3 view .LVU41
 157              		.loc 1 130 6 is_stmt 0 view .LVU42
 158 0000 38B3     		cbz	r0, .L16
 159 0002 0346     		mov	r3, r0
 160              		.loc 1 130 22 discriminator 1 view .LVU43
 161 0004 39B3     		cbz	r1, .L17
 131:/home/smartth/STM32Cube/Repository/STM32Cube_FW_F1_V1.8.4//Drivers/STM32F1xx_HAL_Driver/Src/stm32f1xx_hal_rtc_ex.c ****   {
 132:/home/smartth/STM32Cube/Repository/STM32Cube_FW_F1_V1.8.4//Drivers/STM32F1xx_HAL_Driver/Src/stm32f1xx_hal_rtc_ex.c ****     return HAL_ERROR;
 133:/home/smartth/STM32Cube/Repository/STM32Cube_FW_F1_V1.8.4//Drivers/STM32F1xx_HAL_Driver/Src/stm32f1xx_hal_rtc_ex.c ****   }
 134:/home/smartth/STM32Cube/Repository/STM32Cube_FW_F1_V1.8.4//Drivers/STM32F1xx_HAL_Driver/Src/stm32f1xx_hal_rtc_ex.c **** 
 135:/home/smartth/STM32Cube/Repository/STM32Cube_FW_F1_V1.8.4//Drivers/STM32F1xx_HAL_Driver/Src/stm32f1xx_hal_rtc_ex.c ****   /* Check the parameters */
 136:/home/smartth/STM32Cube/Repository/STM32Cube_FW_F1_V1.8.4//Drivers/STM32F1xx_HAL_Driver/Src/stm32f1xx_hal_rtc_ex.c ****   assert_param(IS_RTC_TAMPER(sTamper->Tamper));
 162              		.loc 1 136 3 is_stmt 1 view .LVU44
 137:/home/smartth/STM32Cube/Repository/STM32Cube_FW_F1_V1.8.4//Drivers/STM32F1xx_HAL_Driver/Src/stm32f1xx_hal_rtc_ex.c ****   assert_param(IS_RTC_TAMPER_TRIGGER(sTamper->Trigger));
 163              		.loc 1 137 3 view .LVU45
 138:/home/smartth/STM32Cube/Repository/STM32Cube_FW_F1_V1.8.4//Drivers/STM32F1xx_HAL_Driver/Src/stm32f1xx_hal_rtc_ex.c **** 
 139:/home/smartth/STM32Cube/Repository/STM32Cube_FW_F1_V1.8.4//Drivers/STM32F1xx_HAL_Driver/Src/stm32f1xx_hal_rtc_ex.c ****   /* Process Locked */
 140:/home/smartth/STM32Cube/Repository/STM32Cube_FW_F1_V1.8.4//Drivers/STM32F1xx_HAL_Driver/Src/stm32f1xx_hal_rtc_ex.c ****   __HAL_LOCK(hrtc);
 164              		.loc 1 140 3 view .LVU46
 165              		.loc 1 140 3 view .LVU47
 166 0006 027C     		ldrb	r2, [r0, #16]	@ zero_extendqisi2
 167 0008 012A     		cmp	r2, #1
 168 000a 26D0     		beq	.L18
 169              		.loc 1 140 3 discriminator 2 view .LVU48
 170 000c 0122     		movs	r2, #1
 171 000e 0274     		strb	r2, [r0, #16]
 172              		.loc 1 140 3 discriminator 2 view .LVU49
 141:/home/smartth/STM32Cube/Repository/STM32Cube_FW_F1_V1.8.4//Drivers/STM32F1xx_HAL_Driver/Src/stm32f1xx_hal_rtc_ex.c **** 
 142:/home/smartth/STM32Cube/Repository/STM32Cube_FW_F1_V1.8.4//Drivers/STM32F1xx_HAL_Driver/Src/stm32f1xx_hal_rtc_ex.c ****   hrtc->State = HAL_RTC_STATE_BUSY;
 173              		.loc 1 142 3 discriminator 2 view .LVU50
 174              		.loc 1 142 15 is_stmt 0 discriminator 2 view .LVU51
 175 0010 0222     		movs	r2, #2
 176 0012 4274     		strb	r2, [r0, #17]
 143:/home/smartth/STM32Cube/Repository/STM32Cube_FW_F1_V1.8.4//Drivers/STM32F1xx_HAL_Driver/Src/stm32f1xx_hal_rtc_ex.c **** 
 144:/home/smartth/STM32Cube/Repository/STM32Cube_FW_F1_V1.8.4//Drivers/STM32F1xx_HAL_Driver/Src/stm32f1xx_hal_rtc_ex.c ****   if (HAL_IS_BIT_SET(BKP->RTCCR, (BKP_RTCCR_CCO | BKP_RTCCR_ASOE)))
 177              		.loc 1 144 3 is_stmt 1 discriminator 2 view .LVU52
 178              		.loc 1 144 7 is_stmt 0 discriminator 2 view .LVU53
 179 0014 124A     		ldr	r2, .L23
 180 0016 D26A     		ldr	r2, [r2, #44]
 181              		.loc 1 144 6 discriminator 2 view .LVU54
 182 0018 12F4C07F 		tst	r2, #384
 183 001c 13D1     		bne	.L22
 128:/home/smartth/STM32Cube/Repository/STM32Cube_FW_F1_V1.8.4//Drivers/STM32F1xx_HAL_Driver/Src/stm32f1xx_hal_rtc_ex.c ****   /* Check input parameters */
 184              		.loc 1 128 1 view .LVU55
 185 001e 10B4     		push	{r4}
 186              	.LCFI2:
ARM GAS  /tmp/ccYBp0oC.s 			page 7


 187              		.cfi_def_cfa_offset 4
 188              		.cfi_offset 4, -4
 145:/home/smartth/STM32Cube/Repository/STM32Cube_FW_F1_V1.8.4//Drivers/STM32F1xx_HAL_Driver/Src/stm32f1xx_hal_rtc_ex.c ****   {
 146:/home/smartth/STM32Cube/Repository/STM32Cube_FW_F1_V1.8.4//Drivers/STM32F1xx_HAL_Driver/Src/stm32f1xx_hal_rtc_ex.c ****     hrtc->State = HAL_RTC_STATE_ERROR;
 147:/home/smartth/STM32Cube/Repository/STM32Cube_FW_F1_V1.8.4//Drivers/STM32F1xx_HAL_Driver/Src/stm32f1xx_hal_rtc_ex.c **** 
 148:/home/smartth/STM32Cube/Repository/STM32Cube_FW_F1_V1.8.4//Drivers/STM32F1xx_HAL_Driver/Src/stm32f1xx_hal_rtc_ex.c ****     /* Process Unlocked */
 149:/home/smartth/STM32Cube/Repository/STM32Cube_FW_F1_V1.8.4//Drivers/STM32F1xx_HAL_Driver/Src/stm32f1xx_hal_rtc_ex.c ****     __HAL_UNLOCK(hrtc);
 150:/home/smartth/STM32Cube/Repository/STM32Cube_FW_F1_V1.8.4//Drivers/STM32F1xx_HAL_Driver/Src/stm32f1xx_hal_rtc_ex.c **** 
 151:/home/smartth/STM32Cube/Repository/STM32Cube_FW_F1_V1.8.4//Drivers/STM32F1xx_HAL_Driver/Src/stm32f1xx_hal_rtc_ex.c ****     return HAL_ERROR;
 152:/home/smartth/STM32Cube/Repository/STM32Cube_FW_F1_V1.8.4//Drivers/STM32F1xx_HAL_Driver/Src/stm32f1xx_hal_rtc_ex.c ****   }
 153:/home/smartth/STM32Cube/Repository/STM32Cube_FW_F1_V1.8.4//Drivers/STM32F1xx_HAL_Driver/Src/stm32f1xx_hal_rtc_ex.c **** 
 154:/home/smartth/STM32Cube/Repository/STM32Cube_FW_F1_V1.8.4//Drivers/STM32F1xx_HAL_Driver/Src/stm32f1xx_hal_rtc_ex.c ****   MODIFY_REG(BKP->CR, (BKP_CR_TPE | BKP_CR_TPAL), (sTamper->Tamper | (sTamper->Trigger)));
 189              		.loc 1 154 3 is_stmt 1 view .LVU56
 190 0020 0F48     		ldr	r0, .L23
 191              	.LVL12:
 192              		.loc 1 154 3 is_stmt 0 view .LVU57
 193 0022 026B     		ldr	r2, [r0, #48]
 194 0024 22F00302 		bic	r2, r2, #3
 195 0028 0C68     		ldr	r4, [r1]
 196 002a 4968     		ldr	r1, [r1, #4]
 197              	.LVL13:
 198              		.loc 1 154 3 view .LVU58
 199 002c 2143     		orrs	r1, r1, r4
 200 002e 0A43     		orrs	r2, r2, r1
 201 0030 0263     		str	r2, [r0, #48]
 155:/home/smartth/STM32Cube/Repository/STM32Cube_FW_F1_V1.8.4//Drivers/STM32F1xx_HAL_Driver/Src/stm32f1xx_hal_rtc_ex.c **** 
 156:/home/smartth/STM32Cube/Repository/STM32Cube_FW_F1_V1.8.4//Drivers/STM32F1xx_HAL_Driver/Src/stm32f1xx_hal_rtc_ex.c ****   /* Configure the Tamper Interrupt in the BKP->CSR */
 157:/home/smartth/STM32Cube/Repository/STM32Cube_FW_F1_V1.8.4//Drivers/STM32F1xx_HAL_Driver/Src/stm32f1xx_hal_rtc_ex.c ****   __HAL_RTC_TAMPER_ENABLE_IT(hrtc, RTC_IT_TAMP1);
 202              		.loc 1 157 3 is_stmt 1 view .LVU59
 203 0032 426B     		ldr	r2, [r0, #52]
 204 0034 42F00402 		orr	r2, r2, #4
 205 0038 4263     		str	r2, [r0, #52]
 158:/home/smartth/STM32Cube/Repository/STM32Cube_FW_F1_V1.8.4//Drivers/STM32F1xx_HAL_Driver/Src/stm32f1xx_hal_rtc_ex.c **** 
 159:/home/smartth/STM32Cube/Repository/STM32Cube_FW_F1_V1.8.4//Drivers/STM32F1xx_HAL_Driver/Src/stm32f1xx_hal_rtc_ex.c ****   hrtc->State = HAL_RTC_STATE_READY;
 206              		.loc 1 159 3 view .LVU60
 207              		.loc 1 159 15 is_stmt 0 view .LVU61
 208 003a 0122     		movs	r2, #1
 209 003c 5A74     		strb	r2, [r3, #17]
 160:/home/smartth/STM32Cube/Repository/STM32Cube_FW_F1_V1.8.4//Drivers/STM32F1xx_HAL_Driver/Src/stm32f1xx_hal_rtc_ex.c **** 
 161:/home/smartth/STM32Cube/Repository/STM32Cube_FW_F1_V1.8.4//Drivers/STM32F1xx_HAL_Driver/Src/stm32f1xx_hal_rtc_ex.c ****   /* Process Unlocked */
 162:/home/smartth/STM32Cube/Repository/STM32Cube_FW_F1_V1.8.4//Drivers/STM32F1xx_HAL_Driver/Src/stm32f1xx_hal_rtc_ex.c ****   __HAL_UNLOCK(hrtc);
 210              		.loc 1 162 3 is_stmt 1 view .LVU62
 211              		.loc 1 162 3 view .LVU63
 212 003e 0020     		movs	r0, #0
 213 0040 1874     		strb	r0, [r3, #16]
 214              		.loc 1 162 3 view .LVU64
 163:/home/smartth/STM32Cube/Repository/STM32Cube_FW_F1_V1.8.4//Drivers/STM32F1xx_HAL_Driver/Src/stm32f1xx_hal_rtc_ex.c **** 
 164:/home/smartth/STM32Cube/Repository/STM32Cube_FW_F1_V1.8.4//Drivers/STM32F1xx_HAL_Driver/Src/stm32f1xx_hal_rtc_ex.c ****   return HAL_OK;
 215              		.loc 1 164 3 view .LVU65
 165:/home/smartth/STM32Cube/Repository/STM32Cube_FW_F1_V1.8.4//Drivers/STM32F1xx_HAL_Driver/Src/stm32f1xx_hal_rtc_ex.c **** }
 216              		.loc 1 165 1 is_stmt 0 view .LVU66
 217 0042 10BC     		pop	{r4}
 218              	.LCFI3:
 219              		.cfi_restore 4
 220              		.cfi_def_cfa_offset 0
 221 0044 7047     		bx	lr
 222              	.LVL14:
ARM GAS  /tmp/ccYBp0oC.s 			page 8


 223              	.L22:
 146:/home/smartth/STM32Cube/Repository/STM32Cube_FW_F1_V1.8.4//Drivers/STM32F1xx_HAL_Driver/Src/stm32f1xx_hal_rtc_ex.c **** 
 224              		.loc 1 146 5 is_stmt 1 view .LVU67
 146:/home/smartth/STM32Cube/Repository/STM32Cube_FW_F1_V1.8.4//Drivers/STM32F1xx_HAL_Driver/Src/stm32f1xx_hal_rtc_ex.c **** 
 225              		.loc 1 146 17 is_stmt 0 view .LVU68
 226 0046 0422     		movs	r2, #4
 227 0048 4274     		strb	r2, [r0, #17]
 149:/home/smartth/STM32Cube/Repository/STM32Cube_FW_F1_V1.8.4//Drivers/STM32F1xx_HAL_Driver/Src/stm32f1xx_hal_rtc_ex.c **** 
 228              		.loc 1 149 5 is_stmt 1 view .LVU69
 149:/home/smartth/STM32Cube/Repository/STM32Cube_FW_F1_V1.8.4//Drivers/STM32F1xx_HAL_Driver/Src/stm32f1xx_hal_rtc_ex.c **** 
 229              		.loc 1 149 5 view .LVU70
 230 004a 0022     		movs	r2, #0
 231 004c 0274     		strb	r2, [r0, #16]
 149:/home/smartth/STM32Cube/Repository/STM32Cube_FW_F1_V1.8.4//Drivers/STM32F1xx_HAL_Driver/Src/stm32f1xx_hal_rtc_ex.c **** 
 232              		.loc 1 149 5 view .LVU71
 151:/home/smartth/STM32Cube/Repository/STM32Cube_FW_F1_V1.8.4//Drivers/STM32F1xx_HAL_Driver/Src/stm32f1xx_hal_rtc_ex.c ****   }
 233              		.loc 1 151 5 view .LVU72
 151:/home/smartth/STM32Cube/Repository/STM32Cube_FW_F1_V1.8.4//Drivers/STM32F1xx_HAL_Driver/Src/stm32f1xx_hal_rtc_ex.c ****   }
 234              		.loc 1 151 12 is_stmt 0 view .LVU73
 235 004e 0120     		movs	r0, #1
 236              	.LVL15:
 151:/home/smartth/STM32Cube/Repository/STM32Cube_FW_F1_V1.8.4//Drivers/STM32F1xx_HAL_Driver/Src/stm32f1xx_hal_rtc_ex.c ****   }
 237              		.loc 1 151 12 view .LVU74
 238 0050 7047     		bx	lr
 239              	.LVL16:
 240              	.L16:
 132:/home/smartth/STM32Cube/Repository/STM32Cube_FW_F1_V1.8.4//Drivers/STM32F1xx_HAL_Driver/Src/stm32f1xx_hal_rtc_ex.c ****   }
 241              		.loc 1 132 12 view .LVU75
 242 0052 0120     		movs	r0, #1
 243              	.LVL17:
 132:/home/smartth/STM32Cube/Repository/STM32Cube_FW_F1_V1.8.4//Drivers/STM32F1xx_HAL_Driver/Src/stm32f1xx_hal_rtc_ex.c ****   }
 244              		.loc 1 132 12 view .LVU76
 245 0054 7047     		bx	lr
 246              	.LVL18:
 247              	.L17:
 132:/home/smartth/STM32Cube/Repository/STM32Cube_FW_F1_V1.8.4//Drivers/STM32F1xx_HAL_Driver/Src/stm32f1xx_hal_rtc_ex.c ****   }
 248              		.loc 1 132 12 view .LVU77
 249 0056 0120     		movs	r0, #1
 250              	.LVL19:
 132:/home/smartth/STM32Cube/Repository/STM32Cube_FW_F1_V1.8.4//Drivers/STM32F1xx_HAL_Driver/Src/stm32f1xx_hal_rtc_ex.c ****   }
 251              		.loc 1 132 12 view .LVU78
 252 0058 7047     		bx	lr
 253              	.LVL20:
 254              	.L18:
 140:/home/smartth/STM32Cube/Repository/STM32Cube_FW_F1_V1.8.4//Drivers/STM32F1xx_HAL_Driver/Src/stm32f1xx_hal_rtc_ex.c **** 
 255              		.loc 1 140 3 view .LVU79
 256 005a 0220     		movs	r0, #2
 257              	.LVL21:
 258              		.loc 1 165 1 view .LVU80
 259 005c 7047     		bx	lr
 260              	.L24:
 261 005e 00BF     		.align	2
 262              	.L23:
 263 0060 006C0040 		.word	1073769472
 264              		.cfi_endproc
 265              	.LFE66:
 267              		.section	.text.HAL_RTCEx_DeactivateTamper,"ax",%progbits
ARM GAS  /tmp/ccYBp0oC.s 			page 9


 268              		.align	1
 269              		.global	HAL_RTCEx_DeactivateTamper
 270              		.syntax unified
 271              		.thumb
 272              		.thumb_func
 273              		.fpu softvfp
 275              	HAL_RTCEx_DeactivateTamper:
 276              	.LVL22:
 277              	.LFB67:
 166:/home/smartth/STM32Cube/Repository/STM32Cube_FW_F1_V1.8.4//Drivers/STM32F1xx_HAL_Driver/Src/stm32f1xx_hal_rtc_ex.c **** 
 167:/home/smartth/STM32Cube/Repository/STM32Cube_FW_F1_V1.8.4//Drivers/STM32F1xx_HAL_Driver/Src/stm32f1xx_hal_rtc_ex.c **** /**
 168:/home/smartth/STM32Cube/Repository/STM32Cube_FW_F1_V1.8.4//Drivers/STM32F1xx_HAL_Driver/Src/stm32f1xx_hal_rtc_ex.c ****   * @brief  Deactivates Tamper.
 169:/home/smartth/STM32Cube/Repository/STM32Cube_FW_F1_V1.8.4//Drivers/STM32F1xx_HAL_Driver/Src/stm32f1xx_hal_rtc_ex.c ****   * @param  hrtc: pointer to a RTC_HandleTypeDef structure that contains
 170:/home/smartth/STM32Cube/Repository/STM32Cube_FW_F1_V1.8.4//Drivers/STM32F1xx_HAL_Driver/Src/stm32f1xx_hal_rtc_ex.c ****   *                the configuration information for RTC.
 171:/home/smartth/STM32Cube/Repository/STM32Cube_FW_F1_V1.8.4//Drivers/STM32F1xx_HAL_Driver/Src/stm32f1xx_hal_rtc_ex.c ****   * @param  Tamper: Selected tamper pin.
 172:/home/smartth/STM32Cube/Repository/STM32Cube_FW_F1_V1.8.4//Drivers/STM32F1xx_HAL_Driver/Src/stm32f1xx_hal_rtc_ex.c ****   *          This parameter can be a value of @ref RTCEx_Tamper_Pins_Definitions
 173:/home/smartth/STM32Cube/Repository/STM32Cube_FW_F1_V1.8.4//Drivers/STM32F1xx_HAL_Driver/Src/stm32f1xx_hal_rtc_ex.c ****   * @retval HAL status
 174:/home/smartth/STM32Cube/Repository/STM32Cube_FW_F1_V1.8.4//Drivers/STM32F1xx_HAL_Driver/Src/stm32f1xx_hal_rtc_ex.c ****   */
 175:/home/smartth/STM32Cube/Repository/STM32Cube_FW_F1_V1.8.4//Drivers/STM32F1xx_HAL_Driver/Src/stm32f1xx_hal_rtc_ex.c **** HAL_StatusTypeDef HAL_RTCEx_DeactivateTamper(RTC_HandleTypeDef *hrtc, uint32_t Tamper)
 176:/home/smartth/STM32Cube/Repository/STM32Cube_FW_F1_V1.8.4//Drivers/STM32F1xx_HAL_Driver/Src/stm32f1xx_hal_rtc_ex.c **** {
 278              		.loc 1 176 1 is_stmt 1 view -0
 279              		.cfi_startproc
 280              		@ args = 0, pretend = 0, frame = 0
 281              		@ frame_needed = 0, uses_anonymous_args = 0
 282              		@ link register save eliminated.
 177:/home/smartth/STM32Cube/Repository/STM32Cube_FW_F1_V1.8.4//Drivers/STM32F1xx_HAL_Driver/Src/stm32f1xx_hal_rtc_ex.c ****   /* Check input parameters */
 178:/home/smartth/STM32Cube/Repository/STM32Cube_FW_F1_V1.8.4//Drivers/STM32F1xx_HAL_Driver/Src/stm32f1xx_hal_rtc_ex.c ****   if (hrtc == NULL)
 283              		.loc 1 178 3 view .LVU82
 284              		.loc 1 178 6 is_stmt 0 view .LVU83
 285 0000 0246     		mov	r2, r0
 286 0002 D0B1     		cbz	r0, .L27
 179:/home/smartth/STM32Cube/Repository/STM32Cube_FW_F1_V1.8.4//Drivers/STM32F1xx_HAL_Driver/Src/stm32f1xx_hal_rtc_ex.c ****   {
 180:/home/smartth/STM32Cube/Repository/STM32Cube_FW_F1_V1.8.4//Drivers/STM32F1xx_HAL_Driver/Src/stm32f1xx_hal_rtc_ex.c ****     return HAL_ERROR;
 181:/home/smartth/STM32Cube/Repository/STM32Cube_FW_F1_V1.8.4//Drivers/STM32F1xx_HAL_Driver/Src/stm32f1xx_hal_rtc_ex.c ****   }
 182:/home/smartth/STM32Cube/Repository/STM32Cube_FW_F1_V1.8.4//Drivers/STM32F1xx_HAL_Driver/Src/stm32f1xx_hal_rtc_ex.c ****   /* Prevent unused argument(s) compilation warning */
 183:/home/smartth/STM32Cube/Repository/STM32Cube_FW_F1_V1.8.4//Drivers/STM32F1xx_HAL_Driver/Src/stm32f1xx_hal_rtc_ex.c ****   UNUSED(Tamper);
 287              		.loc 1 183 3 is_stmt 1 view .LVU84
 184:/home/smartth/STM32Cube/Repository/STM32Cube_FW_F1_V1.8.4//Drivers/STM32F1xx_HAL_Driver/Src/stm32f1xx_hal_rtc_ex.c **** 
 185:/home/smartth/STM32Cube/Repository/STM32Cube_FW_F1_V1.8.4//Drivers/STM32F1xx_HAL_Driver/Src/stm32f1xx_hal_rtc_ex.c ****   assert_param(IS_RTC_TAMPER(Tamper));
 288              		.loc 1 185 3 view .LVU85
 186:/home/smartth/STM32Cube/Repository/STM32Cube_FW_F1_V1.8.4//Drivers/STM32F1xx_HAL_Driver/Src/stm32f1xx_hal_rtc_ex.c **** 
 187:/home/smartth/STM32Cube/Repository/STM32Cube_FW_F1_V1.8.4//Drivers/STM32F1xx_HAL_Driver/Src/stm32f1xx_hal_rtc_ex.c ****   /* Process Locked */
 188:/home/smartth/STM32Cube/Repository/STM32Cube_FW_F1_V1.8.4//Drivers/STM32F1xx_HAL_Driver/Src/stm32f1xx_hal_rtc_ex.c ****   __HAL_LOCK(hrtc);
 289              		.loc 1 188 3 view .LVU86
 290              		.loc 1 188 3 view .LVU87
 291 0004 037C     		ldrb	r3, [r0, #16]	@ zero_extendqisi2
 292 0006 012B     		cmp	r3, #1
 293 0008 19D0     		beq	.L28
 294              		.loc 1 188 3 discriminator 2 view .LVU88
 295 000a 0120     		movs	r0, #1
 296              	.LVL23:
 297              		.loc 1 188 3 is_stmt 0 discriminator 2 view .LVU89
 298 000c 1074     		strb	r0, [r2, #16]
 299              		.loc 1 188 3 is_stmt 1 discriminator 2 view .LVU90
 189:/home/smartth/STM32Cube/Repository/STM32Cube_FW_F1_V1.8.4//Drivers/STM32F1xx_HAL_Driver/Src/stm32f1xx_hal_rtc_ex.c **** 
 190:/home/smartth/STM32Cube/Repository/STM32Cube_FW_F1_V1.8.4//Drivers/STM32F1xx_HAL_Driver/Src/stm32f1xx_hal_rtc_ex.c ****   hrtc->State = HAL_RTC_STATE_BUSY;
 300              		.loc 1 190 3 discriminator 2 view .LVU91
ARM GAS  /tmp/ccYBp0oC.s 			page 10


 301              		.loc 1 190 15 is_stmt 0 discriminator 2 view .LVU92
 302 000e 0223     		movs	r3, #2
 303 0010 5374     		strb	r3, [r2, #17]
 191:/home/smartth/STM32Cube/Repository/STM32Cube_FW_F1_V1.8.4//Drivers/STM32F1xx_HAL_Driver/Src/stm32f1xx_hal_rtc_ex.c **** 
 192:/home/smartth/STM32Cube/Repository/STM32Cube_FW_F1_V1.8.4//Drivers/STM32F1xx_HAL_Driver/Src/stm32f1xx_hal_rtc_ex.c ****   /* Disable the selected Tamper pin */
 193:/home/smartth/STM32Cube/Repository/STM32Cube_FW_F1_V1.8.4//Drivers/STM32F1xx_HAL_Driver/Src/stm32f1xx_hal_rtc_ex.c ****   CLEAR_BIT(BKP->CR, BKP_CR_TPE);
 304              		.loc 1 193 3 is_stmt 1 discriminator 2 view .LVU93
 305 0012 0C4B     		ldr	r3, .L29
 306 0014 196B     		ldr	r1, [r3, #48]
 307              	.LVL24:
 308              		.loc 1 193 3 is_stmt 0 discriminator 2 view .LVU94
 309 0016 21F00101 		bic	r1, r1, #1
 310 001a 1963     		str	r1, [r3, #48]
 194:/home/smartth/STM32Cube/Repository/STM32Cube_FW_F1_V1.8.4//Drivers/STM32F1xx_HAL_Driver/Src/stm32f1xx_hal_rtc_ex.c **** 
 195:/home/smartth/STM32Cube/Repository/STM32Cube_FW_F1_V1.8.4//Drivers/STM32F1xx_HAL_Driver/Src/stm32f1xx_hal_rtc_ex.c ****   /* Disable the Tamper Interrupt in the BKP->CSR */
 196:/home/smartth/STM32Cube/Repository/STM32Cube_FW_F1_V1.8.4//Drivers/STM32F1xx_HAL_Driver/Src/stm32f1xx_hal_rtc_ex.c ****   /* Configure the Tamper Interrupt in the BKP->CSR */
 197:/home/smartth/STM32Cube/Repository/STM32Cube_FW_F1_V1.8.4//Drivers/STM32F1xx_HAL_Driver/Src/stm32f1xx_hal_rtc_ex.c ****   __HAL_RTC_TAMPER_DISABLE_IT(hrtc, RTC_IT_TAMP1);
 311              		.loc 1 197 3 is_stmt 1 discriminator 2 view .LVU95
 312 001c 596B     		ldr	r1, [r3, #52]
 313 001e 21F00401 		bic	r1, r1, #4
 314 0022 5963     		str	r1, [r3, #52]
 198:/home/smartth/STM32Cube/Repository/STM32Cube_FW_F1_V1.8.4//Drivers/STM32F1xx_HAL_Driver/Src/stm32f1xx_hal_rtc_ex.c **** 
 199:/home/smartth/STM32Cube/Repository/STM32Cube_FW_F1_V1.8.4//Drivers/STM32F1xx_HAL_Driver/Src/stm32f1xx_hal_rtc_ex.c ****   /* Clear the Tamper interrupt pending bit */
 200:/home/smartth/STM32Cube/Repository/STM32Cube_FW_F1_V1.8.4//Drivers/STM32F1xx_HAL_Driver/Src/stm32f1xx_hal_rtc_ex.c ****   __HAL_RTC_TAMPER_CLEAR_FLAG(hrtc, RTC_FLAG_TAMP1F);
 315              		.loc 1 200 3 discriminator 2 view .LVU96
 316 0024 596B     		ldr	r1, [r3, #52]
 317 0026 41F00301 		orr	r1, r1, #3
 318 002a 5963     		str	r1, [r3, #52]
 201:/home/smartth/STM32Cube/Repository/STM32Cube_FW_F1_V1.8.4//Drivers/STM32F1xx_HAL_Driver/Src/stm32f1xx_hal_rtc_ex.c ****   SET_BIT(BKP->CSR, BKP_CSR_CTE);
 319              		.loc 1 201 3 discriminator 2 view .LVU97
 320 002c 596B     		ldr	r1, [r3, #52]
 321 002e 0143     		orrs	r1, r1, r0
 322 0030 5963     		str	r1, [r3, #52]
 202:/home/smartth/STM32Cube/Repository/STM32Cube_FW_F1_V1.8.4//Drivers/STM32F1xx_HAL_Driver/Src/stm32f1xx_hal_rtc_ex.c **** 
 203:/home/smartth/STM32Cube/Repository/STM32Cube_FW_F1_V1.8.4//Drivers/STM32F1xx_HAL_Driver/Src/stm32f1xx_hal_rtc_ex.c ****   hrtc->State = HAL_RTC_STATE_READY;
 323              		.loc 1 203 3 discriminator 2 view .LVU98
 324              		.loc 1 203 15 is_stmt 0 discriminator 2 view .LVU99
 325 0032 5074     		strb	r0, [r2, #17]
 204:/home/smartth/STM32Cube/Repository/STM32Cube_FW_F1_V1.8.4//Drivers/STM32F1xx_HAL_Driver/Src/stm32f1xx_hal_rtc_ex.c **** 
 205:/home/smartth/STM32Cube/Repository/STM32Cube_FW_F1_V1.8.4//Drivers/STM32F1xx_HAL_Driver/Src/stm32f1xx_hal_rtc_ex.c ****   /* Process Unlocked */
 206:/home/smartth/STM32Cube/Repository/STM32Cube_FW_F1_V1.8.4//Drivers/STM32F1xx_HAL_Driver/Src/stm32f1xx_hal_rtc_ex.c ****   __HAL_UNLOCK(hrtc);
 326              		.loc 1 206 3 is_stmt 1 discriminator 2 view .LVU100
 327              		.loc 1 206 3 discriminator 2 view .LVU101
 328 0034 0020     		movs	r0, #0
 329 0036 1074     		strb	r0, [r2, #16]
 330              		.loc 1 206 3 discriminator 2 view .LVU102
 207:/home/smartth/STM32Cube/Repository/STM32Cube_FW_F1_V1.8.4//Drivers/STM32F1xx_HAL_Driver/Src/stm32f1xx_hal_rtc_ex.c **** 
 208:/home/smartth/STM32Cube/Repository/STM32Cube_FW_F1_V1.8.4//Drivers/STM32F1xx_HAL_Driver/Src/stm32f1xx_hal_rtc_ex.c ****   return HAL_OK;
 331              		.loc 1 208 3 discriminator 2 view .LVU103
 332              		.loc 1 208 10 is_stmt 0 discriminator 2 view .LVU104
 333 0038 7047     		bx	lr
 334              	.LVL25:
 335              	.L27:
 180:/home/smartth/STM32Cube/Repository/STM32Cube_FW_F1_V1.8.4//Drivers/STM32F1xx_HAL_Driver/Src/stm32f1xx_hal_rtc_ex.c ****   }
 336              		.loc 1 180 12 view .LVU105
 337 003a 0120     		movs	r0, #1
 338              	.LVL26:
ARM GAS  /tmp/ccYBp0oC.s 			page 11


 180:/home/smartth/STM32Cube/Repository/STM32Cube_FW_F1_V1.8.4//Drivers/STM32F1xx_HAL_Driver/Src/stm32f1xx_hal_rtc_ex.c ****   }
 339              		.loc 1 180 12 view .LVU106
 340 003c 7047     		bx	lr
 341              	.LVL27:
 342              	.L28:
 188:/home/smartth/STM32Cube/Repository/STM32Cube_FW_F1_V1.8.4//Drivers/STM32F1xx_HAL_Driver/Src/stm32f1xx_hal_rtc_ex.c **** 
 343              		.loc 1 188 3 view .LVU107
 344 003e 0220     		movs	r0, #2
 345              	.LVL28:
 209:/home/smartth/STM32Cube/Repository/STM32Cube_FW_F1_V1.8.4//Drivers/STM32F1xx_HAL_Driver/Src/stm32f1xx_hal_rtc_ex.c **** }
 346              		.loc 1 209 1 view .LVU108
 347 0040 7047     		bx	lr
 348              	.L30:
 349 0042 00BF     		.align	2
 350              	.L29:
 351 0044 006C0040 		.word	1073769472
 352              		.cfi_endproc
 353              	.LFE67:
 355              		.section	.text.HAL_RTCEx_Tamper1EventCallback,"ax",%progbits
 356              		.align	1
 357              		.weak	HAL_RTCEx_Tamper1EventCallback
 358              		.syntax unified
 359              		.thumb
 360              		.thumb_func
 361              		.fpu softvfp
 363              	HAL_RTCEx_Tamper1EventCallback:
 364              	.LVL29:
 365              	.LFB69:
 210:/home/smartth/STM32Cube/Repository/STM32Cube_FW_F1_V1.8.4//Drivers/STM32F1xx_HAL_Driver/Src/stm32f1xx_hal_rtc_ex.c **** 
 211:/home/smartth/STM32Cube/Repository/STM32Cube_FW_F1_V1.8.4//Drivers/STM32F1xx_HAL_Driver/Src/stm32f1xx_hal_rtc_ex.c **** /**
 212:/home/smartth/STM32Cube/Repository/STM32Cube_FW_F1_V1.8.4//Drivers/STM32F1xx_HAL_Driver/Src/stm32f1xx_hal_rtc_ex.c ****   * @brief  This function handles Tamper interrupt request.
 213:/home/smartth/STM32Cube/Repository/STM32Cube_FW_F1_V1.8.4//Drivers/STM32F1xx_HAL_Driver/Src/stm32f1xx_hal_rtc_ex.c ****   * @param  hrtc: pointer to a RTC_HandleTypeDef structure that contains
 214:/home/smartth/STM32Cube/Repository/STM32Cube_FW_F1_V1.8.4//Drivers/STM32F1xx_HAL_Driver/Src/stm32f1xx_hal_rtc_ex.c ****   *                the configuration information for RTC.
 215:/home/smartth/STM32Cube/Repository/STM32Cube_FW_F1_V1.8.4//Drivers/STM32F1xx_HAL_Driver/Src/stm32f1xx_hal_rtc_ex.c ****   * @retval None
 216:/home/smartth/STM32Cube/Repository/STM32Cube_FW_F1_V1.8.4//Drivers/STM32F1xx_HAL_Driver/Src/stm32f1xx_hal_rtc_ex.c ****   */
 217:/home/smartth/STM32Cube/Repository/STM32Cube_FW_F1_V1.8.4//Drivers/STM32F1xx_HAL_Driver/Src/stm32f1xx_hal_rtc_ex.c **** void HAL_RTCEx_TamperIRQHandler(RTC_HandleTypeDef *hrtc)
 218:/home/smartth/STM32Cube/Repository/STM32Cube_FW_F1_V1.8.4//Drivers/STM32F1xx_HAL_Driver/Src/stm32f1xx_hal_rtc_ex.c **** {
 219:/home/smartth/STM32Cube/Repository/STM32Cube_FW_F1_V1.8.4//Drivers/STM32F1xx_HAL_Driver/Src/stm32f1xx_hal_rtc_ex.c ****   /* Get the status of the Interrupt */
 220:/home/smartth/STM32Cube/Repository/STM32Cube_FW_F1_V1.8.4//Drivers/STM32F1xx_HAL_Driver/Src/stm32f1xx_hal_rtc_ex.c ****   if (__HAL_RTC_TAMPER_GET_IT_SOURCE(hrtc, RTC_IT_TAMP1))
 221:/home/smartth/STM32Cube/Repository/STM32Cube_FW_F1_V1.8.4//Drivers/STM32F1xx_HAL_Driver/Src/stm32f1xx_hal_rtc_ex.c ****   {
 222:/home/smartth/STM32Cube/Repository/STM32Cube_FW_F1_V1.8.4//Drivers/STM32F1xx_HAL_Driver/Src/stm32f1xx_hal_rtc_ex.c ****     /* Get the TAMPER Interrupt enable bit and pending bit */
 223:/home/smartth/STM32Cube/Repository/STM32Cube_FW_F1_V1.8.4//Drivers/STM32F1xx_HAL_Driver/Src/stm32f1xx_hal_rtc_ex.c ****     if (__HAL_RTC_TAMPER_GET_FLAG(hrtc, RTC_FLAG_TAMP1F) != (uint32_t)RESET)
 224:/home/smartth/STM32Cube/Repository/STM32Cube_FW_F1_V1.8.4//Drivers/STM32F1xx_HAL_Driver/Src/stm32f1xx_hal_rtc_ex.c ****     {
 225:/home/smartth/STM32Cube/Repository/STM32Cube_FW_F1_V1.8.4//Drivers/STM32F1xx_HAL_Driver/Src/stm32f1xx_hal_rtc_ex.c ****       /* Tamper callback */
 226:/home/smartth/STM32Cube/Repository/STM32Cube_FW_F1_V1.8.4//Drivers/STM32F1xx_HAL_Driver/Src/stm32f1xx_hal_rtc_ex.c **** #if (USE_HAL_RTC_REGISTER_CALLBACKS == 1)
 227:/home/smartth/STM32Cube/Repository/STM32Cube_FW_F1_V1.8.4//Drivers/STM32F1xx_HAL_Driver/Src/stm32f1xx_hal_rtc_ex.c ****       hrtc->Tamper1EventCallback(hrtc);
 228:/home/smartth/STM32Cube/Repository/STM32Cube_FW_F1_V1.8.4//Drivers/STM32F1xx_HAL_Driver/Src/stm32f1xx_hal_rtc_ex.c **** #else
 229:/home/smartth/STM32Cube/Repository/STM32Cube_FW_F1_V1.8.4//Drivers/STM32F1xx_HAL_Driver/Src/stm32f1xx_hal_rtc_ex.c ****       HAL_RTCEx_Tamper1EventCallback(hrtc);
 230:/home/smartth/STM32Cube/Repository/STM32Cube_FW_F1_V1.8.4//Drivers/STM32F1xx_HAL_Driver/Src/stm32f1xx_hal_rtc_ex.c **** #endif /* USE_HAL_RTC_REGISTER_CALLBACKS */
 231:/home/smartth/STM32Cube/Repository/STM32Cube_FW_F1_V1.8.4//Drivers/STM32F1xx_HAL_Driver/Src/stm32f1xx_hal_rtc_ex.c **** 
 232:/home/smartth/STM32Cube/Repository/STM32Cube_FW_F1_V1.8.4//Drivers/STM32F1xx_HAL_Driver/Src/stm32f1xx_hal_rtc_ex.c ****       /* Clear the Tamper interrupt pending bit */
 233:/home/smartth/STM32Cube/Repository/STM32Cube_FW_F1_V1.8.4//Drivers/STM32F1xx_HAL_Driver/Src/stm32f1xx_hal_rtc_ex.c ****       __HAL_RTC_TAMPER_CLEAR_FLAG(hrtc, RTC_FLAG_TAMP1F);
 234:/home/smartth/STM32Cube/Repository/STM32Cube_FW_F1_V1.8.4//Drivers/STM32F1xx_HAL_Driver/Src/stm32f1xx_hal_rtc_ex.c ****     }
 235:/home/smartth/STM32Cube/Repository/STM32Cube_FW_F1_V1.8.4//Drivers/STM32F1xx_HAL_Driver/Src/stm32f1xx_hal_rtc_ex.c ****   }
 236:/home/smartth/STM32Cube/Repository/STM32Cube_FW_F1_V1.8.4//Drivers/STM32F1xx_HAL_Driver/Src/stm32f1xx_hal_rtc_ex.c **** 
 237:/home/smartth/STM32Cube/Repository/STM32Cube_FW_F1_V1.8.4//Drivers/STM32F1xx_HAL_Driver/Src/stm32f1xx_hal_rtc_ex.c ****   /* Change RTC state */
 238:/home/smartth/STM32Cube/Repository/STM32Cube_FW_F1_V1.8.4//Drivers/STM32F1xx_HAL_Driver/Src/stm32f1xx_hal_rtc_ex.c ****   hrtc->State = HAL_RTC_STATE_READY;
ARM GAS  /tmp/ccYBp0oC.s 			page 12


 239:/home/smartth/STM32Cube/Repository/STM32Cube_FW_F1_V1.8.4//Drivers/STM32F1xx_HAL_Driver/Src/stm32f1xx_hal_rtc_ex.c **** }
 240:/home/smartth/STM32Cube/Repository/STM32Cube_FW_F1_V1.8.4//Drivers/STM32F1xx_HAL_Driver/Src/stm32f1xx_hal_rtc_ex.c **** 
 241:/home/smartth/STM32Cube/Repository/STM32Cube_FW_F1_V1.8.4//Drivers/STM32F1xx_HAL_Driver/Src/stm32f1xx_hal_rtc_ex.c **** /**
 242:/home/smartth/STM32Cube/Repository/STM32Cube_FW_F1_V1.8.4//Drivers/STM32F1xx_HAL_Driver/Src/stm32f1xx_hal_rtc_ex.c ****   * @brief  Tamper 1 callback.
 243:/home/smartth/STM32Cube/Repository/STM32Cube_FW_F1_V1.8.4//Drivers/STM32F1xx_HAL_Driver/Src/stm32f1xx_hal_rtc_ex.c ****   * @param  hrtc: pointer to a RTC_HandleTypeDef structure that contains
 244:/home/smartth/STM32Cube/Repository/STM32Cube_FW_F1_V1.8.4//Drivers/STM32F1xx_HAL_Driver/Src/stm32f1xx_hal_rtc_ex.c ****   *                the configuration information for RTC.
 245:/home/smartth/STM32Cube/Repository/STM32Cube_FW_F1_V1.8.4//Drivers/STM32F1xx_HAL_Driver/Src/stm32f1xx_hal_rtc_ex.c ****   * @retval None
 246:/home/smartth/STM32Cube/Repository/STM32Cube_FW_F1_V1.8.4//Drivers/STM32F1xx_HAL_Driver/Src/stm32f1xx_hal_rtc_ex.c ****   */
 247:/home/smartth/STM32Cube/Repository/STM32Cube_FW_F1_V1.8.4//Drivers/STM32F1xx_HAL_Driver/Src/stm32f1xx_hal_rtc_ex.c **** __weak void HAL_RTCEx_Tamper1EventCallback(RTC_HandleTypeDef *hrtc)
 248:/home/smartth/STM32Cube/Repository/STM32Cube_FW_F1_V1.8.4//Drivers/STM32F1xx_HAL_Driver/Src/stm32f1xx_hal_rtc_ex.c **** {
 366              		.loc 1 248 1 is_stmt 1 view -0
 367              		.cfi_startproc
 368              		@ args = 0, pretend = 0, frame = 0
 369              		@ frame_needed = 0, uses_anonymous_args = 0
 370              		@ link register save eliminated.
 249:/home/smartth/STM32Cube/Repository/STM32Cube_FW_F1_V1.8.4//Drivers/STM32F1xx_HAL_Driver/Src/stm32f1xx_hal_rtc_ex.c ****   /* Prevent unused argument(s) compilation warning */
 250:/home/smartth/STM32Cube/Repository/STM32Cube_FW_F1_V1.8.4//Drivers/STM32F1xx_HAL_Driver/Src/stm32f1xx_hal_rtc_ex.c ****   UNUSED(hrtc);
 371              		.loc 1 250 3 view .LVU110
 251:/home/smartth/STM32Cube/Repository/STM32Cube_FW_F1_V1.8.4//Drivers/STM32F1xx_HAL_Driver/Src/stm32f1xx_hal_rtc_ex.c ****   /* NOTE : This function Should not be modified, when the callback is needed,
 252:/home/smartth/STM32Cube/Repository/STM32Cube_FW_F1_V1.8.4//Drivers/STM32F1xx_HAL_Driver/Src/stm32f1xx_hal_rtc_ex.c ****             the HAL_RTCEx_Tamper1EventCallback could be implemented in the user file
 253:/home/smartth/STM32Cube/Repository/STM32Cube_FW_F1_V1.8.4//Drivers/STM32F1xx_HAL_Driver/Src/stm32f1xx_hal_rtc_ex.c ****    */
 254:/home/smartth/STM32Cube/Repository/STM32Cube_FW_F1_V1.8.4//Drivers/STM32F1xx_HAL_Driver/Src/stm32f1xx_hal_rtc_ex.c **** }
 372              		.loc 1 254 1 is_stmt 0 view .LVU111
 373 0000 7047     		bx	lr
 374              		.cfi_endproc
 375              	.LFE69:
 377              		.section	.text.HAL_RTCEx_TamperIRQHandler,"ax",%progbits
 378              		.align	1
 379              		.global	HAL_RTCEx_TamperIRQHandler
 380              		.syntax unified
 381              		.thumb
 382              		.thumb_func
 383              		.fpu softvfp
 385              	HAL_RTCEx_TamperIRQHandler:
 386              	.LVL30:
 387              	.LFB68:
 218:/home/smartth/STM32Cube/Repository/STM32Cube_FW_F1_V1.8.4//Drivers/STM32F1xx_HAL_Driver/Src/stm32f1xx_hal_rtc_ex.c ****   /* Get the status of the Interrupt */
 388              		.loc 1 218 1 is_stmt 1 view -0
 389              		.cfi_startproc
 390              		@ args = 0, pretend = 0, frame = 0
 391              		@ frame_needed = 0, uses_anonymous_args = 0
 218:/home/smartth/STM32Cube/Repository/STM32Cube_FW_F1_V1.8.4//Drivers/STM32F1xx_HAL_Driver/Src/stm32f1xx_hal_rtc_ex.c ****   /* Get the status of the Interrupt */
 392              		.loc 1 218 1 is_stmt 0 view .LVU113
 393 0000 10B5     		push	{r4, lr}
 394              	.LCFI4:
 395              		.cfi_def_cfa_offset 8
 396              		.cfi_offset 4, -8
 397              		.cfi_offset 14, -4
 398 0002 0446     		mov	r4, r0
 220:/home/smartth/STM32Cube/Repository/STM32Cube_FW_F1_V1.8.4//Drivers/STM32F1xx_HAL_Driver/Src/stm32f1xx_hal_rtc_ex.c ****   {
 399              		.loc 1 220 3 is_stmt 1 view .LVU114
 220:/home/smartth/STM32Cube/Repository/STM32Cube_FW_F1_V1.8.4//Drivers/STM32F1xx_HAL_Driver/Src/stm32f1xx_hal_rtc_ex.c ****   {
 400              		.loc 1 220 7 is_stmt 0 view .LVU115
 401 0004 0A4B     		ldr	r3, .L36
 402 0006 5B6B     		ldr	r3, [r3, #52]
 220:/home/smartth/STM32Cube/Repository/STM32Cube_FW_F1_V1.8.4//Drivers/STM32F1xx_HAL_Driver/Src/stm32f1xx_hal_rtc_ex.c ****   {
 403              		.loc 1 220 6 view .LVU116
ARM GAS  /tmp/ccYBp0oC.s 			page 13


 404 0008 13F0040F 		tst	r3, #4
 405 000c 04D0     		beq	.L33
 223:/home/smartth/STM32Cube/Repository/STM32Cube_FW_F1_V1.8.4//Drivers/STM32F1xx_HAL_Driver/Src/stm32f1xx_hal_rtc_ex.c ****     {
 406              		.loc 1 223 5 is_stmt 1 view .LVU117
 223:/home/smartth/STM32Cube/Repository/STM32Cube_FW_F1_V1.8.4//Drivers/STM32F1xx_HAL_Driver/Src/stm32f1xx_hal_rtc_ex.c ****     {
 407              		.loc 1 223 9 is_stmt 0 view .LVU118
 408 000e 084B     		ldr	r3, .L36
 409 0010 5B6B     		ldr	r3, [r3, #52]
 223:/home/smartth/STM32Cube/Repository/STM32Cube_FW_F1_V1.8.4//Drivers/STM32F1xx_HAL_Driver/Src/stm32f1xx_hal_rtc_ex.c ****     {
 410              		.loc 1 223 8 view .LVU119
 411 0012 13F4807F 		tst	r3, #256
 412 0016 02D1     		bne	.L35
 413              	.LVL31:
 414              	.L33:
 238:/home/smartth/STM32Cube/Repository/STM32Cube_FW_F1_V1.8.4//Drivers/STM32F1xx_HAL_Driver/Src/stm32f1xx_hal_rtc_ex.c **** }
 415              		.loc 1 238 3 is_stmt 1 view .LVU120
 238:/home/smartth/STM32Cube/Repository/STM32Cube_FW_F1_V1.8.4//Drivers/STM32F1xx_HAL_Driver/Src/stm32f1xx_hal_rtc_ex.c **** }
 416              		.loc 1 238 15 is_stmt 0 view .LVU121
 417 0018 0123     		movs	r3, #1
 418 001a 6374     		strb	r3, [r4, #17]
 239:/home/smartth/STM32Cube/Repository/STM32Cube_FW_F1_V1.8.4//Drivers/STM32F1xx_HAL_Driver/Src/stm32f1xx_hal_rtc_ex.c **** 
 419              		.loc 1 239 1 view .LVU122
 420 001c 10BD     		pop	{r4, pc}
 421              	.LVL32:
 422              	.L35:
 229:/home/smartth/STM32Cube/Repository/STM32Cube_FW_F1_V1.8.4//Drivers/STM32F1xx_HAL_Driver/Src/stm32f1xx_hal_rtc_ex.c **** #endif /* USE_HAL_RTC_REGISTER_CALLBACKS */
 423              		.loc 1 229 7 is_stmt 1 view .LVU123
 424 001e FFF7FEFF 		bl	HAL_RTCEx_Tamper1EventCallback
 425              	.LVL33:
 233:/home/smartth/STM32Cube/Repository/STM32Cube_FW_F1_V1.8.4//Drivers/STM32F1xx_HAL_Driver/Src/stm32f1xx_hal_rtc_ex.c ****     }
 426              		.loc 1 233 7 view .LVU124
 427 0022 034A     		ldr	r2, .L36
 428 0024 536B     		ldr	r3, [r2, #52]
 429 0026 43F00303 		orr	r3, r3, #3
 430 002a 5363     		str	r3, [r2, #52]
 431 002c F4E7     		b	.L33
 432              	.L37:
 433 002e 00BF     		.align	2
 434              	.L36:
 435 0030 006C0040 		.word	1073769472
 436              		.cfi_endproc
 437              	.LFE68:
 439              		.section	.text.HAL_RTCEx_PollForTamper1Event,"ax",%progbits
 440              		.align	1
 441              		.global	HAL_RTCEx_PollForTamper1Event
 442              		.syntax unified
 443              		.thumb
 444              		.thumb_func
 445              		.fpu softvfp
 447              	HAL_RTCEx_PollForTamper1Event:
 448              	.LVL34:
 449              	.LFB70:
 255:/home/smartth/STM32Cube/Repository/STM32Cube_FW_F1_V1.8.4//Drivers/STM32F1xx_HAL_Driver/Src/stm32f1xx_hal_rtc_ex.c **** 
 256:/home/smartth/STM32Cube/Repository/STM32Cube_FW_F1_V1.8.4//Drivers/STM32F1xx_HAL_Driver/Src/stm32f1xx_hal_rtc_ex.c **** /**
 257:/home/smartth/STM32Cube/Repository/STM32Cube_FW_F1_V1.8.4//Drivers/STM32F1xx_HAL_Driver/Src/stm32f1xx_hal_rtc_ex.c ****   * @brief  This function handles Tamper1 Polling.
 258:/home/smartth/STM32Cube/Repository/STM32Cube_FW_F1_V1.8.4//Drivers/STM32F1xx_HAL_Driver/Src/stm32f1xx_hal_rtc_ex.c ****   * @param  hrtc: pointer to a RTC_HandleTypeDef structure that contains
 259:/home/smartth/STM32Cube/Repository/STM32Cube_FW_F1_V1.8.4//Drivers/STM32F1xx_HAL_Driver/Src/stm32f1xx_hal_rtc_ex.c ****   *                the configuration information for RTC.
ARM GAS  /tmp/ccYBp0oC.s 			page 14


 260:/home/smartth/STM32Cube/Repository/STM32Cube_FW_F1_V1.8.4//Drivers/STM32F1xx_HAL_Driver/Src/stm32f1xx_hal_rtc_ex.c ****   * @param  Timeout: Timeout duration
 261:/home/smartth/STM32Cube/Repository/STM32Cube_FW_F1_V1.8.4//Drivers/STM32F1xx_HAL_Driver/Src/stm32f1xx_hal_rtc_ex.c ****   * @retval HAL status
 262:/home/smartth/STM32Cube/Repository/STM32Cube_FW_F1_V1.8.4//Drivers/STM32F1xx_HAL_Driver/Src/stm32f1xx_hal_rtc_ex.c ****   */
 263:/home/smartth/STM32Cube/Repository/STM32Cube_FW_F1_V1.8.4//Drivers/STM32F1xx_HAL_Driver/Src/stm32f1xx_hal_rtc_ex.c **** HAL_StatusTypeDef HAL_RTCEx_PollForTamper1Event(RTC_HandleTypeDef *hrtc, uint32_t Timeout)
 264:/home/smartth/STM32Cube/Repository/STM32Cube_FW_F1_V1.8.4//Drivers/STM32F1xx_HAL_Driver/Src/stm32f1xx_hal_rtc_ex.c **** {
 450              		.loc 1 264 1 view -0
 451              		.cfi_startproc
 452              		@ args = 0, pretend = 0, frame = 0
 453              		@ frame_needed = 0, uses_anonymous_args = 0
 454              		.loc 1 264 1 is_stmt 0 view .LVU126
 455 0000 70B5     		push	{r4, r5, r6, lr}
 456              	.LCFI5:
 457              		.cfi_def_cfa_offset 16
 458              		.cfi_offset 4, -16
 459              		.cfi_offset 5, -12
 460              		.cfi_offset 6, -8
 461              		.cfi_offset 14, -4
 462 0002 0546     		mov	r5, r0
 463 0004 0C46     		mov	r4, r1
 265:/home/smartth/STM32Cube/Repository/STM32Cube_FW_F1_V1.8.4//Drivers/STM32F1xx_HAL_Driver/Src/stm32f1xx_hal_rtc_ex.c ****   uint32_t tickstart = HAL_GetTick();
 464              		.loc 1 265 3 is_stmt 1 view .LVU127
 465              		.loc 1 265 24 is_stmt 0 view .LVU128
 466 0006 FFF7FEFF 		bl	HAL_GetTick
 467              	.LVL35:
 468              		.loc 1 265 24 view .LVU129
 469 000a 0646     		mov	r6, r0
 470              	.LVL36:
 266:/home/smartth/STM32Cube/Repository/STM32Cube_FW_F1_V1.8.4//Drivers/STM32F1xx_HAL_Driver/Src/stm32f1xx_hal_rtc_ex.c **** 
 267:/home/smartth/STM32Cube/Repository/STM32Cube_FW_F1_V1.8.4//Drivers/STM32F1xx_HAL_Driver/Src/stm32f1xx_hal_rtc_ex.c ****   /* Check input parameters */
 268:/home/smartth/STM32Cube/Repository/STM32Cube_FW_F1_V1.8.4//Drivers/STM32F1xx_HAL_Driver/Src/stm32f1xx_hal_rtc_ex.c ****   if (hrtc == NULL)
 471              		.loc 1 268 3 is_stmt 1 view .LVU130
 472              		.loc 1 268 6 is_stmt 0 view .LVU131
 473 000c CDB1     		cbz	r5, .L46
 474              	.LVL37:
 475              	.L41:
 269:/home/smartth/STM32Cube/Repository/STM32Cube_FW_F1_V1.8.4//Drivers/STM32F1xx_HAL_Driver/Src/stm32f1xx_hal_rtc_ex.c ****   {
 270:/home/smartth/STM32Cube/Repository/STM32Cube_FW_F1_V1.8.4//Drivers/STM32F1xx_HAL_Driver/Src/stm32f1xx_hal_rtc_ex.c ****     return HAL_ERROR;
 271:/home/smartth/STM32Cube/Repository/STM32Cube_FW_F1_V1.8.4//Drivers/STM32F1xx_HAL_Driver/Src/stm32f1xx_hal_rtc_ex.c ****   }
 272:/home/smartth/STM32Cube/Repository/STM32Cube_FW_F1_V1.8.4//Drivers/STM32F1xx_HAL_Driver/Src/stm32f1xx_hal_rtc_ex.c **** 
 273:/home/smartth/STM32Cube/Repository/STM32Cube_FW_F1_V1.8.4//Drivers/STM32F1xx_HAL_Driver/Src/stm32f1xx_hal_rtc_ex.c ****   /* Get the status of the Interrupt */
 274:/home/smartth/STM32Cube/Repository/STM32Cube_FW_F1_V1.8.4//Drivers/STM32F1xx_HAL_Driver/Src/stm32f1xx_hal_rtc_ex.c ****   while (__HAL_RTC_TAMPER_GET_FLAG(hrtc, RTC_FLAG_TAMP1F) == RESET)
 476              		.loc 1 274 9 is_stmt 1 view .LVU132
 477              		.loc 1 274 10 is_stmt 0 view .LVU133
 478 000e 0E4B     		ldr	r3, .L48
 479 0010 5B6B     		ldr	r3, [r3, #52]
 480              		.loc 1 274 9 view .LVU134
 481 0012 13F4807F 		tst	r3, #256
 482 0016 0BD1     		bne	.L47
 275:/home/smartth/STM32Cube/Repository/STM32Cube_FW_F1_V1.8.4//Drivers/STM32F1xx_HAL_Driver/Src/stm32f1xx_hal_rtc_ex.c ****   {
 276:/home/smartth/STM32Cube/Repository/STM32Cube_FW_F1_V1.8.4//Drivers/STM32F1xx_HAL_Driver/Src/stm32f1xx_hal_rtc_ex.c ****     if (Timeout != HAL_MAX_DELAY)
 483              		.loc 1 276 5 is_stmt 1 view .LVU135
 484              		.loc 1 276 8 is_stmt 0 view .LVU136
 485 0018 B4F1FF3F 		cmp	r4, #-1
 486 001c F7D0     		beq	.L41
 277:/home/smartth/STM32Cube/Repository/STM32Cube_FW_F1_V1.8.4//Drivers/STM32F1xx_HAL_Driver/Src/stm32f1xx_hal_rtc_ex.c ****     {
 278:/home/smartth/STM32Cube/Repository/STM32Cube_FW_F1_V1.8.4//Drivers/STM32F1xx_HAL_Driver/Src/stm32f1xx_hal_rtc_ex.c ****       if ((Timeout == 0U) || ((HAL_GetTick() - tickstart) > Timeout))
 487              		.loc 1 278 7 is_stmt 1 view .LVU137
ARM GAS  /tmp/ccYBp0oC.s 			page 15


 488              		.loc 1 278 10 is_stmt 0 view .LVU138
 489 001e 24B1     		cbz	r4, .L42
 490              		.loc 1 278 32 discriminator 1 view .LVU139
 491 0020 FFF7FEFF 		bl	HAL_GetTick
 492              	.LVL38:
 493              		.loc 1 278 46 discriminator 1 view .LVU140
 494 0024 801B     		subs	r0, r0, r6
 495              		.loc 1 278 27 discriminator 1 view .LVU141
 496 0026 A042     		cmp	r0, r4
 497 0028 F1D9     		bls	.L41
 498              	.L42:
 279:/home/smartth/STM32Cube/Repository/STM32Cube_FW_F1_V1.8.4//Drivers/STM32F1xx_HAL_Driver/Src/stm32f1xx_hal_rtc_ex.c ****       {
 280:/home/smartth/STM32Cube/Repository/STM32Cube_FW_F1_V1.8.4//Drivers/STM32F1xx_HAL_Driver/Src/stm32f1xx_hal_rtc_ex.c ****         hrtc->State = HAL_RTC_STATE_TIMEOUT;
 499              		.loc 1 280 9 is_stmt 1 view .LVU142
 500              		.loc 1 280 21 is_stmt 0 view .LVU143
 501 002a 0320     		movs	r0, #3
 502 002c 6874     		strb	r0, [r5, #17]
 281:/home/smartth/STM32Cube/Repository/STM32Cube_FW_F1_V1.8.4//Drivers/STM32F1xx_HAL_Driver/Src/stm32f1xx_hal_rtc_ex.c ****         return HAL_TIMEOUT;
 503              		.loc 1 281 9 is_stmt 1 view .LVU144
 504              		.loc 1 281 16 is_stmt 0 view .LVU145
 505 002e 07E0     		b	.L39
 506              	.L47:
 282:/home/smartth/STM32Cube/Repository/STM32Cube_FW_F1_V1.8.4//Drivers/STM32F1xx_HAL_Driver/Src/stm32f1xx_hal_rtc_ex.c ****       }
 283:/home/smartth/STM32Cube/Repository/STM32Cube_FW_F1_V1.8.4//Drivers/STM32F1xx_HAL_Driver/Src/stm32f1xx_hal_rtc_ex.c ****     }
 284:/home/smartth/STM32Cube/Repository/STM32Cube_FW_F1_V1.8.4//Drivers/STM32F1xx_HAL_Driver/Src/stm32f1xx_hal_rtc_ex.c ****   }
 285:/home/smartth/STM32Cube/Repository/STM32Cube_FW_F1_V1.8.4//Drivers/STM32F1xx_HAL_Driver/Src/stm32f1xx_hal_rtc_ex.c **** 
 286:/home/smartth/STM32Cube/Repository/STM32Cube_FW_F1_V1.8.4//Drivers/STM32F1xx_HAL_Driver/Src/stm32f1xx_hal_rtc_ex.c ****   /* Clear the Tamper Flag */
 287:/home/smartth/STM32Cube/Repository/STM32Cube_FW_F1_V1.8.4//Drivers/STM32F1xx_HAL_Driver/Src/stm32f1xx_hal_rtc_ex.c ****   __HAL_RTC_TAMPER_CLEAR_FLAG(hrtc, RTC_FLAG_TAMP1F);
 507              		.loc 1 287 3 is_stmt 1 view .LVU146
 508 0030 054A     		ldr	r2, .L48
 509 0032 536B     		ldr	r3, [r2, #52]
 510 0034 43F00303 		orr	r3, r3, #3
 511 0038 5363     		str	r3, [r2, #52]
 288:/home/smartth/STM32Cube/Repository/STM32Cube_FW_F1_V1.8.4//Drivers/STM32F1xx_HAL_Driver/Src/stm32f1xx_hal_rtc_ex.c **** 
 289:/home/smartth/STM32Cube/Repository/STM32Cube_FW_F1_V1.8.4//Drivers/STM32F1xx_HAL_Driver/Src/stm32f1xx_hal_rtc_ex.c ****   /* Change RTC state */
 290:/home/smartth/STM32Cube/Repository/STM32Cube_FW_F1_V1.8.4//Drivers/STM32F1xx_HAL_Driver/Src/stm32f1xx_hal_rtc_ex.c ****   hrtc->State = HAL_RTC_STATE_READY;
 512              		.loc 1 290 3 view .LVU147
 513              		.loc 1 290 15 is_stmt 0 view .LVU148
 514 003a 0123     		movs	r3, #1
 515 003c 6B74     		strb	r3, [r5, #17]
 291:/home/smartth/STM32Cube/Repository/STM32Cube_FW_F1_V1.8.4//Drivers/STM32F1xx_HAL_Driver/Src/stm32f1xx_hal_rtc_ex.c **** 
 292:/home/smartth/STM32Cube/Repository/STM32Cube_FW_F1_V1.8.4//Drivers/STM32F1xx_HAL_Driver/Src/stm32f1xx_hal_rtc_ex.c ****   return HAL_OK;
 516              		.loc 1 292 3 is_stmt 1 view .LVU149
 517              		.loc 1 292 10 is_stmt 0 view .LVU150
 518 003e 0020     		movs	r0, #0
 519              	.L39:
 293:/home/smartth/STM32Cube/Repository/STM32Cube_FW_F1_V1.8.4//Drivers/STM32F1xx_HAL_Driver/Src/stm32f1xx_hal_rtc_ex.c **** }
 520              		.loc 1 293 1 view .LVU151
 521 0040 70BD     		pop	{r4, r5, r6, pc}
 522              	.LVL39:
 523              	.L46:
 270:/home/smartth/STM32Cube/Repository/STM32Cube_FW_F1_V1.8.4//Drivers/STM32F1xx_HAL_Driver/Src/stm32f1xx_hal_rtc_ex.c ****   }
 524              		.loc 1 270 12 view .LVU152
 525 0042 0120     		movs	r0, #1
 526              	.LVL40:
 270:/home/smartth/STM32Cube/Repository/STM32Cube_FW_F1_V1.8.4//Drivers/STM32F1xx_HAL_Driver/Src/stm32f1xx_hal_rtc_ex.c ****   }
 527              		.loc 1 270 12 view .LVU153
ARM GAS  /tmp/ccYBp0oC.s 			page 16


 528 0044 FCE7     		b	.L39
 529              	.L49:
 530 0046 00BF     		.align	2
 531              	.L48:
 532 0048 006C0040 		.word	1073769472
 533              		.cfi_endproc
 534              	.LFE70:
 536              		.section	.text.HAL_RTCEx_SetSecond_IT,"ax",%progbits
 537              		.align	1
 538              		.global	HAL_RTCEx_SetSecond_IT
 539              		.syntax unified
 540              		.thumb
 541              		.thumb_func
 542              		.fpu softvfp
 544              	HAL_RTCEx_SetSecond_IT:
 545              	.LVL41:
 546              	.LFB71:
 294:/home/smartth/STM32Cube/Repository/STM32Cube_FW_F1_V1.8.4//Drivers/STM32F1xx_HAL_Driver/Src/stm32f1xx_hal_rtc_ex.c **** 
 295:/home/smartth/STM32Cube/Repository/STM32Cube_FW_F1_V1.8.4//Drivers/STM32F1xx_HAL_Driver/Src/stm32f1xx_hal_rtc_ex.c **** /**
 296:/home/smartth/STM32Cube/Repository/STM32Cube_FW_F1_V1.8.4//Drivers/STM32F1xx_HAL_Driver/Src/stm32f1xx_hal_rtc_ex.c ****   * @}
 297:/home/smartth/STM32Cube/Repository/STM32Cube_FW_F1_V1.8.4//Drivers/STM32F1xx_HAL_Driver/Src/stm32f1xx_hal_rtc_ex.c ****   */
 298:/home/smartth/STM32Cube/Repository/STM32Cube_FW_F1_V1.8.4//Drivers/STM32F1xx_HAL_Driver/Src/stm32f1xx_hal_rtc_ex.c **** 
 299:/home/smartth/STM32Cube/Repository/STM32Cube_FW_F1_V1.8.4//Drivers/STM32F1xx_HAL_Driver/Src/stm32f1xx_hal_rtc_ex.c **** /** @defgroup RTCEx_Exported_Functions_Group2 RTC Second functions
 300:/home/smartth/STM32Cube/Repository/STM32Cube_FW_F1_V1.8.4//Drivers/STM32F1xx_HAL_Driver/Src/stm32f1xx_hal_rtc_ex.c ****   * @brief    RTC Second functions
 301:/home/smartth/STM32Cube/Repository/STM32Cube_FW_F1_V1.8.4//Drivers/STM32F1xx_HAL_Driver/Src/stm32f1xx_hal_rtc_ex.c ****   *
 302:/home/smartth/STM32Cube/Repository/STM32Cube_FW_F1_V1.8.4//Drivers/STM32F1xx_HAL_Driver/Src/stm32f1xx_hal_rtc_ex.c **** @verbatim
 303:/home/smartth/STM32Cube/Repository/STM32Cube_FW_F1_V1.8.4//Drivers/STM32F1xx_HAL_Driver/Src/stm32f1xx_hal_rtc_ex.c ****  ===============================================================================
 304:/home/smartth/STM32Cube/Repository/STM32Cube_FW_F1_V1.8.4//Drivers/STM32F1xx_HAL_Driver/Src/stm32f1xx_hal_rtc_ex.c ****                  ##### RTC Second functions #####
 305:/home/smartth/STM32Cube/Repository/STM32Cube_FW_F1_V1.8.4//Drivers/STM32F1xx_HAL_Driver/Src/stm32f1xx_hal_rtc_ex.c ****  ===============================================================================
 306:/home/smartth/STM32Cube/Repository/STM32Cube_FW_F1_V1.8.4//Drivers/STM32F1xx_HAL_Driver/Src/stm32f1xx_hal_rtc_ex.c **** 
 307:/home/smartth/STM32Cube/Repository/STM32Cube_FW_F1_V1.8.4//Drivers/STM32F1xx_HAL_Driver/Src/stm32f1xx_hal_rtc_ex.c ****  [..] This section provides functions implementing second interupt handlers
 308:/home/smartth/STM32Cube/Repository/STM32Cube_FW_F1_V1.8.4//Drivers/STM32F1xx_HAL_Driver/Src/stm32f1xx_hal_rtc_ex.c **** 
 309:/home/smartth/STM32Cube/Repository/STM32Cube_FW_F1_V1.8.4//Drivers/STM32F1xx_HAL_Driver/Src/stm32f1xx_hal_rtc_ex.c **** @endverbatim
 310:/home/smartth/STM32Cube/Repository/STM32Cube_FW_F1_V1.8.4//Drivers/STM32F1xx_HAL_Driver/Src/stm32f1xx_hal_rtc_ex.c ****   * @{
 311:/home/smartth/STM32Cube/Repository/STM32Cube_FW_F1_V1.8.4//Drivers/STM32F1xx_HAL_Driver/Src/stm32f1xx_hal_rtc_ex.c ****   */
 312:/home/smartth/STM32Cube/Repository/STM32Cube_FW_F1_V1.8.4//Drivers/STM32F1xx_HAL_Driver/Src/stm32f1xx_hal_rtc_ex.c **** 
 313:/home/smartth/STM32Cube/Repository/STM32Cube_FW_F1_V1.8.4//Drivers/STM32F1xx_HAL_Driver/Src/stm32f1xx_hal_rtc_ex.c **** /**
 314:/home/smartth/STM32Cube/Repository/STM32Cube_FW_F1_V1.8.4//Drivers/STM32F1xx_HAL_Driver/Src/stm32f1xx_hal_rtc_ex.c ****   * @brief  Sets Interrupt for second
 315:/home/smartth/STM32Cube/Repository/STM32Cube_FW_F1_V1.8.4//Drivers/STM32F1xx_HAL_Driver/Src/stm32f1xx_hal_rtc_ex.c ****   * @param  hrtc: pointer to a RTC_HandleTypeDef structure that contains
 316:/home/smartth/STM32Cube/Repository/STM32Cube_FW_F1_V1.8.4//Drivers/STM32F1xx_HAL_Driver/Src/stm32f1xx_hal_rtc_ex.c ****   *                the configuration information for RTC.
 317:/home/smartth/STM32Cube/Repository/STM32Cube_FW_F1_V1.8.4//Drivers/STM32F1xx_HAL_Driver/Src/stm32f1xx_hal_rtc_ex.c ****   * @retval HAL status
 318:/home/smartth/STM32Cube/Repository/STM32Cube_FW_F1_V1.8.4//Drivers/STM32F1xx_HAL_Driver/Src/stm32f1xx_hal_rtc_ex.c ****   */
 319:/home/smartth/STM32Cube/Repository/STM32Cube_FW_F1_V1.8.4//Drivers/STM32F1xx_HAL_Driver/Src/stm32f1xx_hal_rtc_ex.c **** HAL_StatusTypeDef HAL_RTCEx_SetSecond_IT(RTC_HandleTypeDef *hrtc)
 320:/home/smartth/STM32Cube/Repository/STM32Cube_FW_F1_V1.8.4//Drivers/STM32F1xx_HAL_Driver/Src/stm32f1xx_hal_rtc_ex.c **** {
 547              		.loc 1 320 1 is_stmt 1 view -0
 548              		.cfi_startproc
 549              		@ args = 0, pretend = 0, frame = 0
 550              		@ frame_needed = 0, uses_anonymous_args = 0
 551              		@ link register save eliminated.
 321:/home/smartth/STM32Cube/Repository/STM32Cube_FW_F1_V1.8.4//Drivers/STM32F1xx_HAL_Driver/Src/stm32f1xx_hal_rtc_ex.c ****   /* Check input parameters */
 322:/home/smartth/STM32Cube/Repository/STM32Cube_FW_F1_V1.8.4//Drivers/STM32F1xx_HAL_Driver/Src/stm32f1xx_hal_rtc_ex.c ****   if (hrtc == NULL)
 552              		.loc 1 322 3 view .LVU155
 553              		.loc 1 322 6 is_stmt 0 view .LVU156
 554 0000 0346     		mov	r3, r0
 555 0002 70B1     		cbz	r0, .L52
 323:/home/smartth/STM32Cube/Repository/STM32Cube_FW_F1_V1.8.4//Drivers/STM32F1xx_HAL_Driver/Src/stm32f1xx_hal_rtc_ex.c ****   {
 324:/home/smartth/STM32Cube/Repository/STM32Cube_FW_F1_V1.8.4//Drivers/STM32F1xx_HAL_Driver/Src/stm32f1xx_hal_rtc_ex.c ****     return HAL_ERROR;
ARM GAS  /tmp/ccYBp0oC.s 			page 17


 325:/home/smartth/STM32Cube/Repository/STM32Cube_FW_F1_V1.8.4//Drivers/STM32F1xx_HAL_Driver/Src/stm32f1xx_hal_rtc_ex.c ****   }
 326:/home/smartth/STM32Cube/Repository/STM32Cube_FW_F1_V1.8.4//Drivers/STM32F1xx_HAL_Driver/Src/stm32f1xx_hal_rtc_ex.c **** 
 327:/home/smartth/STM32Cube/Repository/STM32Cube_FW_F1_V1.8.4//Drivers/STM32F1xx_HAL_Driver/Src/stm32f1xx_hal_rtc_ex.c ****   /* Process Locked */
 328:/home/smartth/STM32Cube/Repository/STM32Cube_FW_F1_V1.8.4//Drivers/STM32F1xx_HAL_Driver/Src/stm32f1xx_hal_rtc_ex.c ****   __HAL_LOCK(hrtc);
 556              		.loc 1 328 3 is_stmt 1 view .LVU157
 557              		.loc 1 328 3 view .LVU158
 558 0004 027C     		ldrb	r2, [r0, #16]	@ zero_extendqisi2
 559 0006 012A     		cmp	r2, #1
 560 0008 0DD0     		beq	.L53
 561              		.loc 1 328 3 discriminator 2 view .LVU159
 562 000a 0121     		movs	r1, #1
 563 000c 0174     		strb	r1, [r0, #16]
 564              		.loc 1 328 3 discriminator 2 view .LVU160
 329:/home/smartth/STM32Cube/Repository/STM32Cube_FW_F1_V1.8.4//Drivers/STM32F1xx_HAL_Driver/Src/stm32f1xx_hal_rtc_ex.c **** 
 330:/home/smartth/STM32Cube/Repository/STM32Cube_FW_F1_V1.8.4//Drivers/STM32F1xx_HAL_Driver/Src/stm32f1xx_hal_rtc_ex.c ****   hrtc->State = HAL_RTC_STATE_BUSY;
 565              		.loc 1 330 3 discriminator 2 view .LVU161
 566              		.loc 1 330 15 is_stmt 0 discriminator 2 view .LVU162
 567 000e 0222     		movs	r2, #2
 568 0010 4274     		strb	r2, [r0, #17]
 331:/home/smartth/STM32Cube/Repository/STM32Cube_FW_F1_V1.8.4//Drivers/STM32F1xx_HAL_Driver/Src/stm32f1xx_hal_rtc_ex.c **** 
 332:/home/smartth/STM32Cube/Repository/STM32Cube_FW_F1_V1.8.4//Drivers/STM32F1xx_HAL_Driver/Src/stm32f1xx_hal_rtc_ex.c ****   /* Enable Second interuption */
 333:/home/smartth/STM32Cube/Repository/STM32Cube_FW_F1_V1.8.4//Drivers/STM32F1xx_HAL_Driver/Src/stm32f1xx_hal_rtc_ex.c ****   __HAL_RTC_SECOND_ENABLE_IT(hrtc, RTC_IT_SEC);
 569              		.loc 1 333 3 is_stmt 1 discriminator 2 view .LVU163
 570 0012 0068     		ldr	r0, [r0]
 571              	.LVL42:
 572              		.loc 1 333 3 is_stmt 0 discriminator 2 view .LVU164
 573 0014 0268     		ldr	r2, [r0]
 574 0016 0A43     		orrs	r2, r2, r1
 575 0018 0260     		str	r2, [r0]
 334:/home/smartth/STM32Cube/Repository/STM32Cube_FW_F1_V1.8.4//Drivers/STM32F1xx_HAL_Driver/Src/stm32f1xx_hal_rtc_ex.c **** 
 335:/home/smartth/STM32Cube/Repository/STM32Cube_FW_F1_V1.8.4//Drivers/STM32F1xx_HAL_Driver/Src/stm32f1xx_hal_rtc_ex.c ****   hrtc->State = HAL_RTC_STATE_READY;
 576              		.loc 1 335 3 is_stmt 1 discriminator 2 view .LVU165
 577              		.loc 1 335 15 is_stmt 0 discriminator 2 view .LVU166
 578 001a 5974     		strb	r1, [r3, #17]
 336:/home/smartth/STM32Cube/Repository/STM32Cube_FW_F1_V1.8.4//Drivers/STM32F1xx_HAL_Driver/Src/stm32f1xx_hal_rtc_ex.c **** 
 337:/home/smartth/STM32Cube/Repository/STM32Cube_FW_F1_V1.8.4//Drivers/STM32F1xx_HAL_Driver/Src/stm32f1xx_hal_rtc_ex.c ****   /* Process Unlocked */
 338:/home/smartth/STM32Cube/Repository/STM32Cube_FW_F1_V1.8.4//Drivers/STM32F1xx_HAL_Driver/Src/stm32f1xx_hal_rtc_ex.c ****   __HAL_UNLOCK(hrtc);
 579              		.loc 1 338 3 is_stmt 1 discriminator 2 view .LVU167
 580              		.loc 1 338 3 discriminator 2 view .LVU168
 581 001c 0020     		movs	r0, #0
 582 001e 1874     		strb	r0, [r3, #16]
 583              		.loc 1 338 3 discriminator 2 view .LVU169
 339:/home/smartth/STM32Cube/Repository/STM32Cube_FW_F1_V1.8.4//Drivers/STM32F1xx_HAL_Driver/Src/stm32f1xx_hal_rtc_ex.c **** 
 340:/home/smartth/STM32Cube/Repository/STM32Cube_FW_F1_V1.8.4//Drivers/STM32F1xx_HAL_Driver/Src/stm32f1xx_hal_rtc_ex.c ****   return HAL_OK;
 584              		.loc 1 340 3 discriminator 2 view .LVU170
 585              		.loc 1 340 10 is_stmt 0 discriminator 2 view .LVU171
 586 0020 7047     		bx	lr
 587              	.LVL43:
 588              	.L52:
 324:/home/smartth/STM32Cube/Repository/STM32Cube_FW_F1_V1.8.4//Drivers/STM32F1xx_HAL_Driver/Src/stm32f1xx_hal_rtc_ex.c ****   }
 589              		.loc 1 324 12 view .LVU172
 590 0022 0120     		movs	r0, #1
 591              	.LVL44:
 324:/home/smartth/STM32Cube/Repository/STM32Cube_FW_F1_V1.8.4//Drivers/STM32F1xx_HAL_Driver/Src/stm32f1xx_hal_rtc_ex.c ****   }
 592              		.loc 1 324 12 view .LVU173
 593 0024 7047     		bx	lr
 594              	.LVL45:
ARM GAS  /tmp/ccYBp0oC.s 			page 18


 595              	.L53:
 328:/home/smartth/STM32Cube/Repository/STM32Cube_FW_F1_V1.8.4//Drivers/STM32F1xx_HAL_Driver/Src/stm32f1xx_hal_rtc_ex.c **** 
 596              		.loc 1 328 3 view .LVU174
 597 0026 0220     		movs	r0, #2
 598              	.LVL46:
 341:/home/smartth/STM32Cube/Repository/STM32Cube_FW_F1_V1.8.4//Drivers/STM32F1xx_HAL_Driver/Src/stm32f1xx_hal_rtc_ex.c **** }
 599              		.loc 1 341 1 view .LVU175
 600 0028 7047     		bx	lr
 601              		.cfi_endproc
 602              	.LFE71:
 604              		.section	.text.HAL_RTCEx_DeactivateSecond,"ax",%progbits
 605              		.align	1
 606              		.global	HAL_RTCEx_DeactivateSecond
 607              		.syntax unified
 608              		.thumb
 609              		.thumb_func
 610              		.fpu softvfp
 612              	HAL_RTCEx_DeactivateSecond:
 613              	.LVL47:
 614              	.LFB72:
 342:/home/smartth/STM32Cube/Repository/STM32Cube_FW_F1_V1.8.4//Drivers/STM32F1xx_HAL_Driver/Src/stm32f1xx_hal_rtc_ex.c **** 
 343:/home/smartth/STM32Cube/Repository/STM32Cube_FW_F1_V1.8.4//Drivers/STM32F1xx_HAL_Driver/Src/stm32f1xx_hal_rtc_ex.c **** /**
 344:/home/smartth/STM32Cube/Repository/STM32Cube_FW_F1_V1.8.4//Drivers/STM32F1xx_HAL_Driver/Src/stm32f1xx_hal_rtc_ex.c ****   * @brief  Deactivates Second.
 345:/home/smartth/STM32Cube/Repository/STM32Cube_FW_F1_V1.8.4//Drivers/STM32F1xx_HAL_Driver/Src/stm32f1xx_hal_rtc_ex.c ****   * @param  hrtc: pointer to a RTC_HandleTypeDef structure that contains
 346:/home/smartth/STM32Cube/Repository/STM32Cube_FW_F1_V1.8.4//Drivers/STM32F1xx_HAL_Driver/Src/stm32f1xx_hal_rtc_ex.c ****   *                the configuration information for RTC.
 347:/home/smartth/STM32Cube/Repository/STM32Cube_FW_F1_V1.8.4//Drivers/STM32F1xx_HAL_Driver/Src/stm32f1xx_hal_rtc_ex.c ****   * @retval HAL status
 348:/home/smartth/STM32Cube/Repository/STM32Cube_FW_F1_V1.8.4//Drivers/STM32F1xx_HAL_Driver/Src/stm32f1xx_hal_rtc_ex.c ****   */
 349:/home/smartth/STM32Cube/Repository/STM32Cube_FW_F1_V1.8.4//Drivers/STM32F1xx_HAL_Driver/Src/stm32f1xx_hal_rtc_ex.c **** HAL_StatusTypeDef HAL_RTCEx_DeactivateSecond(RTC_HandleTypeDef *hrtc)
 350:/home/smartth/STM32Cube/Repository/STM32Cube_FW_F1_V1.8.4//Drivers/STM32F1xx_HAL_Driver/Src/stm32f1xx_hal_rtc_ex.c **** {
 615              		.loc 1 350 1 is_stmt 1 view -0
 616              		.cfi_startproc
 617              		@ args = 0, pretend = 0, frame = 0
 618              		@ frame_needed = 0, uses_anonymous_args = 0
 619              		@ link register save eliminated.
 351:/home/smartth/STM32Cube/Repository/STM32Cube_FW_F1_V1.8.4//Drivers/STM32F1xx_HAL_Driver/Src/stm32f1xx_hal_rtc_ex.c ****   /* Check input parameters */
 352:/home/smartth/STM32Cube/Repository/STM32Cube_FW_F1_V1.8.4//Drivers/STM32F1xx_HAL_Driver/Src/stm32f1xx_hal_rtc_ex.c ****   if (hrtc == NULL)
 620              		.loc 1 352 3 view .LVU177
 621              		.loc 1 352 6 is_stmt 0 view .LVU178
 622 0000 0346     		mov	r3, r0
 623 0002 78B1     		cbz	r0, .L56
 353:/home/smartth/STM32Cube/Repository/STM32Cube_FW_F1_V1.8.4//Drivers/STM32F1xx_HAL_Driver/Src/stm32f1xx_hal_rtc_ex.c ****   {
 354:/home/smartth/STM32Cube/Repository/STM32Cube_FW_F1_V1.8.4//Drivers/STM32F1xx_HAL_Driver/Src/stm32f1xx_hal_rtc_ex.c ****     return HAL_ERROR;
 355:/home/smartth/STM32Cube/Repository/STM32Cube_FW_F1_V1.8.4//Drivers/STM32F1xx_HAL_Driver/Src/stm32f1xx_hal_rtc_ex.c ****   }
 356:/home/smartth/STM32Cube/Repository/STM32Cube_FW_F1_V1.8.4//Drivers/STM32F1xx_HAL_Driver/Src/stm32f1xx_hal_rtc_ex.c **** 
 357:/home/smartth/STM32Cube/Repository/STM32Cube_FW_F1_V1.8.4//Drivers/STM32F1xx_HAL_Driver/Src/stm32f1xx_hal_rtc_ex.c ****   /* Process Locked */
 358:/home/smartth/STM32Cube/Repository/STM32Cube_FW_F1_V1.8.4//Drivers/STM32F1xx_HAL_Driver/Src/stm32f1xx_hal_rtc_ex.c ****   __HAL_LOCK(hrtc);
 624              		.loc 1 358 3 is_stmt 1 view .LVU179
 625              		.loc 1 358 3 view .LVU180
 626 0004 027C     		ldrb	r2, [r0, #16]	@ zero_extendqisi2
 627 0006 012A     		cmp	r2, #1
 628 0008 0ED0     		beq	.L57
 629              		.loc 1 358 3 discriminator 2 view .LVU181
 630 000a 0121     		movs	r1, #1
 631 000c 0174     		strb	r1, [r0, #16]
 632              		.loc 1 358 3 discriminator 2 view .LVU182
 359:/home/smartth/STM32Cube/Repository/STM32Cube_FW_F1_V1.8.4//Drivers/STM32F1xx_HAL_Driver/Src/stm32f1xx_hal_rtc_ex.c **** 
 360:/home/smartth/STM32Cube/Repository/STM32Cube_FW_F1_V1.8.4//Drivers/STM32F1xx_HAL_Driver/Src/stm32f1xx_hal_rtc_ex.c ****   hrtc->State = HAL_RTC_STATE_BUSY;
ARM GAS  /tmp/ccYBp0oC.s 			page 19


 633              		.loc 1 360 3 discriminator 2 view .LVU183
 634              		.loc 1 360 15 is_stmt 0 discriminator 2 view .LVU184
 635 000e 0222     		movs	r2, #2
 636 0010 4274     		strb	r2, [r0, #17]
 361:/home/smartth/STM32Cube/Repository/STM32Cube_FW_F1_V1.8.4//Drivers/STM32F1xx_HAL_Driver/Src/stm32f1xx_hal_rtc_ex.c **** 
 362:/home/smartth/STM32Cube/Repository/STM32Cube_FW_F1_V1.8.4//Drivers/STM32F1xx_HAL_Driver/Src/stm32f1xx_hal_rtc_ex.c ****   /* Deactivate Second interuption*/
 363:/home/smartth/STM32Cube/Repository/STM32Cube_FW_F1_V1.8.4//Drivers/STM32F1xx_HAL_Driver/Src/stm32f1xx_hal_rtc_ex.c ****   __HAL_RTC_SECOND_DISABLE_IT(hrtc, RTC_IT_SEC);
 637              		.loc 1 363 3 is_stmt 1 discriminator 2 view .LVU185
 638 0012 0068     		ldr	r0, [r0]
 639              	.LVL48:
 640              		.loc 1 363 3 is_stmt 0 discriminator 2 view .LVU186
 641 0014 0268     		ldr	r2, [r0]
 642 0016 22F00102 		bic	r2, r2, #1
 643 001a 0260     		str	r2, [r0]
 364:/home/smartth/STM32Cube/Repository/STM32Cube_FW_F1_V1.8.4//Drivers/STM32F1xx_HAL_Driver/Src/stm32f1xx_hal_rtc_ex.c **** 
 365:/home/smartth/STM32Cube/Repository/STM32Cube_FW_F1_V1.8.4//Drivers/STM32F1xx_HAL_Driver/Src/stm32f1xx_hal_rtc_ex.c ****   hrtc->State = HAL_RTC_STATE_READY;
 644              		.loc 1 365 3 is_stmt 1 discriminator 2 view .LVU187
 645              		.loc 1 365 15 is_stmt 0 discriminator 2 view .LVU188
 646 001c 5974     		strb	r1, [r3, #17]
 366:/home/smartth/STM32Cube/Repository/STM32Cube_FW_F1_V1.8.4//Drivers/STM32F1xx_HAL_Driver/Src/stm32f1xx_hal_rtc_ex.c **** 
 367:/home/smartth/STM32Cube/Repository/STM32Cube_FW_F1_V1.8.4//Drivers/STM32F1xx_HAL_Driver/Src/stm32f1xx_hal_rtc_ex.c ****   /* Process Unlocked */
 368:/home/smartth/STM32Cube/Repository/STM32Cube_FW_F1_V1.8.4//Drivers/STM32F1xx_HAL_Driver/Src/stm32f1xx_hal_rtc_ex.c ****   __HAL_UNLOCK(hrtc);
 647              		.loc 1 368 3 is_stmt 1 discriminator 2 view .LVU189
 648              		.loc 1 368 3 discriminator 2 view .LVU190
 649 001e 0020     		movs	r0, #0
 650 0020 1874     		strb	r0, [r3, #16]
 651              		.loc 1 368 3 discriminator 2 view .LVU191
 369:/home/smartth/STM32Cube/Repository/STM32Cube_FW_F1_V1.8.4//Drivers/STM32F1xx_HAL_Driver/Src/stm32f1xx_hal_rtc_ex.c **** 
 370:/home/smartth/STM32Cube/Repository/STM32Cube_FW_F1_V1.8.4//Drivers/STM32F1xx_HAL_Driver/Src/stm32f1xx_hal_rtc_ex.c ****   return HAL_OK;
 652              		.loc 1 370 3 discriminator 2 view .LVU192
 653              		.loc 1 370 10 is_stmt 0 discriminator 2 view .LVU193
 654 0022 7047     		bx	lr
 655              	.LVL49:
 656              	.L56:
 354:/home/smartth/STM32Cube/Repository/STM32Cube_FW_F1_V1.8.4//Drivers/STM32F1xx_HAL_Driver/Src/stm32f1xx_hal_rtc_ex.c ****   }
 657              		.loc 1 354 12 view .LVU194
 658 0024 0120     		movs	r0, #1
 659              	.LVL50:
 354:/home/smartth/STM32Cube/Repository/STM32Cube_FW_F1_V1.8.4//Drivers/STM32F1xx_HAL_Driver/Src/stm32f1xx_hal_rtc_ex.c ****   }
 660              		.loc 1 354 12 view .LVU195
 661 0026 7047     		bx	lr
 662              	.LVL51:
 663              	.L57:
 358:/home/smartth/STM32Cube/Repository/STM32Cube_FW_F1_V1.8.4//Drivers/STM32F1xx_HAL_Driver/Src/stm32f1xx_hal_rtc_ex.c **** 
 664              		.loc 1 358 3 view .LVU196
 665 0028 0220     		movs	r0, #2
 666              	.LVL52:
 371:/home/smartth/STM32Cube/Repository/STM32Cube_FW_F1_V1.8.4//Drivers/STM32F1xx_HAL_Driver/Src/stm32f1xx_hal_rtc_ex.c **** }
 667              		.loc 1 371 1 view .LVU197
 668 002a 7047     		bx	lr
 669              		.cfi_endproc
 670              	.LFE72:
 672              		.section	.text.HAL_RTCEx_RTCEventCallback,"ax",%progbits
 673              		.align	1
 674              		.weak	HAL_RTCEx_RTCEventCallback
 675              		.syntax unified
 676              		.thumb
ARM GAS  /tmp/ccYBp0oC.s 			page 20


 677              		.thumb_func
 678              		.fpu softvfp
 680              	HAL_RTCEx_RTCEventCallback:
 681              	.LVL53:
 682              	.LFB74:
 372:/home/smartth/STM32Cube/Repository/STM32Cube_FW_F1_V1.8.4//Drivers/STM32F1xx_HAL_Driver/Src/stm32f1xx_hal_rtc_ex.c **** 
 373:/home/smartth/STM32Cube/Repository/STM32Cube_FW_F1_V1.8.4//Drivers/STM32F1xx_HAL_Driver/Src/stm32f1xx_hal_rtc_ex.c **** /**
 374:/home/smartth/STM32Cube/Repository/STM32Cube_FW_F1_V1.8.4//Drivers/STM32F1xx_HAL_Driver/Src/stm32f1xx_hal_rtc_ex.c ****   * @brief  This function handles second interrupt request.
 375:/home/smartth/STM32Cube/Repository/STM32Cube_FW_F1_V1.8.4//Drivers/STM32F1xx_HAL_Driver/Src/stm32f1xx_hal_rtc_ex.c ****   * @param  hrtc: pointer to a RTC_HandleTypeDef structure that contains
 376:/home/smartth/STM32Cube/Repository/STM32Cube_FW_F1_V1.8.4//Drivers/STM32F1xx_HAL_Driver/Src/stm32f1xx_hal_rtc_ex.c ****   *                the configuration information for RTC.
 377:/home/smartth/STM32Cube/Repository/STM32Cube_FW_F1_V1.8.4//Drivers/STM32F1xx_HAL_Driver/Src/stm32f1xx_hal_rtc_ex.c ****   * @retval None
 378:/home/smartth/STM32Cube/Repository/STM32Cube_FW_F1_V1.8.4//Drivers/STM32F1xx_HAL_Driver/Src/stm32f1xx_hal_rtc_ex.c ****   */
 379:/home/smartth/STM32Cube/Repository/STM32Cube_FW_F1_V1.8.4//Drivers/STM32F1xx_HAL_Driver/Src/stm32f1xx_hal_rtc_ex.c **** void HAL_RTCEx_RTCIRQHandler(RTC_HandleTypeDef *hrtc)
 380:/home/smartth/STM32Cube/Repository/STM32Cube_FW_F1_V1.8.4//Drivers/STM32F1xx_HAL_Driver/Src/stm32f1xx_hal_rtc_ex.c **** {
 381:/home/smartth/STM32Cube/Repository/STM32Cube_FW_F1_V1.8.4//Drivers/STM32F1xx_HAL_Driver/Src/stm32f1xx_hal_rtc_ex.c ****   if (__HAL_RTC_SECOND_GET_IT_SOURCE(hrtc, RTC_IT_SEC))
 382:/home/smartth/STM32Cube/Repository/STM32Cube_FW_F1_V1.8.4//Drivers/STM32F1xx_HAL_Driver/Src/stm32f1xx_hal_rtc_ex.c ****   {
 383:/home/smartth/STM32Cube/Repository/STM32Cube_FW_F1_V1.8.4//Drivers/STM32F1xx_HAL_Driver/Src/stm32f1xx_hal_rtc_ex.c ****     /* Get the status of the Interrupt */
 384:/home/smartth/STM32Cube/Repository/STM32Cube_FW_F1_V1.8.4//Drivers/STM32F1xx_HAL_Driver/Src/stm32f1xx_hal_rtc_ex.c ****     if (__HAL_RTC_SECOND_GET_FLAG(hrtc, RTC_FLAG_SEC))
 385:/home/smartth/STM32Cube/Repository/STM32Cube_FW_F1_V1.8.4//Drivers/STM32F1xx_HAL_Driver/Src/stm32f1xx_hal_rtc_ex.c ****     {
 386:/home/smartth/STM32Cube/Repository/STM32Cube_FW_F1_V1.8.4//Drivers/STM32F1xx_HAL_Driver/Src/stm32f1xx_hal_rtc_ex.c ****       /* Check if Overrun occurred */
 387:/home/smartth/STM32Cube/Repository/STM32Cube_FW_F1_V1.8.4//Drivers/STM32F1xx_HAL_Driver/Src/stm32f1xx_hal_rtc_ex.c ****       if (__HAL_RTC_SECOND_GET_FLAG(hrtc, RTC_FLAG_OW))
 388:/home/smartth/STM32Cube/Repository/STM32Cube_FW_F1_V1.8.4//Drivers/STM32F1xx_HAL_Driver/Src/stm32f1xx_hal_rtc_ex.c ****       {
 389:/home/smartth/STM32Cube/Repository/STM32Cube_FW_F1_V1.8.4//Drivers/STM32F1xx_HAL_Driver/Src/stm32f1xx_hal_rtc_ex.c ****         /* Second error callback */
 390:/home/smartth/STM32Cube/Repository/STM32Cube_FW_F1_V1.8.4//Drivers/STM32F1xx_HAL_Driver/Src/stm32f1xx_hal_rtc_ex.c ****         HAL_RTCEx_RTCEventErrorCallback(hrtc);
 391:/home/smartth/STM32Cube/Repository/STM32Cube_FW_F1_V1.8.4//Drivers/STM32F1xx_HAL_Driver/Src/stm32f1xx_hal_rtc_ex.c **** 
 392:/home/smartth/STM32Cube/Repository/STM32Cube_FW_F1_V1.8.4//Drivers/STM32F1xx_HAL_Driver/Src/stm32f1xx_hal_rtc_ex.c ****         /* Clear flag Second */
 393:/home/smartth/STM32Cube/Repository/STM32Cube_FW_F1_V1.8.4//Drivers/STM32F1xx_HAL_Driver/Src/stm32f1xx_hal_rtc_ex.c ****         __HAL_RTC_OVERFLOW_CLEAR_FLAG(hrtc, RTC_FLAG_OW);
 394:/home/smartth/STM32Cube/Repository/STM32Cube_FW_F1_V1.8.4//Drivers/STM32F1xx_HAL_Driver/Src/stm32f1xx_hal_rtc_ex.c **** 
 395:/home/smartth/STM32Cube/Repository/STM32Cube_FW_F1_V1.8.4//Drivers/STM32F1xx_HAL_Driver/Src/stm32f1xx_hal_rtc_ex.c ****         /* Change RTC state */
 396:/home/smartth/STM32Cube/Repository/STM32Cube_FW_F1_V1.8.4//Drivers/STM32F1xx_HAL_Driver/Src/stm32f1xx_hal_rtc_ex.c ****         hrtc->State = HAL_RTC_STATE_ERROR;
 397:/home/smartth/STM32Cube/Repository/STM32Cube_FW_F1_V1.8.4//Drivers/STM32F1xx_HAL_Driver/Src/stm32f1xx_hal_rtc_ex.c ****       }
 398:/home/smartth/STM32Cube/Repository/STM32Cube_FW_F1_V1.8.4//Drivers/STM32F1xx_HAL_Driver/Src/stm32f1xx_hal_rtc_ex.c ****       else
 399:/home/smartth/STM32Cube/Repository/STM32Cube_FW_F1_V1.8.4//Drivers/STM32F1xx_HAL_Driver/Src/stm32f1xx_hal_rtc_ex.c ****       {
 400:/home/smartth/STM32Cube/Repository/STM32Cube_FW_F1_V1.8.4//Drivers/STM32F1xx_HAL_Driver/Src/stm32f1xx_hal_rtc_ex.c ****         /* Second callback */
 401:/home/smartth/STM32Cube/Repository/STM32Cube_FW_F1_V1.8.4//Drivers/STM32F1xx_HAL_Driver/Src/stm32f1xx_hal_rtc_ex.c ****         HAL_RTCEx_RTCEventCallback(hrtc);
 402:/home/smartth/STM32Cube/Repository/STM32Cube_FW_F1_V1.8.4//Drivers/STM32F1xx_HAL_Driver/Src/stm32f1xx_hal_rtc_ex.c **** 
 403:/home/smartth/STM32Cube/Repository/STM32Cube_FW_F1_V1.8.4//Drivers/STM32F1xx_HAL_Driver/Src/stm32f1xx_hal_rtc_ex.c ****         /* Change RTC state */
 404:/home/smartth/STM32Cube/Repository/STM32Cube_FW_F1_V1.8.4//Drivers/STM32F1xx_HAL_Driver/Src/stm32f1xx_hal_rtc_ex.c ****         hrtc->State = HAL_RTC_STATE_READY;
 405:/home/smartth/STM32Cube/Repository/STM32Cube_FW_F1_V1.8.4//Drivers/STM32F1xx_HAL_Driver/Src/stm32f1xx_hal_rtc_ex.c ****       }
 406:/home/smartth/STM32Cube/Repository/STM32Cube_FW_F1_V1.8.4//Drivers/STM32F1xx_HAL_Driver/Src/stm32f1xx_hal_rtc_ex.c **** 
 407:/home/smartth/STM32Cube/Repository/STM32Cube_FW_F1_V1.8.4//Drivers/STM32F1xx_HAL_Driver/Src/stm32f1xx_hal_rtc_ex.c ****       /* Clear flag Second */
 408:/home/smartth/STM32Cube/Repository/STM32Cube_FW_F1_V1.8.4//Drivers/STM32F1xx_HAL_Driver/Src/stm32f1xx_hal_rtc_ex.c ****       __HAL_RTC_SECOND_CLEAR_FLAG(hrtc, RTC_FLAG_SEC);
 409:/home/smartth/STM32Cube/Repository/STM32Cube_FW_F1_V1.8.4//Drivers/STM32F1xx_HAL_Driver/Src/stm32f1xx_hal_rtc_ex.c ****     }
 410:/home/smartth/STM32Cube/Repository/STM32Cube_FW_F1_V1.8.4//Drivers/STM32F1xx_HAL_Driver/Src/stm32f1xx_hal_rtc_ex.c ****   }
 411:/home/smartth/STM32Cube/Repository/STM32Cube_FW_F1_V1.8.4//Drivers/STM32F1xx_HAL_Driver/Src/stm32f1xx_hal_rtc_ex.c **** }
 412:/home/smartth/STM32Cube/Repository/STM32Cube_FW_F1_V1.8.4//Drivers/STM32F1xx_HAL_Driver/Src/stm32f1xx_hal_rtc_ex.c **** 
 413:/home/smartth/STM32Cube/Repository/STM32Cube_FW_F1_V1.8.4//Drivers/STM32F1xx_HAL_Driver/Src/stm32f1xx_hal_rtc_ex.c **** /**
 414:/home/smartth/STM32Cube/Repository/STM32Cube_FW_F1_V1.8.4//Drivers/STM32F1xx_HAL_Driver/Src/stm32f1xx_hal_rtc_ex.c ****   * @brief  Second event callback.
 415:/home/smartth/STM32Cube/Repository/STM32Cube_FW_F1_V1.8.4//Drivers/STM32F1xx_HAL_Driver/Src/stm32f1xx_hal_rtc_ex.c ****   * @param  hrtc: pointer to a RTC_HandleTypeDef structure that contains
 416:/home/smartth/STM32Cube/Repository/STM32Cube_FW_F1_V1.8.4//Drivers/STM32F1xx_HAL_Driver/Src/stm32f1xx_hal_rtc_ex.c ****   *                the configuration information for RTC.
 417:/home/smartth/STM32Cube/Repository/STM32Cube_FW_F1_V1.8.4//Drivers/STM32F1xx_HAL_Driver/Src/stm32f1xx_hal_rtc_ex.c ****   * @retval None
 418:/home/smartth/STM32Cube/Repository/STM32Cube_FW_F1_V1.8.4//Drivers/STM32F1xx_HAL_Driver/Src/stm32f1xx_hal_rtc_ex.c ****   */
 419:/home/smartth/STM32Cube/Repository/STM32Cube_FW_F1_V1.8.4//Drivers/STM32F1xx_HAL_Driver/Src/stm32f1xx_hal_rtc_ex.c **** __weak void HAL_RTCEx_RTCEventCallback(RTC_HandleTypeDef *hrtc)
 420:/home/smartth/STM32Cube/Repository/STM32Cube_FW_F1_V1.8.4//Drivers/STM32F1xx_HAL_Driver/Src/stm32f1xx_hal_rtc_ex.c **** {
 683              		.loc 1 420 1 is_stmt 1 view -0
 684              		.cfi_startproc
 685              		@ args = 0, pretend = 0, frame = 0
ARM GAS  /tmp/ccYBp0oC.s 			page 21


 686              		@ frame_needed = 0, uses_anonymous_args = 0
 687              		@ link register save eliminated.
 421:/home/smartth/STM32Cube/Repository/STM32Cube_FW_F1_V1.8.4//Drivers/STM32F1xx_HAL_Driver/Src/stm32f1xx_hal_rtc_ex.c ****   /* Prevent unused argument(s) compilation warning */
 422:/home/smartth/STM32Cube/Repository/STM32Cube_FW_F1_V1.8.4//Drivers/STM32F1xx_HAL_Driver/Src/stm32f1xx_hal_rtc_ex.c ****   UNUSED(hrtc);
 688              		.loc 1 422 3 view .LVU199
 423:/home/smartth/STM32Cube/Repository/STM32Cube_FW_F1_V1.8.4//Drivers/STM32F1xx_HAL_Driver/Src/stm32f1xx_hal_rtc_ex.c ****   /* NOTE : This function Should not be modified, when the callback is needed,
 424:/home/smartth/STM32Cube/Repository/STM32Cube_FW_F1_V1.8.4//Drivers/STM32F1xx_HAL_Driver/Src/stm32f1xx_hal_rtc_ex.c ****             the HAL_RTCEx_RTCEventCallback could be implemented in the user file
 425:/home/smartth/STM32Cube/Repository/STM32Cube_FW_F1_V1.8.4//Drivers/STM32F1xx_HAL_Driver/Src/stm32f1xx_hal_rtc_ex.c ****    */
 426:/home/smartth/STM32Cube/Repository/STM32Cube_FW_F1_V1.8.4//Drivers/STM32F1xx_HAL_Driver/Src/stm32f1xx_hal_rtc_ex.c **** }
 689              		.loc 1 426 1 is_stmt 0 view .LVU200
 690 0000 7047     		bx	lr
 691              		.cfi_endproc
 692              	.LFE74:
 694              		.section	.text.HAL_RTCEx_RTCEventErrorCallback,"ax",%progbits
 695              		.align	1
 696              		.weak	HAL_RTCEx_RTCEventErrorCallback
 697              		.syntax unified
 698              		.thumb
 699              		.thumb_func
 700              		.fpu softvfp
 702              	HAL_RTCEx_RTCEventErrorCallback:
 703              	.LVL54:
 704              	.LFB75:
 427:/home/smartth/STM32Cube/Repository/STM32Cube_FW_F1_V1.8.4//Drivers/STM32F1xx_HAL_Driver/Src/stm32f1xx_hal_rtc_ex.c **** 
 428:/home/smartth/STM32Cube/Repository/STM32Cube_FW_F1_V1.8.4//Drivers/STM32F1xx_HAL_Driver/Src/stm32f1xx_hal_rtc_ex.c **** /**
 429:/home/smartth/STM32Cube/Repository/STM32Cube_FW_F1_V1.8.4//Drivers/STM32F1xx_HAL_Driver/Src/stm32f1xx_hal_rtc_ex.c ****   * @brief  Second event error callback.
 430:/home/smartth/STM32Cube/Repository/STM32Cube_FW_F1_V1.8.4//Drivers/STM32F1xx_HAL_Driver/Src/stm32f1xx_hal_rtc_ex.c ****   * @param  hrtc: pointer to a RTC_HandleTypeDef structure that contains
 431:/home/smartth/STM32Cube/Repository/STM32Cube_FW_F1_V1.8.4//Drivers/STM32F1xx_HAL_Driver/Src/stm32f1xx_hal_rtc_ex.c ****   *                the configuration information for RTC.
 432:/home/smartth/STM32Cube/Repository/STM32Cube_FW_F1_V1.8.4//Drivers/STM32F1xx_HAL_Driver/Src/stm32f1xx_hal_rtc_ex.c ****   * @retval None
 433:/home/smartth/STM32Cube/Repository/STM32Cube_FW_F1_V1.8.4//Drivers/STM32F1xx_HAL_Driver/Src/stm32f1xx_hal_rtc_ex.c ****   */
 434:/home/smartth/STM32Cube/Repository/STM32Cube_FW_F1_V1.8.4//Drivers/STM32F1xx_HAL_Driver/Src/stm32f1xx_hal_rtc_ex.c **** __weak void HAL_RTCEx_RTCEventErrorCallback(RTC_HandleTypeDef *hrtc)
 435:/home/smartth/STM32Cube/Repository/STM32Cube_FW_F1_V1.8.4//Drivers/STM32F1xx_HAL_Driver/Src/stm32f1xx_hal_rtc_ex.c **** {
 705              		.loc 1 435 1 is_stmt 1 view -0
 706              		.cfi_startproc
 707              		@ args = 0, pretend = 0, frame = 0
 708              		@ frame_needed = 0, uses_anonymous_args = 0
 709              		@ link register save eliminated.
 436:/home/smartth/STM32Cube/Repository/STM32Cube_FW_F1_V1.8.4//Drivers/STM32F1xx_HAL_Driver/Src/stm32f1xx_hal_rtc_ex.c ****   /* Prevent unused argument(s) compilation warning */
 437:/home/smartth/STM32Cube/Repository/STM32Cube_FW_F1_V1.8.4//Drivers/STM32F1xx_HAL_Driver/Src/stm32f1xx_hal_rtc_ex.c ****   UNUSED(hrtc);
 710              		.loc 1 437 3 view .LVU202
 438:/home/smartth/STM32Cube/Repository/STM32Cube_FW_F1_V1.8.4//Drivers/STM32F1xx_HAL_Driver/Src/stm32f1xx_hal_rtc_ex.c ****   /* NOTE : This function Should not be modified, when the callback is needed,
 439:/home/smartth/STM32Cube/Repository/STM32Cube_FW_F1_V1.8.4//Drivers/STM32F1xx_HAL_Driver/Src/stm32f1xx_hal_rtc_ex.c ****             the HAL_RTCEx_RTCEventErrorCallback could be implemented in the user file
 440:/home/smartth/STM32Cube/Repository/STM32Cube_FW_F1_V1.8.4//Drivers/STM32F1xx_HAL_Driver/Src/stm32f1xx_hal_rtc_ex.c ****    */
 441:/home/smartth/STM32Cube/Repository/STM32Cube_FW_F1_V1.8.4//Drivers/STM32F1xx_HAL_Driver/Src/stm32f1xx_hal_rtc_ex.c **** }
 711              		.loc 1 441 1 is_stmt 0 view .LVU203
 712 0000 7047     		bx	lr
 713              		.cfi_endproc
 714              	.LFE75:
 716              		.section	.text.HAL_RTCEx_RTCIRQHandler,"ax",%progbits
 717              		.align	1
 718              		.global	HAL_RTCEx_RTCIRQHandler
 719              		.syntax unified
 720              		.thumb
 721              		.thumb_func
 722              		.fpu softvfp
 724              	HAL_RTCEx_RTCIRQHandler:
 725              	.LVL55:
ARM GAS  /tmp/ccYBp0oC.s 			page 22


 726              	.LFB73:
 380:/home/smartth/STM32Cube/Repository/STM32Cube_FW_F1_V1.8.4//Drivers/STM32F1xx_HAL_Driver/Src/stm32f1xx_hal_rtc_ex.c ****   if (__HAL_RTC_SECOND_GET_IT_SOURCE(hrtc, RTC_IT_SEC))
 727              		.loc 1 380 1 is_stmt 1 view -0
 728              		.cfi_startproc
 729              		@ args = 0, pretend = 0, frame = 0
 730              		@ frame_needed = 0, uses_anonymous_args = 0
 381:/home/smartth/STM32Cube/Repository/STM32Cube_FW_F1_V1.8.4//Drivers/STM32F1xx_HAL_Driver/Src/stm32f1xx_hal_rtc_ex.c ****   {
 731              		.loc 1 381 3 view .LVU205
 381:/home/smartth/STM32Cube/Repository/STM32Cube_FW_F1_V1.8.4//Drivers/STM32F1xx_HAL_Driver/Src/stm32f1xx_hal_rtc_ex.c ****   {
 732              		.loc 1 381 7 is_stmt 0 view .LVU206
 733 0000 0368     		ldr	r3, [r0]
 734 0002 1A68     		ldr	r2, [r3]
 381:/home/smartth/STM32Cube/Repository/STM32Cube_FW_F1_V1.8.4//Drivers/STM32F1xx_HAL_Driver/Src/stm32f1xx_hal_rtc_ex.c ****   {
 735              		.loc 1 381 6 view .LVU207
 736 0004 12F0010F 		tst	r2, #1
 737 0008 1CD0     		beq	.L65
 380:/home/smartth/STM32Cube/Repository/STM32Cube_FW_F1_V1.8.4//Drivers/STM32F1xx_HAL_Driver/Src/stm32f1xx_hal_rtc_ex.c ****   if (__HAL_RTC_SECOND_GET_IT_SOURCE(hrtc, RTC_IT_SEC))
 738              		.loc 1 380 1 view .LVU208
 739 000a 10B5     		push	{r4, lr}
 740              	.LCFI6:
 741              		.cfi_def_cfa_offset 8
 742              		.cfi_offset 4, -8
 743              		.cfi_offset 14, -4
 744 000c 0446     		mov	r4, r0
 384:/home/smartth/STM32Cube/Repository/STM32Cube_FW_F1_V1.8.4//Drivers/STM32F1xx_HAL_Driver/Src/stm32f1xx_hal_rtc_ex.c ****     {
 745              		.loc 1 384 5 is_stmt 1 view .LVU209
 384:/home/smartth/STM32Cube/Repository/STM32Cube_FW_F1_V1.8.4//Drivers/STM32F1xx_HAL_Driver/Src/stm32f1xx_hal_rtc_ex.c ****     {
 746              		.loc 1 384 9 is_stmt 0 view .LVU210
 747 000e 5A68     		ldr	r2, [r3, #4]
 384:/home/smartth/STM32Cube/Repository/STM32Cube_FW_F1_V1.8.4//Drivers/STM32F1xx_HAL_Driver/Src/stm32f1xx_hal_rtc_ex.c ****     {
 748              		.loc 1 384 8 view .LVU211
 749 0010 12F0010F 		tst	r2, #1
 750 0014 10D0     		beq	.L60
 387:/home/smartth/STM32Cube/Repository/STM32Cube_FW_F1_V1.8.4//Drivers/STM32F1xx_HAL_Driver/Src/stm32f1xx_hal_rtc_ex.c ****       {
 751              		.loc 1 387 7 is_stmt 1 view .LVU212
 387:/home/smartth/STM32Cube/Repository/STM32Cube_FW_F1_V1.8.4//Drivers/STM32F1xx_HAL_Driver/Src/stm32f1xx_hal_rtc_ex.c ****       {
 752              		.loc 1 387 11 is_stmt 0 view .LVU213
 753 0016 5B68     		ldr	r3, [r3, #4]
 387:/home/smartth/STM32Cube/Repository/STM32Cube_FW_F1_V1.8.4//Drivers/STM32F1xx_HAL_Driver/Src/stm32f1xx_hal_rtc_ex.c ****       {
 754              		.loc 1 387 10 view .LVU214
 755 0018 13F0040F 		tst	r3, #4
 756 001c 0DD0     		beq	.L62
 390:/home/smartth/STM32Cube/Repository/STM32Cube_FW_F1_V1.8.4//Drivers/STM32F1xx_HAL_Driver/Src/stm32f1xx_hal_rtc_ex.c **** 
 757              		.loc 1 390 9 is_stmt 1 view .LVU215
 758 001e FFF7FEFF 		bl	HAL_RTCEx_RTCEventErrorCallback
 759              	.LVL56:
 393:/home/smartth/STM32Cube/Repository/STM32Cube_FW_F1_V1.8.4//Drivers/STM32F1xx_HAL_Driver/Src/stm32f1xx_hal_rtc_ex.c **** 
 760              		.loc 1 393 9 view .LVU216
 761 0022 2368     		ldr	r3, [r4]
 762 0024 6FF00402 		mvn	r2, #4
 763 0028 5A60     		str	r2, [r3, #4]
 396:/home/smartth/STM32Cube/Repository/STM32Cube_FW_F1_V1.8.4//Drivers/STM32F1xx_HAL_Driver/Src/stm32f1xx_hal_rtc_ex.c ****       }
 764              		.loc 1 396 9 view .LVU217
 396:/home/smartth/STM32Cube/Repository/STM32Cube_FW_F1_V1.8.4//Drivers/STM32F1xx_HAL_Driver/Src/stm32f1xx_hal_rtc_ex.c ****       }
 765              		.loc 1 396 21 is_stmt 0 view .LVU218
 766 002a 0423     		movs	r3, #4
 767 002c 6374     		strb	r3, [r4, #17]
ARM GAS  /tmp/ccYBp0oC.s 			page 23


 768              	.L63:
 408:/home/smartth/STM32Cube/Repository/STM32Cube_FW_F1_V1.8.4//Drivers/STM32F1xx_HAL_Driver/Src/stm32f1xx_hal_rtc_ex.c ****     }
 769              		.loc 1 408 7 is_stmt 1 view .LVU219
 770 002e 2268     		ldr	r2, [r4]
 771 0030 5368     		ldr	r3, [r2, #4]
 772 0032 23F00103 		bic	r3, r3, #1
 773 0036 5360     		str	r3, [r2, #4]
 774              	.L60:
 411:/home/smartth/STM32Cube/Repository/STM32Cube_FW_F1_V1.8.4//Drivers/STM32F1xx_HAL_Driver/Src/stm32f1xx_hal_rtc_ex.c **** 
 775              		.loc 1 411 1 is_stmt 0 view .LVU220
 776 0038 10BD     		pop	{r4, pc}
 777              	.LVL57:
 778              	.L62:
 401:/home/smartth/STM32Cube/Repository/STM32Cube_FW_F1_V1.8.4//Drivers/STM32F1xx_HAL_Driver/Src/stm32f1xx_hal_rtc_ex.c **** 
 779              		.loc 1 401 9 is_stmt 1 view .LVU221
 780 003a FFF7FEFF 		bl	HAL_RTCEx_RTCEventCallback
 781              	.LVL58:
 404:/home/smartth/STM32Cube/Repository/STM32Cube_FW_F1_V1.8.4//Drivers/STM32F1xx_HAL_Driver/Src/stm32f1xx_hal_rtc_ex.c ****       }
 782              		.loc 1 404 9 view .LVU222
 404:/home/smartth/STM32Cube/Repository/STM32Cube_FW_F1_V1.8.4//Drivers/STM32F1xx_HAL_Driver/Src/stm32f1xx_hal_rtc_ex.c ****       }
 783              		.loc 1 404 21 is_stmt 0 view .LVU223
 784 003e 0123     		movs	r3, #1
 785 0040 6374     		strb	r3, [r4, #17]
 786 0042 F4E7     		b	.L63
 787              	.LVL59:
 788              	.L65:
 789              	.LCFI7:
 790              		.cfi_def_cfa_offset 0
 791              		.cfi_restore 4
 792              		.cfi_restore 14
 404:/home/smartth/STM32Cube/Repository/STM32Cube_FW_F1_V1.8.4//Drivers/STM32F1xx_HAL_Driver/Src/stm32f1xx_hal_rtc_ex.c ****       }
 793              		.loc 1 404 21 view .LVU224
 794 0044 7047     		bx	lr
 795              		.cfi_endproc
 796              	.LFE73:
 798              		.section	.text.HAL_RTCEx_BKUPWrite,"ax",%progbits
 799              		.align	1
 800              		.global	HAL_RTCEx_BKUPWrite
 801              		.syntax unified
 802              		.thumb
 803              		.thumb_func
 804              		.fpu softvfp
 806              	HAL_RTCEx_BKUPWrite:
 807              	.LVL60:
 808              	.LFB76:
 442:/home/smartth/STM32Cube/Repository/STM32Cube_FW_F1_V1.8.4//Drivers/STM32F1xx_HAL_Driver/Src/stm32f1xx_hal_rtc_ex.c **** 
 443:/home/smartth/STM32Cube/Repository/STM32Cube_FW_F1_V1.8.4//Drivers/STM32F1xx_HAL_Driver/Src/stm32f1xx_hal_rtc_ex.c **** /**
 444:/home/smartth/STM32Cube/Repository/STM32Cube_FW_F1_V1.8.4//Drivers/STM32F1xx_HAL_Driver/Src/stm32f1xx_hal_rtc_ex.c ****   * @}
 445:/home/smartth/STM32Cube/Repository/STM32Cube_FW_F1_V1.8.4//Drivers/STM32F1xx_HAL_Driver/Src/stm32f1xx_hal_rtc_ex.c ****   */
 446:/home/smartth/STM32Cube/Repository/STM32Cube_FW_F1_V1.8.4//Drivers/STM32F1xx_HAL_Driver/Src/stm32f1xx_hal_rtc_ex.c **** 
 447:/home/smartth/STM32Cube/Repository/STM32Cube_FW_F1_V1.8.4//Drivers/STM32F1xx_HAL_Driver/Src/stm32f1xx_hal_rtc_ex.c **** /** @defgroup RTCEx_Exported_Functions_Group3 Extended Peripheral Control functions
 448:/home/smartth/STM32Cube/Repository/STM32Cube_FW_F1_V1.8.4//Drivers/STM32F1xx_HAL_Driver/Src/stm32f1xx_hal_rtc_ex.c ****   * @brief    Extended Peripheral Control functions
 449:/home/smartth/STM32Cube/Repository/STM32Cube_FW_F1_V1.8.4//Drivers/STM32F1xx_HAL_Driver/Src/stm32f1xx_hal_rtc_ex.c ****   *
 450:/home/smartth/STM32Cube/Repository/STM32Cube_FW_F1_V1.8.4//Drivers/STM32F1xx_HAL_Driver/Src/stm32f1xx_hal_rtc_ex.c **** @verbatim
 451:/home/smartth/STM32Cube/Repository/STM32Cube_FW_F1_V1.8.4//Drivers/STM32F1xx_HAL_Driver/Src/stm32f1xx_hal_rtc_ex.c ****  ===============================================================================
 452:/home/smartth/STM32Cube/Repository/STM32Cube_FW_F1_V1.8.4//Drivers/STM32F1xx_HAL_Driver/Src/stm32f1xx_hal_rtc_ex.c ****               ##### Extension Peripheral Control functions #####
 453:/home/smartth/STM32Cube/Repository/STM32Cube_FW_F1_V1.8.4//Drivers/STM32F1xx_HAL_Driver/Src/stm32f1xx_hal_rtc_ex.c ****  ===============================================================================
ARM GAS  /tmp/ccYBp0oC.s 			page 24


 454:/home/smartth/STM32Cube/Repository/STM32Cube_FW_F1_V1.8.4//Drivers/STM32F1xx_HAL_Driver/Src/stm32f1xx_hal_rtc_ex.c ****     [..]
 455:/home/smartth/STM32Cube/Repository/STM32Cube_FW_F1_V1.8.4//Drivers/STM32F1xx_HAL_Driver/Src/stm32f1xx_hal_rtc_ex.c ****     This subsection provides functions allowing to
 456:/home/smartth/STM32Cube/Repository/STM32Cube_FW_F1_V1.8.4//Drivers/STM32F1xx_HAL_Driver/Src/stm32f1xx_hal_rtc_ex.c ****       (+) Writes a data in a specified RTC Backup data register
 457:/home/smartth/STM32Cube/Repository/STM32Cube_FW_F1_V1.8.4//Drivers/STM32F1xx_HAL_Driver/Src/stm32f1xx_hal_rtc_ex.c ****       (+) Read a data in a specified RTC Backup data register
 458:/home/smartth/STM32Cube/Repository/STM32Cube_FW_F1_V1.8.4//Drivers/STM32F1xx_HAL_Driver/Src/stm32f1xx_hal_rtc_ex.c ****       (+) Sets the Smooth calibration parameters.
 459:/home/smartth/STM32Cube/Repository/STM32Cube_FW_F1_V1.8.4//Drivers/STM32F1xx_HAL_Driver/Src/stm32f1xx_hal_rtc_ex.c **** 
 460:/home/smartth/STM32Cube/Repository/STM32Cube_FW_F1_V1.8.4//Drivers/STM32F1xx_HAL_Driver/Src/stm32f1xx_hal_rtc_ex.c **** @endverbatim
 461:/home/smartth/STM32Cube/Repository/STM32Cube_FW_F1_V1.8.4//Drivers/STM32F1xx_HAL_Driver/Src/stm32f1xx_hal_rtc_ex.c ****   * @{
 462:/home/smartth/STM32Cube/Repository/STM32Cube_FW_F1_V1.8.4//Drivers/STM32F1xx_HAL_Driver/Src/stm32f1xx_hal_rtc_ex.c ****   */
 463:/home/smartth/STM32Cube/Repository/STM32Cube_FW_F1_V1.8.4//Drivers/STM32F1xx_HAL_Driver/Src/stm32f1xx_hal_rtc_ex.c **** 
 464:/home/smartth/STM32Cube/Repository/STM32Cube_FW_F1_V1.8.4//Drivers/STM32F1xx_HAL_Driver/Src/stm32f1xx_hal_rtc_ex.c **** /**
 465:/home/smartth/STM32Cube/Repository/STM32Cube_FW_F1_V1.8.4//Drivers/STM32F1xx_HAL_Driver/Src/stm32f1xx_hal_rtc_ex.c ****   * @brief  Writes a data in a specified RTC Backup data register.
 466:/home/smartth/STM32Cube/Repository/STM32Cube_FW_F1_V1.8.4//Drivers/STM32F1xx_HAL_Driver/Src/stm32f1xx_hal_rtc_ex.c ****   * @param  hrtc: pointer to a RTC_HandleTypeDef structure that contains
 467:/home/smartth/STM32Cube/Repository/STM32Cube_FW_F1_V1.8.4//Drivers/STM32F1xx_HAL_Driver/Src/stm32f1xx_hal_rtc_ex.c ****   *                the configuration information for RTC.
 468:/home/smartth/STM32Cube/Repository/STM32Cube_FW_F1_V1.8.4//Drivers/STM32F1xx_HAL_Driver/Src/stm32f1xx_hal_rtc_ex.c ****   * @param  BackupRegister: RTC Backup data Register number.
 469:/home/smartth/STM32Cube/Repository/STM32Cube_FW_F1_V1.8.4//Drivers/STM32F1xx_HAL_Driver/Src/stm32f1xx_hal_rtc_ex.c ****   *          This parameter can be: RTC_BKP_DRx where x can be from 1 to 10 (or 42) to
 470:/home/smartth/STM32Cube/Repository/STM32Cube_FW_F1_V1.8.4//Drivers/STM32F1xx_HAL_Driver/Src/stm32f1xx_hal_rtc_ex.c ****   *                                 specify the register (depending devices).
 471:/home/smartth/STM32Cube/Repository/STM32Cube_FW_F1_V1.8.4//Drivers/STM32F1xx_HAL_Driver/Src/stm32f1xx_hal_rtc_ex.c ****   * @param  Data: Data to be written in the specified RTC Backup data register.
 472:/home/smartth/STM32Cube/Repository/STM32Cube_FW_F1_V1.8.4//Drivers/STM32F1xx_HAL_Driver/Src/stm32f1xx_hal_rtc_ex.c ****   * @retval None
 473:/home/smartth/STM32Cube/Repository/STM32Cube_FW_F1_V1.8.4//Drivers/STM32F1xx_HAL_Driver/Src/stm32f1xx_hal_rtc_ex.c ****   */
 474:/home/smartth/STM32Cube/Repository/STM32Cube_FW_F1_V1.8.4//Drivers/STM32F1xx_HAL_Driver/Src/stm32f1xx_hal_rtc_ex.c **** void HAL_RTCEx_BKUPWrite(RTC_HandleTypeDef *hrtc, uint32_t BackupRegister, uint32_t Data)
 475:/home/smartth/STM32Cube/Repository/STM32Cube_FW_F1_V1.8.4//Drivers/STM32F1xx_HAL_Driver/Src/stm32f1xx_hal_rtc_ex.c **** {
 809              		.loc 1 475 1 is_stmt 1 view -0
 810              		.cfi_startproc
 811              		@ args = 0, pretend = 0, frame = 0
 812              		@ frame_needed = 0, uses_anonymous_args = 0
 813              		@ link register save eliminated.
 476:/home/smartth/STM32Cube/Repository/STM32Cube_FW_F1_V1.8.4//Drivers/STM32F1xx_HAL_Driver/Src/stm32f1xx_hal_rtc_ex.c ****   uint32_t tmp = 0U;
 814              		.loc 1 476 3 view .LVU226
 477:/home/smartth/STM32Cube/Repository/STM32Cube_FW_F1_V1.8.4//Drivers/STM32F1xx_HAL_Driver/Src/stm32f1xx_hal_rtc_ex.c **** 
 478:/home/smartth/STM32Cube/Repository/STM32Cube_FW_F1_V1.8.4//Drivers/STM32F1xx_HAL_Driver/Src/stm32f1xx_hal_rtc_ex.c ****   /* Prevent unused argument(s) compilation warning */
 479:/home/smartth/STM32Cube/Repository/STM32Cube_FW_F1_V1.8.4//Drivers/STM32F1xx_HAL_Driver/Src/stm32f1xx_hal_rtc_ex.c ****   UNUSED(hrtc);
 815              		.loc 1 479 3 view .LVU227
 480:/home/smartth/STM32Cube/Repository/STM32Cube_FW_F1_V1.8.4//Drivers/STM32F1xx_HAL_Driver/Src/stm32f1xx_hal_rtc_ex.c **** 
 481:/home/smartth/STM32Cube/Repository/STM32Cube_FW_F1_V1.8.4//Drivers/STM32F1xx_HAL_Driver/Src/stm32f1xx_hal_rtc_ex.c ****   /* Check the parameters */
 482:/home/smartth/STM32Cube/Repository/STM32Cube_FW_F1_V1.8.4//Drivers/STM32F1xx_HAL_Driver/Src/stm32f1xx_hal_rtc_ex.c ****   assert_param(IS_RTC_BKP(BackupRegister));
 816              		.loc 1 482 3 view .LVU228
 483:/home/smartth/STM32Cube/Repository/STM32Cube_FW_F1_V1.8.4//Drivers/STM32F1xx_HAL_Driver/Src/stm32f1xx_hal_rtc_ex.c **** 
 484:/home/smartth/STM32Cube/Repository/STM32Cube_FW_F1_V1.8.4//Drivers/STM32F1xx_HAL_Driver/Src/stm32f1xx_hal_rtc_ex.c ****   tmp = (uint32_t)BKP_BASE;
 817              		.loc 1 484 3 view .LVU229
 485:/home/smartth/STM32Cube/Repository/STM32Cube_FW_F1_V1.8.4//Drivers/STM32F1xx_HAL_Driver/Src/stm32f1xx_hal_rtc_ex.c ****   tmp += (BackupRegister * 4U);
 818              		.loc 1 485 3 view .LVU230
 819              		.loc 1 485 26 is_stmt 0 view .LVU231
 820 0000 8900     		lsls	r1, r1, #2
 821              	.LVL61:
 822              		.loc 1 485 7 view .LVU232
 823 0002 01F18041 		add	r1, r1, #1073741824
 824 0006 01F5D841 		add	r1, r1, #27648
 825              	.LVL62:
 486:/home/smartth/STM32Cube/Repository/STM32Cube_FW_F1_V1.8.4//Drivers/STM32F1xx_HAL_Driver/Src/stm32f1xx_hal_rtc_ex.c **** 
 487:/home/smartth/STM32Cube/Repository/STM32Cube_FW_F1_V1.8.4//Drivers/STM32F1xx_HAL_Driver/Src/stm32f1xx_hal_rtc_ex.c ****   *(__IO uint32_t *) tmp = (Data & BKP_DR1_D);
 826              		.loc 1 487 3 is_stmt 1 view .LVU233
 827              		.loc 1 487 34 is_stmt 0 view .LVU234
 828 000a 92B2     		uxth	r2, r2
 829              	.LVL63:
 830              		.loc 1 487 26 view .LVU235
 831 000c 0A60     		str	r2, [r1]
ARM GAS  /tmp/ccYBp0oC.s 			page 25


 488:/home/smartth/STM32Cube/Repository/STM32Cube_FW_F1_V1.8.4//Drivers/STM32F1xx_HAL_Driver/Src/stm32f1xx_hal_rtc_ex.c **** }
 832              		.loc 1 488 1 view .LVU236
 833 000e 7047     		bx	lr
 834              		.cfi_endproc
 835              	.LFE76:
 837              		.section	.text.HAL_RTCEx_BKUPRead,"ax",%progbits
 838              		.align	1
 839              		.global	HAL_RTCEx_BKUPRead
 840              		.syntax unified
 841              		.thumb
 842              		.thumb_func
 843              		.fpu softvfp
 845              	HAL_RTCEx_BKUPRead:
 846              	.LVL64:
 847              	.LFB77:
 489:/home/smartth/STM32Cube/Repository/STM32Cube_FW_F1_V1.8.4//Drivers/STM32F1xx_HAL_Driver/Src/stm32f1xx_hal_rtc_ex.c **** 
 490:/home/smartth/STM32Cube/Repository/STM32Cube_FW_F1_V1.8.4//Drivers/STM32F1xx_HAL_Driver/Src/stm32f1xx_hal_rtc_ex.c **** /**
 491:/home/smartth/STM32Cube/Repository/STM32Cube_FW_F1_V1.8.4//Drivers/STM32F1xx_HAL_Driver/Src/stm32f1xx_hal_rtc_ex.c ****   * @brief  Reads data from the specified RTC Backup data Register.
 492:/home/smartth/STM32Cube/Repository/STM32Cube_FW_F1_V1.8.4//Drivers/STM32F1xx_HAL_Driver/Src/stm32f1xx_hal_rtc_ex.c ****   * @param  hrtc: pointer to a RTC_HandleTypeDef structure that contains
 493:/home/smartth/STM32Cube/Repository/STM32Cube_FW_F1_V1.8.4//Drivers/STM32F1xx_HAL_Driver/Src/stm32f1xx_hal_rtc_ex.c ****   *                the configuration information for RTC.
 494:/home/smartth/STM32Cube/Repository/STM32Cube_FW_F1_V1.8.4//Drivers/STM32F1xx_HAL_Driver/Src/stm32f1xx_hal_rtc_ex.c ****   * @param  BackupRegister: RTC Backup data Register number.
 495:/home/smartth/STM32Cube/Repository/STM32Cube_FW_F1_V1.8.4//Drivers/STM32F1xx_HAL_Driver/Src/stm32f1xx_hal_rtc_ex.c ****   *          This parameter can be: RTC_BKP_DRx where x can be from 1 to 10 (or 42) to
 496:/home/smartth/STM32Cube/Repository/STM32Cube_FW_F1_V1.8.4//Drivers/STM32F1xx_HAL_Driver/Src/stm32f1xx_hal_rtc_ex.c ****   *                                 specify the register (depending devices).
 497:/home/smartth/STM32Cube/Repository/STM32Cube_FW_F1_V1.8.4//Drivers/STM32F1xx_HAL_Driver/Src/stm32f1xx_hal_rtc_ex.c ****   * @retval Read value
 498:/home/smartth/STM32Cube/Repository/STM32Cube_FW_F1_V1.8.4//Drivers/STM32F1xx_HAL_Driver/Src/stm32f1xx_hal_rtc_ex.c ****   */
 499:/home/smartth/STM32Cube/Repository/STM32Cube_FW_F1_V1.8.4//Drivers/STM32F1xx_HAL_Driver/Src/stm32f1xx_hal_rtc_ex.c **** uint32_t HAL_RTCEx_BKUPRead(RTC_HandleTypeDef *hrtc, uint32_t BackupRegister)
 500:/home/smartth/STM32Cube/Repository/STM32Cube_FW_F1_V1.8.4//Drivers/STM32F1xx_HAL_Driver/Src/stm32f1xx_hal_rtc_ex.c **** {
 848              		.loc 1 500 1 is_stmt 1 view -0
 849              		.cfi_startproc
 850              		@ args = 0, pretend = 0, frame = 0
 851              		@ frame_needed = 0, uses_anonymous_args = 0
 852              		@ link register save eliminated.
 501:/home/smartth/STM32Cube/Repository/STM32Cube_FW_F1_V1.8.4//Drivers/STM32F1xx_HAL_Driver/Src/stm32f1xx_hal_rtc_ex.c ****   uint32_t backupregister = 0U;
 853              		.loc 1 501 3 view .LVU238
 502:/home/smartth/STM32Cube/Repository/STM32Cube_FW_F1_V1.8.4//Drivers/STM32F1xx_HAL_Driver/Src/stm32f1xx_hal_rtc_ex.c ****   uint32_t pvalue = 0U;
 854              		.loc 1 502 3 view .LVU239
 503:/home/smartth/STM32Cube/Repository/STM32Cube_FW_F1_V1.8.4//Drivers/STM32F1xx_HAL_Driver/Src/stm32f1xx_hal_rtc_ex.c **** 
 504:/home/smartth/STM32Cube/Repository/STM32Cube_FW_F1_V1.8.4//Drivers/STM32F1xx_HAL_Driver/Src/stm32f1xx_hal_rtc_ex.c ****   /* Prevent unused argument(s) compilation warning */
 505:/home/smartth/STM32Cube/Repository/STM32Cube_FW_F1_V1.8.4//Drivers/STM32F1xx_HAL_Driver/Src/stm32f1xx_hal_rtc_ex.c ****   UNUSED(hrtc);
 855              		.loc 1 505 3 view .LVU240
 506:/home/smartth/STM32Cube/Repository/STM32Cube_FW_F1_V1.8.4//Drivers/STM32F1xx_HAL_Driver/Src/stm32f1xx_hal_rtc_ex.c **** 
 507:/home/smartth/STM32Cube/Repository/STM32Cube_FW_F1_V1.8.4//Drivers/STM32F1xx_HAL_Driver/Src/stm32f1xx_hal_rtc_ex.c ****   /* Check the parameters */
 508:/home/smartth/STM32Cube/Repository/STM32Cube_FW_F1_V1.8.4//Drivers/STM32F1xx_HAL_Driver/Src/stm32f1xx_hal_rtc_ex.c ****   assert_param(IS_RTC_BKP(BackupRegister));
 856              		.loc 1 508 3 view .LVU241
 509:/home/smartth/STM32Cube/Repository/STM32Cube_FW_F1_V1.8.4//Drivers/STM32F1xx_HAL_Driver/Src/stm32f1xx_hal_rtc_ex.c **** 
 510:/home/smartth/STM32Cube/Repository/STM32Cube_FW_F1_V1.8.4//Drivers/STM32F1xx_HAL_Driver/Src/stm32f1xx_hal_rtc_ex.c ****   backupregister = (uint32_t)BKP_BASE;
 857              		.loc 1 510 3 view .LVU242
 511:/home/smartth/STM32Cube/Repository/STM32Cube_FW_F1_V1.8.4//Drivers/STM32F1xx_HAL_Driver/Src/stm32f1xx_hal_rtc_ex.c ****   backupregister += (BackupRegister * 4U);
 858              		.loc 1 511 3 view .LVU243
 859              		.loc 1 511 37 is_stmt 0 view .LVU244
 860 0000 8900     		lsls	r1, r1, #2
 861              	.LVL65:
 862              		.loc 1 511 18 view .LVU245
 863 0002 01F18041 		add	r1, r1, #1073741824
 864 0006 01F5D841 		add	r1, r1, #27648
 865              	.LVL66:
 512:/home/smartth/STM32Cube/Repository/STM32Cube_FW_F1_V1.8.4//Drivers/STM32F1xx_HAL_Driver/Src/stm32f1xx_hal_rtc_ex.c **** 
ARM GAS  /tmp/ccYBp0oC.s 			page 26


 513:/home/smartth/STM32Cube/Repository/STM32Cube_FW_F1_V1.8.4//Drivers/STM32F1xx_HAL_Driver/Src/stm32f1xx_hal_rtc_ex.c ****   pvalue = (*(__IO uint32_t *)(backupregister)) & BKP_DR1_D;
 866              		.loc 1 513 3 is_stmt 1 view .LVU246
 867              		.loc 1 513 13 is_stmt 0 view .LVU247
 868 000a 0868     		ldr	r0, [r1]
 869              	.LVL67:
 514:/home/smartth/STM32Cube/Repository/STM32Cube_FW_F1_V1.8.4//Drivers/STM32F1xx_HAL_Driver/Src/stm32f1xx_hal_rtc_ex.c **** 
 515:/home/smartth/STM32Cube/Repository/STM32Cube_FW_F1_V1.8.4//Drivers/STM32F1xx_HAL_Driver/Src/stm32f1xx_hal_rtc_ex.c ****   /* Read the specified register */
 516:/home/smartth/STM32Cube/Repository/STM32Cube_FW_F1_V1.8.4//Drivers/STM32F1xx_HAL_Driver/Src/stm32f1xx_hal_rtc_ex.c ****   return pvalue;
 870              		.loc 1 516 3 is_stmt 1 view .LVU248
 517:/home/smartth/STM32Cube/Repository/STM32Cube_FW_F1_V1.8.4//Drivers/STM32F1xx_HAL_Driver/Src/stm32f1xx_hal_rtc_ex.c **** }
 871              		.loc 1 517 1 is_stmt 0 view .LVU249
 872 000c 80B2     		uxth	r0, r0
 873              	.LVL68:
 874              		.loc 1 517 1 view .LVU250
 875 000e 7047     		bx	lr
 876              		.cfi_endproc
 877              	.LFE77:
 879              		.section	.text.HAL_RTCEx_SetSmoothCalib,"ax",%progbits
 880              		.align	1
 881              		.global	HAL_RTCEx_SetSmoothCalib
 882              		.syntax unified
 883              		.thumb
 884              		.thumb_func
 885              		.fpu softvfp
 887              	HAL_RTCEx_SetSmoothCalib:
 888              	.LVL69:
 889              	.LFB78:
 518:/home/smartth/STM32Cube/Repository/STM32Cube_FW_F1_V1.8.4//Drivers/STM32F1xx_HAL_Driver/Src/stm32f1xx_hal_rtc_ex.c **** 
 519:/home/smartth/STM32Cube/Repository/STM32Cube_FW_F1_V1.8.4//Drivers/STM32F1xx_HAL_Driver/Src/stm32f1xx_hal_rtc_ex.c **** 
 520:/home/smartth/STM32Cube/Repository/STM32Cube_FW_F1_V1.8.4//Drivers/STM32F1xx_HAL_Driver/Src/stm32f1xx_hal_rtc_ex.c **** /**
 521:/home/smartth/STM32Cube/Repository/STM32Cube_FW_F1_V1.8.4//Drivers/STM32F1xx_HAL_Driver/Src/stm32f1xx_hal_rtc_ex.c ****   * @brief  Sets the Smooth calibration parameters.
 522:/home/smartth/STM32Cube/Repository/STM32Cube_FW_F1_V1.8.4//Drivers/STM32F1xx_HAL_Driver/Src/stm32f1xx_hal_rtc_ex.c ****   * @param  hrtc: RTC handle
 523:/home/smartth/STM32Cube/Repository/STM32Cube_FW_F1_V1.8.4//Drivers/STM32F1xx_HAL_Driver/Src/stm32f1xx_hal_rtc_ex.c ****   * @param  SmoothCalibPeriod: Not used (only present for compatibility with another families)
 524:/home/smartth/STM32Cube/Repository/STM32Cube_FW_F1_V1.8.4//Drivers/STM32F1xx_HAL_Driver/Src/stm32f1xx_hal_rtc_ex.c ****   * @param  SmoothCalibPlusPulses: Not used (only present for compatibility with another families)
 525:/home/smartth/STM32Cube/Repository/STM32Cube_FW_F1_V1.8.4//Drivers/STM32F1xx_HAL_Driver/Src/stm32f1xx_hal_rtc_ex.c ****   * @param  SmouthCalibMinusPulsesValue: specifies the RTC Clock Calibration value.
 526:/home/smartth/STM32Cube/Repository/STM32Cube_FW_F1_V1.8.4//Drivers/STM32F1xx_HAL_Driver/Src/stm32f1xx_hal_rtc_ex.c ****   *          This parameter must be a number between 0 and 0x7F.
 527:/home/smartth/STM32Cube/Repository/STM32Cube_FW_F1_V1.8.4//Drivers/STM32F1xx_HAL_Driver/Src/stm32f1xx_hal_rtc_ex.c ****   * @retval HAL status
 528:/home/smartth/STM32Cube/Repository/STM32Cube_FW_F1_V1.8.4//Drivers/STM32F1xx_HAL_Driver/Src/stm32f1xx_hal_rtc_ex.c ****   */
 529:/home/smartth/STM32Cube/Repository/STM32Cube_FW_F1_V1.8.4//Drivers/STM32F1xx_HAL_Driver/Src/stm32f1xx_hal_rtc_ex.c **** HAL_StatusTypeDef HAL_RTCEx_SetSmoothCalib(RTC_HandleTypeDef *hrtc, uint32_t SmoothCalibPeriod, uin
 530:/home/smartth/STM32Cube/Repository/STM32Cube_FW_F1_V1.8.4//Drivers/STM32F1xx_HAL_Driver/Src/stm32f1xx_hal_rtc_ex.c **** {
 890              		.loc 1 530 1 is_stmt 1 view -0
 891              		.cfi_startproc
 892              		@ args = 0, pretend = 0, frame = 0
 893              		@ frame_needed = 0, uses_anonymous_args = 0
 894              		@ link register save eliminated.
 531:/home/smartth/STM32Cube/Repository/STM32Cube_FW_F1_V1.8.4//Drivers/STM32F1xx_HAL_Driver/Src/stm32f1xx_hal_rtc_ex.c ****   /* Check input parameters */
 532:/home/smartth/STM32Cube/Repository/STM32Cube_FW_F1_V1.8.4//Drivers/STM32F1xx_HAL_Driver/Src/stm32f1xx_hal_rtc_ex.c ****   if (hrtc == NULL)
 895              		.loc 1 532 3 view .LVU252
 896              		.loc 1 532 6 is_stmt 0 view .LVU253
 897 0000 98B1     		cbz	r0, .L72
 898 0002 0246     		mov	r2, r0
 899              	.LVL70:
 533:/home/smartth/STM32Cube/Repository/STM32Cube_FW_F1_V1.8.4//Drivers/STM32F1xx_HAL_Driver/Src/stm32f1xx_hal_rtc_ex.c ****   {
 534:/home/smartth/STM32Cube/Repository/STM32Cube_FW_F1_V1.8.4//Drivers/STM32F1xx_HAL_Driver/Src/stm32f1xx_hal_rtc_ex.c ****     return HAL_ERROR;
 535:/home/smartth/STM32Cube/Repository/STM32Cube_FW_F1_V1.8.4//Drivers/STM32F1xx_HAL_Driver/Src/stm32f1xx_hal_rtc_ex.c ****   }
 536:/home/smartth/STM32Cube/Repository/STM32Cube_FW_F1_V1.8.4//Drivers/STM32F1xx_HAL_Driver/Src/stm32f1xx_hal_rtc_ex.c ****   /* Prevent unused argument(s) compilation warning */
 537:/home/smartth/STM32Cube/Repository/STM32Cube_FW_F1_V1.8.4//Drivers/STM32F1xx_HAL_Driver/Src/stm32f1xx_hal_rtc_ex.c ****   UNUSED(SmoothCalibPeriod);
ARM GAS  /tmp/ccYBp0oC.s 			page 27


 900              		.loc 1 537 3 is_stmt 1 view .LVU254
 538:/home/smartth/STM32Cube/Repository/STM32Cube_FW_F1_V1.8.4//Drivers/STM32F1xx_HAL_Driver/Src/stm32f1xx_hal_rtc_ex.c ****   UNUSED(SmoothCalibPlusPulses);
 901              		.loc 1 538 3 view .LVU255
 539:/home/smartth/STM32Cube/Repository/STM32Cube_FW_F1_V1.8.4//Drivers/STM32F1xx_HAL_Driver/Src/stm32f1xx_hal_rtc_ex.c **** 
 540:/home/smartth/STM32Cube/Repository/STM32Cube_FW_F1_V1.8.4//Drivers/STM32F1xx_HAL_Driver/Src/stm32f1xx_hal_rtc_ex.c ****   /* Check the parameters */
 541:/home/smartth/STM32Cube/Repository/STM32Cube_FW_F1_V1.8.4//Drivers/STM32F1xx_HAL_Driver/Src/stm32f1xx_hal_rtc_ex.c ****   assert_param(IS_RTC_SMOOTH_CALIB_MINUS(SmouthCalibMinusPulsesValue));
 902              		.loc 1 541 3 view .LVU256
 542:/home/smartth/STM32Cube/Repository/STM32Cube_FW_F1_V1.8.4//Drivers/STM32F1xx_HAL_Driver/Src/stm32f1xx_hal_rtc_ex.c **** 
 543:/home/smartth/STM32Cube/Repository/STM32Cube_FW_F1_V1.8.4//Drivers/STM32F1xx_HAL_Driver/Src/stm32f1xx_hal_rtc_ex.c ****   /* Process Locked */
 544:/home/smartth/STM32Cube/Repository/STM32Cube_FW_F1_V1.8.4//Drivers/STM32F1xx_HAL_Driver/Src/stm32f1xx_hal_rtc_ex.c ****   __HAL_LOCK(hrtc);
 903              		.loc 1 544 3 view .LVU257
 904              		.loc 1 544 3 view .LVU258
 905 0004 017C     		ldrb	r1, [r0, #16]	@ zero_extendqisi2
 906              	.LVL71:
 907              		.loc 1 544 3 is_stmt 0 view .LVU259
 908 0006 0129     		cmp	r1, #1
 909 0008 11D0     		beq	.L73
 530:/home/smartth/STM32Cube/Repository/STM32Cube_FW_F1_V1.8.4//Drivers/STM32F1xx_HAL_Driver/Src/stm32f1xx_hal_rtc_ex.c ****   /* Check input parameters */
 910              		.loc 1 530 1 discriminator 2 view .LVU260
 911 000a 10B4     		push	{r4}
 912              	.LCFI8:
 913              		.cfi_def_cfa_offset 4
 914              		.cfi_offset 4, -4
 915              		.loc 1 544 3 is_stmt 1 discriminator 2 view .LVU261
 916 000c 0120     		movs	r0, #1
 917              	.LVL72:
 918              		.loc 1 544 3 is_stmt 0 discriminator 2 view .LVU262
 919 000e 1074     		strb	r0, [r2, #16]
 920              		.loc 1 544 3 is_stmt 1 discriminator 2 view .LVU263
 545:/home/smartth/STM32Cube/Repository/STM32Cube_FW_F1_V1.8.4//Drivers/STM32F1xx_HAL_Driver/Src/stm32f1xx_hal_rtc_ex.c **** 
 546:/home/smartth/STM32Cube/Repository/STM32Cube_FW_F1_V1.8.4//Drivers/STM32F1xx_HAL_Driver/Src/stm32f1xx_hal_rtc_ex.c ****   hrtc->State = HAL_RTC_STATE_BUSY;
 921              		.loc 1 546 3 discriminator 2 view .LVU264
 922              		.loc 1 546 15 is_stmt 0 discriminator 2 view .LVU265
 923 0010 0221     		movs	r1, #2
 924 0012 5174     		strb	r1, [r2, #17]
 547:/home/smartth/STM32Cube/Repository/STM32Cube_FW_F1_V1.8.4//Drivers/STM32F1xx_HAL_Driver/Src/stm32f1xx_hal_rtc_ex.c **** 
 548:/home/smartth/STM32Cube/Repository/STM32Cube_FW_F1_V1.8.4//Drivers/STM32F1xx_HAL_Driver/Src/stm32f1xx_hal_rtc_ex.c ****   /* Sets RTC Clock Calibration value.*/
 549:/home/smartth/STM32Cube/Repository/STM32Cube_FW_F1_V1.8.4//Drivers/STM32F1xx_HAL_Driver/Src/stm32f1xx_hal_rtc_ex.c ****   MODIFY_REG(BKP->RTCCR, BKP_RTCCR_CAL, SmouthCalibMinusPulsesValue);
 925              		.loc 1 549 3 is_stmt 1 discriminator 2 view .LVU266
 926 0014 074C     		ldr	r4, .L78
 927 0016 E16A     		ldr	r1, [r4, #44]
 928 0018 21F07F01 		bic	r1, r1, #127
 929 001c 0B43     		orrs	r3, r3, r1
 930              	.LVL73:
 931              		.loc 1 549 3 is_stmt 0 discriminator 2 view .LVU267
 932 001e E362     		str	r3, [r4, #44]
 550:/home/smartth/STM32Cube/Repository/STM32Cube_FW_F1_V1.8.4//Drivers/STM32F1xx_HAL_Driver/Src/stm32f1xx_hal_rtc_ex.c **** 
 551:/home/smartth/STM32Cube/Repository/STM32Cube_FW_F1_V1.8.4//Drivers/STM32F1xx_HAL_Driver/Src/stm32f1xx_hal_rtc_ex.c ****   /* Change RTC state */
 552:/home/smartth/STM32Cube/Repository/STM32Cube_FW_F1_V1.8.4//Drivers/STM32F1xx_HAL_Driver/Src/stm32f1xx_hal_rtc_ex.c ****   hrtc->State = HAL_RTC_STATE_READY;
 933              		.loc 1 552 3 is_stmt 1 discriminator 2 view .LVU268
 934              		.loc 1 552 15 is_stmt 0 discriminator 2 view .LVU269
 935 0020 5074     		strb	r0, [r2, #17]
 553:/home/smartth/STM32Cube/Repository/STM32Cube_FW_F1_V1.8.4//Drivers/STM32F1xx_HAL_Driver/Src/stm32f1xx_hal_rtc_ex.c **** 
 554:/home/smartth/STM32Cube/Repository/STM32Cube_FW_F1_V1.8.4//Drivers/STM32F1xx_HAL_Driver/Src/stm32f1xx_hal_rtc_ex.c ****   /* Process Unlocked */
 555:/home/smartth/STM32Cube/Repository/STM32Cube_FW_F1_V1.8.4//Drivers/STM32F1xx_HAL_Driver/Src/stm32f1xx_hal_rtc_ex.c ****   __HAL_UNLOCK(hrtc);
 936              		.loc 1 555 3 is_stmt 1 discriminator 2 view .LVU270
 937              		.loc 1 555 3 discriminator 2 view .LVU271
ARM GAS  /tmp/ccYBp0oC.s 			page 28


 938 0022 0020     		movs	r0, #0
 939 0024 1074     		strb	r0, [r2, #16]
 940              		.loc 1 555 3 discriminator 2 view .LVU272
 556:/home/smartth/STM32Cube/Repository/STM32Cube_FW_F1_V1.8.4//Drivers/STM32F1xx_HAL_Driver/Src/stm32f1xx_hal_rtc_ex.c **** 
 557:/home/smartth/STM32Cube/Repository/STM32Cube_FW_F1_V1.8.4//Drivers/STM32F1xx_HAL_Driver/Src/stm32f1xx_hal_rtc_ex.c ****   return HAL_OK;
 941              		.loc 1 557 3 discriminator 2 view .LVU273
 558:/home/smartth/STM32Cube/Repository/STM32Cube_FW_F1_V1.8.4//Drivers/STM32F1xx_HAL_Driver/Src/stm32f1xx_hal_rtc_ex.c **** }
 942              		.loc 1 558 1 is_stmt 0 discriminator 2 view .LVU274
 943 0026 10BC     		pop	{r4}
 944              	.LCFI9:
 945              		.cfi_restore 4
 946              		.cfi_def_cfa_offset 0
 947 0028 7047     		bx	lr
 948              	.LVL74:
 949              	.L72:
 534:/home/smartth/STM32Cube/Repository/STM32Cube_FW_F1_V1.8.4//Drivers/STM32F1xx_HAL_Driver/Src/stm32f1xx_hal_rtc_ex.c ****   }
 950              		.loc 1 534 12 view .LVU275
 951 002a 0120     		movs	r0, #1
 952              	.LVL75:
 534:/home/smartth/STM32Cube/Repository/STM32Cube_FW_F1_V1.8.4//Drivers/STM32F1xx_HAL_Driver/Src/stm32f1xx_hal_rtc_ex.c ****   }
 953              		.loc 1 534 12 view .LVU276
 954 002c 7047     		bx	lr
 955              	.LVL76:
 956              	.L73:
 544:/home/smartth/STM32Cube/Repository/STM32Cube_FW_F1_V1.8.4//Drivers/STM32F1xx_HAL_Driver/Src/stm32f1xx_hal_rtc_ex.c **** 
 957              		.loc 1 544 3 view .LVU277
 958 002e 0220     		movs	r0, #2
 959              	.LVL77:
 960              		.loc 1 558 1 view .LVU278
 961 0030 7047     		bx	lr
 962              	.L79:
 963 0032 00BF     		.align	2
 964              	.L78:
 965 0034 006C0040 		.word	1073769472
 966              		.cfi_endproc
 967              	.LFE78:
 969              		.text
 970              	.Letext0:
 971              		.file 2 "/usr/lib/gcc/arm-none-eabi/10.3.1/include/stdint.h"
 972              		.file 3 "/home/smartth/STM32Cube/Repository/STM32Cube_FW_F1_V1.8.4//Drivers/CMSIS/Device/ST/STM32F
 973              		.file 4 "/home/smartth/STM32Cube/Repository/STM32Cube_FW_F1_V1.8.4//Drivers/CMSIS/Device/ST/STM32F
 974              		.file 5 "/home/smartth/STM32Cube/Repository/STM32Cube_FW_F1_V1.8.4//Drivers/STM32F1xx_HAL_Driver/I
 975              		.file 6 "/home/smartth/STM32Cube/Repository/STM32Cube_FW_F1_V1.8.4//Drivers/STM32F1xx_HAL_Driver/I
 976              		.file 7 "/home/smartth/STM32Cube/Repository/STM32Cube_FW_F1_V1.8.4//Drivers/STM32F1xx_HAL_Driver/I
 977              		.file 8 "Inc/stm32f1xx_hal.h"
ARM GAS  /tmp/ccYBp0oC.s 			page 29

