ARM GAS  /tmp/ccll1WiH.s 			page 1


   1              		.cpu cortex-m3
   2              		.eabi_attribute 20, 1
   3              		.eabi_attribute 21, 1
   4              		.eabi_attribute 23, 3
   5              		.eabi_attribute 24, 1
   6              		.eabi_attribute 25, 1
   7              		.eabi_attribute 26, 1
   8              		.eabi_attribute 30, 1
   9              		.eabi_attribute 34, 1
  10              		.eabi_attribute 18, 4
  11              		.file	"stm32f1xx_hal_pcd_ex.c"
  12              		.text
  13              	.Ltext0:
  14              		.cfi_sections	.debug_frame
  15              		.section	.text.HAL_PCDEx_PMAConfig,"ax",%progbits
  16              		.align	1
  17              		.global	HAL_PCDEx_PMAConfig
  18              		.arch armv7-m
  19              		.syntax unified
  20              		.thumb
  21              		.thumb_func
  22              		.fpu softvfp
  24              	HAL_PCDEx_PMAConfig:
  25              	.LVL0:
  26              	.LFB65:
  27              		.file 1 "/home/smartth/STM32Cube/Repository/STM32Cube_FW_F1_V1.8.4//Drivers/STM32F1xx_HAL_Driver/S
   1:/home/smartth/STM32Cube/Repository/STM32Cube_FW_F1_V1.8.4//Drivers/STM32F1xx_HAL_Driver/Src/stm32f1xx_hal_pcd_ex.c **** /**
   2:/home/smartth/STM32Cube/Repository/STM32Cube_FW_F1_V1.8.4//Drivers/STM32F1xx_HAL_Driver/Src/stm32f1xx_hal_pcd_ex.c ****   ******************************************************************************
   3:/home/smartth/STM32Cube/Repository/STM32Cube_FW_F1_V1.8.4//Drivers/STM32F1xx_HAL_Driver/Src/stm32f1xx_hal_pcd_ex.c ****   * @file    stm32f1xx_hal_pcd_ex.c
   4:/home/smartth/STM32Cube/Repository/STM32Cube_FW_F1_V1.8.4//Drivers/STM32F1xx_HAL_Driver/Src/stm32f1xx_hal_pcd_ex.c ****   * @author  MCD Application Team
   5:/home/smartth/STM32Cube/Repository/STM32Cube_FW_F1_V1.8.4//Drivers/STM32F1xx_HAL_Driver/Src/stm32f1xx_hal_pcd_ex.c ****   * @brief   PCD Extended HAL module driver.
   6:/home/smartth/STM32Cube/Repository/STM32Cube_FW_F1_V1.8.4//Drivers/STM32F1xx_HAL_Driver/Src/stm32f1xx_hal_pcd_ex.c ****   *          This file provides firmware functions to manage the following
   7:/home/smartth/STM32Cube/Repository/STM32Cube_FW_F1_V1.8.4//Drivers/STM32F1xx_HAL_Driver/Src/stm32f1xx_hal_pcd_ex.c ****   *          functionalities of the USB Peripheral Controller:
   8:/home/smartth/STM32Cube/Repository/STM32Cube_FW_F1_V1.8.4//Drivers/STM32F1xx_HAL_Driver/Src/stm32f1xx_hal_pcd_ex.c ****   *           + Extended features functions
   9:/home/smartth/STM32Cube/Repository/STM32Cube_FW_F1_V1.8.4//Drivers/STM32F1xx_HAL_Driver/Src/stm32f1xx_hal_pcd_ex.c ****   *
  10:/home/smartth/STM32Cube/Repository/STM32Cube_FW_F1_V1.8.4//Drivers/STM32F1xx_HAL_Driver/Src/stm32f1xx_hal_pcd_ex.c ****   ******************************************************************************
  11:/home/smartth/STM32Cube/Repository/STM32Cube_FW_F1_V1.8.4//Drivers/STM32F1xx_HAL_Driver/Src/stm32f1xx_hal_pcd_ex.c ****   * @attention
  12:/home/smartth/STM32Cube/Repository/STM32Cube_FW_F1_V1.8.4//Drivers/STM32F1xx_HAL_Driver/Src/stm32f1xx_hal_pcd_ex.c ****   *
  13:/home/smartth/STM32Cube/Repository/STM32Cube_FW_F1_V1.8.4//Drivers/STM32F1xx_HAL_Driver/Src/stm32f1xx_hal_pcd_ex.c ****   * <h2><center>&copy; Copyright (c) 2016 STMicroelectronics.
  14:/home/smartth/STM32Cube/Repository/STM32Cube_FW_F1_V1.8.4//Drivers/STM32F1xx_HAL_Driver/Src/stm32f1xx_hal_pcd_ex.c ****   * All rights reserved.</center></h2>
  15:/home/smartth/STM32Cube/Repository/STM32Cube_FW_F1_V1.8.4//Drivers/STM32F1xx_HAL_Driver/Src/stm32f1xx_hal_pcd_ex.c ****   *
  16:/home/smartth/STM32Cube/Repository/STM32Cube_FW_F1_V1.8.4//Drivers/STM32F1xx_HAL_Driver/Src/stm32f1xx_hal_pcd_ex.c ****   * This software component is licensed by ST under BSD 3-Clause license,
  17:/home/smartth/STM32Cube/Repository/STM32Cube_FW_F1_V1.8.4//Drivers/STM32F1xx_HAL_Driver/Src/stm32f1xx_hal_pcd_ex.c ****   * the "License"; You may not use this file except in compliance with the
  18:/home/smartth/STM32Cube/Repository/STM32Cube_FW_F1_V1.8.4//Drivers/STM32F1xx_HAL_Driver/Src/stm32f1xx_hal_pcd_ex.c ****   * License. You may obtain a copy of the License at:
  19:/home/smartth/STM32Cube/Repository/STM32Cube_FW_F1_V1.8.4//Drivers/STM32F1xx_HAL_Driver/Src/stm32f1xx_hal_pcd_ex.c ****   *                        opensource.org/licenses/BSD-3-Clause
  20:/home/smartth/STM32Cube/Repository/STM32Cube_FW_F1_V1.8.4//Drivers/STM32F1xx_HAL_Driver/Src/stm32f1xx_hal_pcd_ex.c ****   *
  21:/home/smartth/STM32Cube/Repository/STM32Cube_FW_F1_V1.8.4//Drivers/STM32F1xx_HAL_Driver/Src/stm32f1xx_hal_pcd_ex.c ****   ******************************************************************************
  22:/home/smartth/STM32Cube/Repository/STM32Cube_FW_F1_V1.8.4//Drivers/STM32F1xx_HAL_Driver/Src/stm32f1xx_hal_pcd_ex.c ****   */
  23:/home/smartth/STM32Cube/Repository/STM32Cube_FW_F1_V1.8.4//Drivers/STM32F1xx_HAL_Driver/Src/stm32f1xx_hal_pcd_ex.c **** 
  24:/home/smartth/STM32Cube/Repository/STM32Cube_FW_F1_V1.8.4//Drivers/STM32F1xx_HAL_Driver/Src/stm32f1xx_hal_pcd_ex.c **** /* Includes ------------------------------------------------------------------*/
  25:/home/smartth/STM32Cube/Repository/STM32Cube_FW_F1_V1.8.4//Drivers/STM32F1xx_HAL_Driver/Src/stm32f1xx_hal_pcd_ex.c **** #include "stm32f1xx_hal.h"
  26:/home/smartth/STM32Cube/Repository/STM32Cube_FW_F1_V1.8.4//Drivers/STM32F1xx_HAL_Driver/Src/stm32f1xx_hal_pcd_ex.c **** 
  27:/home/smartth/STM32Cube/Repository/STM32Cube_FW_F1_V1.8.4//Drivers/STM32F1xx_HAL_Driver/Src/stm32f1xx_hal_pcd_ex.c **** /** @addtogroup STM32F1xx_HAL_Driver
  28:/home/smartth/STM32Cube/Repository/STM32Cube_FW_F1_V1.8.4//Drivers/STM32F1xx_HAL_Driver/Src/stm32f1xx_hal_pcd_ex.c ****   * @{
  29:/home/smartth/STM32Cube/Repository/STM32Cube_FW_F1_V1.8.4//Drivers/STM32F1xx_HAL_Driver/Src/stm32f1xx_hal_pcd_ex.c ****   */
  30:/home/smartth/STM32Cube/Repository/STM32Cube_FW_F1_V1.8.4//Drivers/STM32F1xx_HAL_Driver/Src/stm32f1xx_hal_pcd_ex.c **** 
  31:/home/smartth/STM32Cube/Repository/STM32Cube_FW_F1_V1.8.4//Drivers/STM32F1xx_HAL_Driver/Src/stm32f1xx_hal_pcd_ex.c **** /** @defgroup PCDEx PCDEx
ARM GAS  /tmp/ccll1WiH.s 			page 2


  32:/home/smartth/STM32Cube/Repository/STM32Cube_FW_F1_V1.8.4//Drivers/STM32F1xx_HAL_Driver/Src/stm32f1xx_hal_pcd_ex.c ****   * @brief PCD Extended HAL module driver
  33:/home/smartth/STM32Cube/Repository/STM32Cube_FW_F1_V1.8.4//Drivers/STM32F1xx_HAL_Driver/Src/stm32f1xx_hal_pcd_ex.c ****   * @{
  34:/home/smartth/STM32Cube/Repository/STM32Cube_FW_F1_V1.8.4//Drivers/STM32F1xx_HAL_Driver/Src/stm32f1xx_hal_pcd_ex.c ****   */
  35:/home/smartth/STM32Cube/Repository/STM32Cube_FW_F1_V1.8.4//Drivers/STM32F1xx_HAL_Driver/Src/stm32f1xx_hal_pcd_ex.c **** 
  36:/home/smartth/STM32Cube/Repository/STM32Cube_FW_F1_V1.8.4//Drivers/STM32F1xx_HAL_Driver/Src/stm32f1xx_hal_pcd_ex.c **** #ifdef HAL_PCD_MODULE_ENABLED
  37:/home/smartth/STM32Cube/Repository/STM32Cube_FW_F1_V1.8.4//Drivers/STM32F1xx_HAL_Driver/Src/stm32f1xx_hal_pcd_ex.c **** 
  38:/home/smartth/STM32Cube/Repository/STM32Cube_FW_F1_V1.8.4//Drivers/STM32F1xx_HAL_Driver/Src/stm32f1xx_hal_pcd_ex.c **** #if defined (USB) || defined (USB_OTG_FS)
  39:/home/smartth/STM32Cube/Repository/STM32Cube_FW_F1_V1.8.4//Drivers/STM32F1xx_HAL_Driver/Src/stm32f1xx_hal_pcd_ex.c **** /* Private types -------------------------------------------------------------*/
  40:/home/smartth/STM32Cube/Repository/STM32Cube_FW_F1_V1.8.4//Drivers/STM32F1xx_HAL_Driver/Src/stm32f1xx_hal_pcd_ex.c **** /* Private variables ---------------------------------------------------------*/
  41:/home/smartth/STM32Cube/Repository/STM32Cube_FW_F1_V1.8.4//Drivers/STM32F1xx_HAL_Driver/Src/stm32f1xx_hal_pcd_ex.c **** /* Private constants ---------------------------------------------------------*/
  42:/home/smartth/STM32Cube/Repository/STM32Cube_FW_F1_V1.8.4//Drivers/STM32F1xx_HAL_Driver/Src/stm32f1xx_hal_pcd_ex.c **** /* Private macros ------------------------------------------------------------*/
  43:/home/smartth/STM32Cube/Repository/STM32Cube_FW_F1_V1.8.4//Drivers/STM32F1xx_HAL_Driver/Src/stm32f1xx_hal_pcd_ex.c **** /* Private functions ---------------------------------------------------------*/
  44:/home/smartth/STM32Cube/Repository/STM32Cube_FW_F1_V1.8.4//Drivers/STM32F1xx_HAL_Driver/Src/stm32f1xx_hal_pcd_ex.c **** /* Exported functions --------------------------------------------------------*/
  45:/home/smartth/STM32Cube/Repository/STM32Cube_FW_F1_V1.8.4//Drivers/STM32F1xx_HAL_Driver/Src/stm32f1xx_hal_pcd_ex.c **** 
  46:/home/smartth/STM32Cube/Repository/STM32Cube_FW_F1_V1.8.4//Drivers/STM32F1xx_HAL_Driver/Src/stm32f1xx_hal_pcd_ex.c **** /** @defgroup PCDEx_Exported_Functions PCDEx Exported Functions
  47:/home/smartth/STM32Cube/Repository/STM32Cube_FW_F1_V1.8.4//Drivers/STM32F1xx_HAL_Driver/Src/stm32f1xx_hal_pcd_ex.c ****   * @{
  48:/home/smartth/STM32Cube/Repository/STM32Cube_FW_F1_V1.8.4//Drivers/STM32F1xx_HAL_Driver/Src/stm32f1xx_hal_pcd_ex.c ****   */
  49:/home/smartth/STM32Cube/Repository/STM32Cube_FW_F1_V1.8.4//Drivers/STM32F1xx_HAL_Driver/Src/stm32f1xx_hal_pcd_ex.c **** 
  50:/home/smartth/STM32Cube/Repository/STM32Cube_FW_F1_V1.8.4//Drivers/STM32F1xx_HAL_Driver/Src/stm32f1xx_hal_pcd_ex.c **** /** @defgroup PCDEx_Exported_Functions_Group1 Peripheral Control functions
  51:/home/smartth/STM32Cube/Repository/STM32Cube_FW_F1_V1.8.4//Drivers/STM32F1xx_HAL_Driver/Src/stm32f1xx_hal_pcd_ex.c ****   * @brief    PCDEx control functions
  52:/home/smartth/STM32Cube/Repository/STM32Cube_FW_F1_V1.8.4//Drivers/STM32F1xx_HAL_Driver/Src/stm32f1xx_hal_pcd_ex.c ****   *
  53:/home/smartth/STM32Cube/Repository/STM32Cube_FW_F1_V1.8.4//Drivers/STM32F1xx_HAL_Driver/Src/stm32f1xx_hal_pcd_ex.c **** @verbatim
  54:/home/smartth/STM32Cube/Repository/STM32Cube_FW_F1_V1.8.4//Drivers/STM32F1xx_HAL_Driver/Src/stm32f1xx_hal_pcd_ex.c ****  ===============================================================================
  55:/home/smartth/STM32Cube/Repository/STM32Cube_FW_F1_V1.8.4//Drivers/STM32F1xx_HAL_Driver/Src/stm32f1xx_hal_pcd_ex.c ****                  ##### Extended features functions #####
  56:/home/smartth/STM32Cube/Repository/STM32Cube_FW_F1_V1.8.4//Drivers/STM32F1xx_HAL_Driver/Src/stm32f1xx_hal_pcd_ex.c ****  ===============================================================================
  57:/home/smartth/STM32Cube/Repository/STM32Cube_FW_F1_V1.8.4//Drivers/STM32F1xx_HAL_Driver/Src/stm32f1xx_hal_pcd_ex.c ****     [..]  This section provides functions allowing to:
  58:/home/smartth/STM32Cube/Repository/STM32Cube_FW_F1_V1.8.4//Drivers/STM32F1xx_HAL_Driver/Src/stm32f1xx_hal_pcd_ex.c ****       (+) Update FIFO configuration
  59:/home/smartth/STM32Cube/Repository/STM32Cube_FW_F1_V1.8.4//Drivers/STM32F1xx_HAL_Driver/Src/stm32f1xx_hal_pcd_ex.c **** 
  60:/home/smartth/STM32Cube/Repository/STM32Cube_FW_F1_V1.8.4//Drivers/STM32F1xx_HAL_Driver/Src/stm32f1xx_hal_pcd_ex.c **** @endverbatim
  61:/home/smartth/STM32Cube/Repository/STM32Cube_FW_F1_V1.8.4//Drivers/STM32F1xx_HAL_Driver/Src/stm32f1xx_hal_pcd_ex.c ****   * @{
  62:/home/smartth/STM32Cube/Repository/STM32Cube_FW_F1_V1.8.4//Drivers/STM32F1xx_HAL_Driver/Src/stm32f1xx_hal_pcd_ex.c ****   */
  63:/home/smartth/STM32Cube/Repository/STM32Cube_FW_F1_V1.8.4//Drivers/STM32F1xx_HAL_Driver/Src/stm32f1xx_hal_pcd_ex.c **** #if defined (USB_OTG_FS)
  64:/home/smartth/STM32Cube/Repository/STM32Cube_FW_F1_V1.8.4//Drivers/STM32F1xx_HAL_Driver/Src/stm32f1xx_hal_pcd_ex.c **** /**
  65:/home/smartth/STM32Cube/Repository/STM32Cube_FW_F1_V1.8.4//Drivers/STM32F1xx_HAL_Driver/Src/stm32f1xx_hal_pcd_ex.c ****   * @brief  Set Tx FIFO
  66:/home/smartth/STM32Cube/Repository/STM32Cube_FW_F1_V1.8.4//Drivers/STM32F1xx_HAL_Driver/Src/stm32f1xx_hal_pcd_ex.c ****   * @param  hpcd PCD handle
  67:/home/smartth/STM32Cube/Repository/STM32Cube_FW_F1_V1.8.4//Drivers/STM32F1xx_HAL_Driver/Src/stm32f1xx_hal_pcd_ex.c ****   * @param  fifo The number of Tx fifo
  68:/home/smartth/STM32Cube/Repository/STM32Cube_FW_F1_V1.8.4//Drivers/STM32F1xx_HAL_Driver/Src/stm32f1xx_hal_pcd_ex.c ****   * @param  size Fifo size
  69:/home/smartth/STM32Cube/Repository/STM32Cube_FW_F1_V1.8.4//Drivers/STM32F1xx_HAL_Driver/Src/stm32f1xx_hal_pcd_ex.c ****   * @retval HAL status
  70:/home/smartth/STM32Cube/Repository/STM32Cube_FW_F1_V1.8.4//Drivers/STM32F1xx_HAL_Driver/Src/stm32f1xx_hal_pcd_ex.c ****   */
  71:/home/smartth/STM32Cube/Repository/STM32Cube_FW_F1_V1.8.4//Drivers/STM32F1xx_HAL_Driver/Src/stm32f1xx_hal_pcd_ex.c **** HAL_StatusTypeDef HAL_PCDEx_SetTxFiFo(PCD_HandleTypeDef *hpcd, uint8_t fifo, uint16_t size)
  72:/home/smartth/STM32Cube/Repository/STM32Cube_FW_F1_V1.8.4//Drivers/STM32F1xx_HAL_Driver/Src/stm32f1xx_hal_pcd_ex.c **** {
  73:/home/smartth/STM32Cube/Repository/STM32Cube_FW_F1_V1.8.4//Drivers/STM32F1xx_HAL_Driver/Src/stm32f1xx_hal_pcd_ex.c ****   uint8_t i;
  74:/home/smartth/STM32Cube/Repository/STM32Cube_FW_F1_V1.8.4//Drivers/STM32F1xx_HAL_Driver/Src/stm32f1xx_hal_pcd_ex.c ****   uint32_t Tx_Offset;
  75:/home/smartth/STM32Cube/Repository/STM32Cube_FW_F1_V1.8.4//Drivers/STM32F1xx_HAL_Driver/Src/stm32f1xx_hal_pcd_ex.c **** 
  76:/home/smartth/STM32Cube/Repository/STM32Cube_FW_F1_V1.8.4//Drivers/STM32F1xx_HAL_Driver/Src/stm32f1xx_hal_pcd_ex.c ****   /*  TXn min size = 16 words. (n  : Transmit FIFO index)
  77:/home/smartth/STM32Cube/Repository/STM32Cube_FW_F1_V1.8.4//Drivers/STM32F1xx_HAL_Driver/Src/stm32f1xx_hal_pcd_ex.c ****       When a TxFIFO is not used, the Configuration should be as follows:
  78:/home/smartth/STM32Cube/Repository/STM32Cube_FW_F1_V1.8.4//Drivers/STM32F1xx_HAL_Driver/Src/stm32f1xx_hal_pcd_ex.c ****           case 1 :  n > m    and Txn is not used    (n,m  : Transmit FIFO indexes)
  79:/home/smartth/STM32Cube/Repository/STM32Cube_FW_F1_V1.8.4//Drivers/STM32F1xx_HAL_Driver/Src/stm32f1xx_hal_pcd_ex.c ****          --> Txm can use the space allocated for Txn.
  80:/home/smartth/STM32Cube/Repository/STM32Cube_FW_F1_V1.8.4//Drivers/STM32F1xx_HAL_Driver/Src/stm32f1xx_hal_pcd_ex.c ****          case2  :  n < m    and Txn is not used    (n,m  : Transmit FIFO indexes)
  81:/home/smartth/STM32Cube/Repository/STM32Cube_FW_F1_V1.8.4//Drivers/STM32F1xx_HAL_Driver/Src/stm32f1xx_hal_pcd_ex.c ****          --> Txn should be configured with the minimum space of 16 words
  82:/home/smartth/STM32Cube/Repository/STM32Cube_FW_F1_V1.8.4//Drivers/STM32F1xx_HAL_Driver/Src/stm32f1xx_hal_pcd_ex.c ****      The FIFO is used optimally when used TxFIFOs are allocated in the top
  83:/home/smartth/STM32Cube/Repository/STM32Cube_FW_F1_V1.8.4//Drivers/STM32F1xx_HAL_Driver/Src/stm32f1xx_hal_pcd_ex.c ****          of the FIFO.Ex: use EP1 and EP2 as IN instead of EP1 and EP3 as IN ones.
  84:/home/smartth/STM32Cube/Repository/STM32Cube_FW_F1_V1.8.4//Drivers/STM32F1xx_HAL_Driver/Src/stm32f1xx_hal_pcd_ex.c ****      When DMA is used 3n * FIFO locations should be reserved for internal DMA registers */
  85:/home/smartth/STM32Cube/Repository/STM32Cube_FW_F1_V1.8.4//Drivers/STM32F1xx_HAL_Driver/Src/stm32f1xx_hal_pcd_ex.c **** 
  86:/home/smartth/STM32Cube/Repository/STM32Cube_FW_F1_V1.8.4//Drivers/STM32F1xx_HAL_Driver/Src/stm32f1xx_hal_pcd_ex.c ****   Tx_Offset = hpcd->Instance->GRXFSIZ;
  87:/home/smartth/STM32Cube/Repository/STM32Cube_FW_F1_V1.8.4//Drivers/STM32F1xx_HAL_Driver/Src/stm32f1xx_hal_pcd_ex.c **** 
  88:/home/smartth/STM32Cube/Repository/STM32Cube_FW_F1_V1.8.4//Drivers/STM32F1xx_HAL_Driver/Src/stm32f1xx_hal_pcd_ex.c ****   if (fifo == 0U)
ARM GAS  /tmp/ccll1WiH.s 			page 3


  89:/home/smartth/STM32Cube/Repository/STM32Cube_FW_F1_V1.8.4//Drivers/STM32F1xx_HAL_Driver/Src/stm32f1xx_hal_pcd_ex.c ****   {
  90:/home/smartth/STM32Cube/Repository/STM32Cube_FW_F1_V1.8.4//Drivers/STM32F1xx_HAL_Driver/Src/stm32f1xx_hal_pcd_ex.c ****     hpcd->Instance->DIEPTXF0_HNPTXFSIZ = ((uint32_t)size << 16) | Tx_Offset;
  91:/home/smartth/STM32Cube/Repository/STM32Cube_FW_F1_V1.8.4//Drivers/STM32F1xx_HAL_Driver/Src/stm32f1xx_hal_pcd_ex.c ****   }
  92:/home/smartth/STM32Cube/Repository/STM32Cube_FW_F1_V1.8.4//Drivers/STM32F1xx_HAL_Driver/Src/stm32f1xx_hal_pcd_ex.c ****   else
  93:/home/smartth/STM32Cube/Repository/STM32Cube_FW_F1_V1.8.4//Drivers/STM32F1xx_HAL_Driver/Src/stm32f1xx_hal_pcd_ex.c ****   {
  94:/home/smartth/STM32Cube/Repository/STM32Cube_FW_F1_V1.8.4//Drivers/STM32F1xx_HAL_Driver/Src/stm32f1xx_hal_pcd_ex.c ****     Tx_Offset += (hpcd->Instance->DIEPTXF0_HNPTXFSIZ) >> 16;
  95:/home/smartth/STM32Cube/Repository/STM32Cube_FW_F1_V1.8.4//Drivers/STM32F1xx_HAL_Driver/Src/stm32f1xx_hal_pcd_ex.c ****     for (i = 0U; i < (fifo - 1U); i++)
  96:/home/smartth/STM32Cube/Repository/STM32Cube_FW_F1_V1.8.4//Drivers/STM32F1xx_HAL_Driver/Src/stm32f1xx_hal_pcd_ex.c ****     {
  97:/home/smartth/STM32Cube/Repository/STM32Cube_FW_F1_V1.8.4//Drivers/STM32F1xx_HAL_Driver/Src/stm32f1xx_hal_pcd_ex.c ****       Tx_Offset += (hpcd->Instance->DIEPTXF[i] >> 16);
  98:/home/smartth/STM32Cube/Repository/STM32Cube_FW_F1_V1.8.4//Drivers/STM32F1xx_HAL_Driver/Src/stm32f1xx_hal_pcd_ex.c ****     }
  99:/home/smartth/STM32Cube/Repository/STM32Cube_FW_F1_V1.8.4//Drivers/STM32F1xx_HAL_Driver/Src/stm32f1xx_hal_pcd_ex.c **** 
 100:/home/smartth/STM32Cube/Repository/STM32Cube_FW_F1_V1.8.4//Drivers/STM32F1xx_HAL_Driver/Src/stm32f1xx_hal_pcd_ex.c ****     /* Multiply Tx_Size by 2 to get higher performance */
 101:/home/smartth/STM32Cube/Repository/STM32Cube_FW_F1_V1.8.4//Drivers/STM32F1xx_HAL_Driver/Src/stm32f1xx_hal_pcd_ex.c ****     hpcd->Instance->DIEPTXF[fifo - 1U] = ((uint32_t)size << 16) | Tx_Offset;
 102:/home/smartth/STM32Cube/Repository/STM32Cube_FW_F1_V1.8.4//Drivers/STM32F1xx_HAL_Driver/Src/stm32f1xx_hal_pcd_ex.c ****   }
 103:/home/smartth/STM32Cube/Repository/STM32Cube_FW_F1_V1.8.4//Drivers/STM32F1xx_HAL_Driver/Src/stm32f1xx_hal_pcd_ex.c **** 
 104:/home/smartth/STM32Cube/Repository/STM32Cube_FW_F1_V1.8.4//Drivers/STM32F1xx_HAL_Driver/Src/stm32f1xx_hal_pcd_ex.c ****   return HAL_OK;
 105:/home/smartth/STM32Cube/Repository/STM32Cube_FW_F1_V1.8.4//Drivers/STM32F1xx_HAL_Driver/Src/stm32f1xx_hal_pcd_ex.c **** }
 106:/home/smartth/STM32Cube/Repository/STM32Cube_FW_F1_V1.8.4//Drivers/STM32F1xx_HAL_Driver/Src/stm32f1xx_hal_pcd_ex.c **** 
 107:/home/smartth/STM32Cube/Repository/STM32Cube_FW_F1_V1.8.4//Drivers/STM32F1xx_HAL_Driver/Src/stm32f1xx_hal_pcd_ex.c **** /**
 108:/home/smartth/STM32Cube/Repository/STM32Cube_FW_F1_V1.8.4//Drivers/STM32F1xx_HAL_Driver/Src/stm32f1xx_hal_pcd_ex.c ****   * @brief  Set Rx FIFO
 109:/home/smartth/STM32Cube/Repository/STM32Cube_FW_F1_V1.8.4//Drivers/STM32F1xx_HAL_Driver/Src/stm32f1xx_hal_pcd_ex.c ****   * @param  hpcd PCD handle
 110:/home/smartth/STM32Cube/Repository/STM32Cube_FW_F1_V1.8.4//Drivers/STM32F1xx_HAL_Driver/Src/stm32f1xx_hal_pcd_ex.c ****   * @param  size Size of Rx fifo
 111:/home/smartth/STM32Cube/Repository/STM32Cube_FW_F1_V1.8.4//Drivers/STM32F1xx_HAL_Driver/Src/stm32f1xx_hal_pcd_ex.c ****   * @retval HAL status
 112:/home/smartth/STM32Cube/Repository/STM32Cube_FW_F1_V1.8.4//Drivers/STM32F1xx_HAL_Driver/Src/stm32f1xx_hal_pcd_ex.c ****   */
 113:/home/smartth/STM32Cube/Repository/STM32Cube_FW_F1_V1.8.4//Drivers/STM32F1xx_HAL_Driver/Src/stm32f1xx_hal_pcd_ex.c **** HAL_StatusTypeDef HAL_PCDEx_SetRxFiFo(PCD_HandleTypeDef *hpcd, uint16_t size)
 114:/home/smartth/STM32Cube/Repository/STM32Cube_FW_F1_V1.8.4//Drivers/STM32F1xx_HAL_Driver/Src/stm32f1xx_hal_pcd_ex.c **** {
 115:/home/smartth/STM32Cube/Repository/STM32Cube_FW_F1_V1.8.4//Drivers/STM32F1xx_HAL_Driver/Src/stm32f1xx_hal_pcd_ex.c ****   hpcd->Instance->GRXFSIZ = size;
 116:/home/smartth/STM32Cube/Repository/STM32Cube_FW_F1_V1.8.4//Drivers/STM32F1xx_HAL_Driver/Src/stm32f1xx_hal_pcd_ex.c **** 
 117:/home/smartth/STM32Cube/Repository/STM32Cube_FW_F1_V1.8.4//Drivers/STM32F1xx_HAL_Driver/Src/stm32f1xx_hal_pcd_ex.c ****   return HAL_OK;
 118:/home/smartth/STM32Cube/Repository/STM32Cube_FW_F1_V1.8.4//Drivers/STM32F1xx_HAL_Driver/Src/stm32f1xx_hal_pcd_ex.c **** }
 119:/home/smartth/STM32Cube/Repository/STM32Cube_FW_F1_V1.8.4//Drivers/STM32F1xx_HAL_Driver/Src/stm32f1xx_hal_pcd_ex.c **** #endif /* defined (USB_OTG_FS) */
 120:/home/smartth/STM32Cube/Repository/STM32Cube_FW_F1_V1.8.4//Drivers/STM32F1xx_HAL_Driver/Src/stm32f1xx_hal_pcd_ex.c **** #if defined (USB)
 121:/home/smartth/STM32Cube/Repository/STM32Cube_FW_F1_V1.8.4//Drivers/STM32F1xx_HAL_Driver/Src/stm32f1xx_hal_pcd_ex.c **** /**
 122:/home/smartth/STM32Cube/Repository/STM32Cube_FW_F1_V1.8.4//Drivers/STM32F1xx_HAL_Driver/Src/stm32f1xx_hal_pcd_ex.c ****   * @brief  Configure PMA for EP
 123:/home/smartth/STM32Cube/Repository/STM32Cube_FW_F1_V1.8.4//Drivers/STM32F1xx_HAL_Driver/Src/stm32f1xx_hal_pcd_ex.c ****   * @param  hpcd  Device instance
 124:/home/smartth/STM32Cube/Repository/STM32Cube_FW_F1_V1.8.4//Drivers/STM32F1xx_HAL_Driver/Src/stm32f1xx_hal_pcd_ex.c ****   * @param  ep_addr endpoint address
 125:/home/smartth/STM32Cube/Repository/STM32Cube_FW_F1_V1.8.4//Drivers/STM32F1xx_HAL_Driver/Src/stm32f1xx_hal_pcd_ex.c ****   * @param  ep_kind endpoint Kind
 126:/home/smartth/STM32Cube/Repository/STM32Cube_FW_F1_V1.8.4//Drivers/STM32F1xx_HAL_Driver/Src/stm32f1xx_hal_pcd_ex.c ****   *                  USB_SNG_BUF: Single Buffer used
 127:/home/smartth/STM32Cube/Repository/STM32Cube_FW_F1_V1.8.4//Drivers/STM32F1xx_HAL_Driver/Src/stm32f1xx_hal_pcd_ex.c ****   *                  USB_DBL_BUF: Double Buffer used
 128:/home/smartth/STM32Cube/Repository/STM32Cube_FW_F1_V1.8.4//Drivers/STM32F1xx_HAL_Driver/Src/stm32f1xx_hal_pcd_ex.c ****   * @param  pmaadress: EP address in The PMA: In case of single buffer endpoint
 129:/home/smartth/STM32Cube/Repository/STM32Cube_FW_F1_V1.8.4//Drivers/STM32F1xx_HAL_Driver/Src/stm32f1xx_hal_pcd_ex.c ****   *                   this parameter is 16-bit value providing the address
 130:/home/smartth/STM32Cube/Repository/STM32Cube_FW_F1_V1.8.4//Drivers/STM32F1xx_HAL_Driver/Src/stm32f1xx_hal_pcd_ex.c ****   *                   in PMA allocated to endpoint.
 131:/home/smartth/STM32Cube/Repository/STM32Cube_FW_F1_V1.8.4//Drivers/STM32F1xx_HAL_Driver/Src/stm32f1xx_hal_pcd_ex.c ****   *                   In case of double buffer endpoint this parameter
 132:/home/smartth/STM32Cube/Repository/STM32Cube_FW_F1_V1.8.4//Drivers/STM32F1xx_HAL_Driver/Src/stm32f1xx_hal_pcd_ex.c ****   *                   is a 32-bit value providing the endpoint buffer 0 address
 133:/home/smartth/STM32Cube/Repository/STM32Cube_FW_F1_V1.8.4//Drivers/STM32F1xx_HAL_Driver/Src/stm32f1xx_hal_pcd_ex.c ****   *                   in the LSB part of 32-bit value and endpoint buffer 1 address
 134:/home/smartth/STM32Cube/Repository/STM32Cube_FW_F1_V1.8.4//Drivers/STM32F1xx_HAL_Driver/Src/stm32f1xx_hal_pcd_ex.c ****   *                   in the MSB part of 32-bit value.
 135:/home/smartth/STM32Cube/Repository/STM32Cube_FW_F1_V1.8.4//Drivers/STM32F1xx_HAL_Driver/Src/stm32f1xx_hal_pcd_ex.c ****   * @retval HAL status
 136:/home/smartth/STM32Cube/Repository/STM32Cube_FW_F1_V1.8.4//Drivers/STM32F1xx_HAL_Driver/Src/stm32f1xx_hal_pcd_ex.c ****   */
 137:/home/smartth/STM32Cube/Repository/STM32Cube_FW_F1_V1.8.4//Drivers/STM32F1xx_HAL_Driver/Src/stm32f1xx_hal_pcd_ex.c **** 
 138:/home/smartth/STM32Cube/Repository/STM32Cube_FW_F1_V1.8.4//Drivers/STM32F1xx_HAL_Driver/Src/stm32f1xx_hal_pcd_ex.c **** HAL_StatusTypeDef  HAL_PCDEx_PMAConfig(PCD_HandleTypeDef *hpcd, uint16_t ep_addr,
 139:/home/smartth/STM32Cube/Repository/STM32Cube_FW_F1_V1.8.4//Drivers/STM32F1xx_HAL_Driver/Src/stm32f1xx_hal_pcd_ex.c ****                                        uint16_t ep_kind, uint32_t pmaadress)
 140:/home/smartth/STM32Cube/Repository/STM32Cube_FW_F1_V1.8.4//Drivers/STM32F1xx_HAL_Driver/Src/stm32f1xx_hal_pcd_ex.c **** {
  28              		.loc 1 140 1 view -0
  29              		.cfi_startproc
  30              		@ args = 0, pretend = 0, frame = 0
  31              		@ frame_needed = 0, uses_anonymous_args = 0
  32              		@ link register save eliminated.
ARM GAS  /tmp/ccll1WiH.s 			page 4


 141:/home/smartth/STM32Cube/Repository/STM32Cube_FW_F1_V1.8.4//Drivers/STM32F1xx_HAL_Driver/Src/stm32f1xx_hal_pcd_ex.c ****   PCD_EPTypeDef *ep;
  33              		.loc 1 141 3 view .LVU1
 142:/home/smartth/STM32Cube/Repository/STM32Cube_FW_F1_V1.8.4//Drivers/STM32F1xx_HAL_Driver/Src/stm32f1xx_hal_pcd_ex.c **** 
 143:/home/smartth/STM32Cube/Repository/STM32Cube_FW_F1_V1.8.4//Drivers/STM32F1xx_HAL_Driver/Src/stm32f1xx_hal_pcd_ex.c ****   /* initialize ep structure*/
 144:/home/smartth/STM32Cube/Repository/STM32Cube_FW_F1_V1.8.4//Drivers/STM32F1xx_HAL_Driver/Src/stm32f1xx_hal_pcd_ex.c ****   if ((0x80U & ep_addr) == 0x80U)
  34              		.loc 1 144 3 view .LVU2
  35              		.loc 1 144 6 is_stmt 0 view .LVU3
  36 0000 11F0800F 		tst	r1, #128
  37 0004 0BD0     		beq	.L2
 145:/home/smartth/STM32Cube/Repository/STM32Cube_FW_F1_V1.8.4//Drivers/STM32F1xx_HAL_Driver/Src/stm32f1xx_hal_pcd_ex.c ****   {
 146:/home/smartth/STM32Cube/Repository/STM32Cube_FW_F1_V1.8.4//Drivers/STM32F1xx_HAL_Driver/Src/stm32f1xx_hal_pcd_ex.c ****     ep = &hpcd->IN_ep[ep_addr & EP_ADDR_MSK];
  38              		.loc 1 146 5 is_stmt 1 view .LVU4
  39              		.loc 1 146 31 is_stmt 0 view .LVU5
  40 0006 01F00701 		and	r1, r1, #7
  41              	.LVL1:
  42              		.loc 1 146 8 view .LVU6
  43 000a 0131     		adds	r1, r1, #1
  44 000c 01EB8101 		add	r1, r1, r1, lsl #2
  45 0010 00EBC101 		add	r1, r0, r1, lsl #3
  46              	.LVL2:
  47              	.L3:
 147:/home/smartth/STM32Cube/Repository/STM32Cube_FW_F1_V1.8.4//Drivers/STM32F1xx_HAL_Driver/Src/stm32f1xx_hal_pcd_ex.c ****   }
 148:/home/smartth/STM32Cube/Repository/STM32Cube_FW_F1_V1.8.4//Drivers/STM32F1xx_HAL_Driver/Src/stm32f1xx_hal_pcd_ex.c ****   else
 149:/home/smartth/STM32Cube/Repository/STM32Cube_FW_F1_V1.8.4//Drivers/STM32F1xx_HAL_Driver/Src/stm32f1xx_hal_pcd_ex.c ****   {
 150:/home/smartth/STM32Cube/Repository/STM32Cube_FW_F1_V1.8.4//Drivers/STM32F1xx_HAL_Driver/Src/stm32f1xx_hal_pcd_ex.c ****     ep = &hpcd->OUT_ep[ep_addr];
 151:/home/smartth/STM32Cube/Repository/STM32Cube_FW_F1_V1.8.4//Drivers/STM32F1xx_HAL_Driver/Src/stm32f1xx_hal_pcd_ex.c ****   }
 152:/home/smartth/STM32Cube/Repository/STM32Cube_FW_F1_V1.8.4//Drivers/STM32F1xx_HAL_Driver/Src/stm32f1xx_hal_pcd_ex.c **** 
 153:/home/smartth/STM32Cube/Repository/STM32Cube_FW_F1_V1.8.4//Drivers/STM32F1xx_HAL_Driver/Src/stm32f1xx_hal_pcd_ex.c ****   /* Here we check if the endpoint is single or double Buffer*/
 154:/home/smartth/STM32Cube/Repository/STM32Cube_FW_F1_V1.8.4//Drivers/STM32F1xx_HAL_Driver/Src/stm32f1xx_hal_pcd_ex.c ****   if (ep_kind == PCD_SNG_BUF)
  48              		.loc 1 154 3 is_stmt 1 view .LVU7
  49              		.loc 1 154 6 is_stmt 0 view .LVU8
  50 0014 52B9     		cbnz	r2, .L4
 155:/home/smartth/STM32Cube/Repository/STM32Cube_FW_F1_V1.8.4//Drivers/STM32F1xx_HAL_Driver/Src/stm32f1xx_hal_pcd_ex.c ****   {
 156:/home/smartth/STM32Cube/Repository/STM32Cube_FW_F1_V1.8.4//Drivers/STM32F1xx_HAL_Driver/Src/stm32f1xx_hal_pcd_ex.c ****     /* Single Buffer */
 157:/home/smartth/STM32Cube/Repository/STM32Cube_FW_F1_V1.8.4//Drivers/STM32F1xx_HAL_Driver/Src/stm32f1xx_hal_pcd_ex.c ****     ep->doublebuffer = 0U;
  51              		.loc 1 157 5 is_stmt 1 view .LVU9
  52              		.loc 1 157 22 is_stmt 0 view .LVU10
  53 0016 0A73     		strb	r2, [r1, #12]
 158:/home/smartth/STM32Cube/Repository/STM32Cube_FW_F1_V1.8.4//Drivers/STM32F1xx_HAL_Driver/Src/stm32f1xx_hal_pcd_ex.c ****     /* Configure the PMA */
 159:/home/smartth/STM32Cube/Repository/STM32Cube_FW_F1_V1.8.4//Drivers/STM32F1xx_HAL_Driver/Src/stm32f1xx_hal_pcd_ex.c ****     ep->pmaadress = (uint16_t)pmaadress;
  54              		.loc 1 159 5 is_stmt 1 view .LVU11
  55              		.loc 1 159 19 is_stmt 0 view .LVU12
  56 0018 CB80     		strh	r3, [r1, #6]	@ movhi
  57              	.LVL3:
  58              	.L5:
 160:/home/smartth/STM32Cube/Repository/STM32Cube_FW_F1_V1.8.4//Drivers/STM32F1xx_HAL_Driver/Src/stm32f1xx_hal_pcd_ex.c ****   }
 161:/home/smartth/STM32Cube/Repository/STM32Cube_FW_F1_V1.8.4//Drivers/STM32F1xx_HAL_Driver/Src/stm32f1xx_hal_pcd_ex.c ****   else /* USB_DBL_BUF */
 162:/home/smartth/STM32Cube/Repository/STM32Cube_FW_F1_V1.8.4//Drivers/STM32F1xx_HAL_Driver/Src/stm32f1xx_hal_pcd_ex.c ****   {
 163:/home/smartth/STM32Cube/Repository/STM32Cube_FW_F1_V1.8.4//Drivers/STM32F1xx_HAL_Driver/Src/stm32f1xx_hal_pcd_ex.c ****     /* Double Buffer Endpoint */
 164:/home/smartth/STM32Cube/Repository/STM32Cube_FW_F1_V1.8.4//Drivers/STM32F1xx_HAL_Driver/Src/stm32f1xx_hal_pcd_ex.c ****     ep->doublebuffer = 1U;
 165:/home/smartth/STM32Cube/Repository/STM32Cube_FW_F1_V1.8.4//Drivers/STM32F1xx_HAL_Driver/Src/stm32f1xx_hal_pcd_ex.c ****     /* Configure the PMA */
 166:/home/smartth/STM32Cube/Repository/STM32Cube_FW_F1_V1.8.4//Drivers/STM32F1xx_HAL_Driver/Src/stm32f1xx_hal_pcd_ex.c ****     ep->pmaaddr0 = (uint16_t)(pmaadress & 0xFFFFU);
 167:/home/smartth/STM32Cube/Repository/STM32Cube_FW_F1_V1.8.4//Drivers/STM32F1xx_HAL_Driver/Src/stm32f1xx_hal_pcd_ex.c ****     ep->pmaaddr1 = (uint16_t)((pmaadress & 0xFFFF0000U) >> 16);
 168:/home/smartth/STM32Cube/Repository/STM32Cube_FW_F1_V1.8.4//Drivers/STM32F1xx_HAL_Driver/Src/stm32f1xx_hal_pcd_ex.c ****   }
 169:/home/smartth/STM32Cube/Repository/STM32Cube_FW_F1_V1.8.4//Drivers/STM32F1xx_HAL_Driver/Src/stm32f1xx_hal_pcd_ex.c **** 
 170:/home/smartth/STM32Cube/Repository/STM32Cube_FW_F1_V1.8.4//Drivers/STM32F1xx_HAL_Driver/Src/stm32f1xx_hal_pcd_ex.c ****   return HAL_OK;
  59              		.loc 1 170 3 is_stmt 1 view .LVU13
ARM GAS  /tmp/ccll1WiH.s 			page 5


 171:/home/smartth/STM32Cube/Repository/STM32Cube_FW_F1_V1.8.4//Drivers/STM32F1xx_HAL_Driver/Src/stm32f1xx_hal_pcd_ex.c **** }
  60              		.loc 1 171 1 is_stmt 0 view .LVU14
  61 001a 0020     		movs	r0, #0
  62              	.LVL4:
  63              		.loc 1 171 1 view .LVU15
  64 001c 7047     		bx	lr
  65              	.LVL5:
  66              	.L2:
 150:/home/smartth/STM32Cube/Repository/STM32Cube_FW_F1_V1.8.4//Drivers/STM32F1xx_HAL_Driver/Src/stm32f1xx_hal_pcd_ex.c ****   }
  67              		.loc 1 150 5 is_stmt 1 view .LVU16
 150:/home/smartth/STM32Cube/Repository/STM32Cube_FW_F1_V1.8.4//Drivers/STM32F1xx_HAL_Driver/Src/stm32f1xx_hal_pcd_ex.c ****   }
  68              		.loc 1 150 8 is_stmt 0 view .LVU17
  69 001e 01EB8101 		add	r1, r1, r1, lsl #2
  70              	.LVL6:
 150:/home/smartth/STM32Cube/Repository/STM32Cube_FW_F1_V1.8.4//Drivers/STM32F1xx_HAL_Driver/Src/stm32f1xx_hal_pcd_ex.c ****   }
  71              		.loc 1 150 8 view .LVU18
  72 0022 C900     		lsls	r1, r1, #3
  73 0024 01F5B471 		add	r1, r1, #360
  74 0028 0144     		add	r1, r1, r0
  75              	.LVL7:
 150:/home/smartth/STM32Cube/Repository/STM32Cube_FW_F1_V1.8.4//Drivers/STM32F1xx_HAL_Driver/Src/stm32f1xx_hal_pcd_ex.c ****   }
  76              		.loc 1 150 8 view .LVU19
  77 002a F3E7     		b	.L3
  78              	.L4:
 164:/home/smartth/STM32Cube/Repository/STM32Cube_FW_F1_V1.8.4//Drivers/STM32F1xx_HAL_Driver/Src/stm32f1xx_hal_pcd_ex.c ****     /* Configure the PMA */
  79              		.loc 1 164 5 is_stmt 1 view .LVU20
 164:/home/smartth/STM32Cube/Repository/STM32Cube_FW_F1_V1.8.4//Drivers/STM32F1xx_HAL_Driver/Src/stm32f1xx_hal_pcd_ex.c ****     /* Configure the PMA */
  80              		.loc 1 164 22 is_stmt 0 view .LVU21
  81 002c 0122     		movs	r2, #1
  82              	.LVL8:
 164:/home/smartth/STM32Cube/Repository/STM32Cube_FW_F1_V1.8.4//Drivers/STM32F1xx_HAL_Driver/Src/stm32f1xx_hal_pcd_ex.c ****     /* Configure the PMA */
  83              		.loc 1 164 22 view .LVU22
  84 002e 0A73     		strb	r2, [r1, #12]
 166:/home/smartth/STM32Cube/Repository/STM32Cube_FW_F1_V1.8.4//Drivers/STM32F1xx_HAL_Driver/Src/stm32f1xx_hal_pcd_ex.c ****     ep->pmaaddr1 = (uint16_t)((pmaadress & 0xFFFF0000U) >> 16);
  85              		.loc 1 166 5 is_stmt 1 view .LVU23
 166:/home/smartth/STM32Cube/Repository/STM32Cube_FW_F1_V1.8.4//Drivers/STM32F1xx_HAL_Driver/Src/stm32f1xx_hal_pcd_ex.c ****     ep->pmaaddr1 = (uint16_t)((pmaadress & 0xFFFF0000U) >> 16);
  86              		.loc 1 166 18 is_stmt 0 view .LVU24
  87 0030 0B81     		strh	r3, [r1, #8]	@ movhi
 167:/home/smartth/STM32Cube/Repository/STM32Cube_FW_F1_V1.8.4//Drivers/STM32F1xx_HAL_Driver/Src/stm32f1xx_hal_pcd_ex.c ****   }
  88              		.loc 1 167 5 is_stmt 1 view .LVU25
 167:/home/smartth/STM32Cube/Repository/STM32Cube_FW_F1_V1.8.4//Drivers/STM32F1xx_HAL_Driver/Src/stm32f1xx_hal_pcd_ex.c ****   }
  89              		.loc 1 167 20 is_stmt 0 view .LVU26
  90 0032 1B0C     		lsrs	r3, r3, #16
  91              	.LVL9:
 167:/home/smartth/STM32Cube/Repository/STM32Cube_FW_F1_V1.8.4//Drivers/STM32F1xx_HAL_Driver/Src/stm32f1xx_hal_pcd_ex.c ****   }
  92              		.loc 1 167 18 view .LVU27
  93 0034 4B81     		strh	r3, [r1, #10]	@ movhi
  94 0036 F0E7     		b	.L5
  95              		.cfi_endproc
  96              	.LFE65:
  98              		.section	.text.HAL_PCDEx_SetConnectionState,"ax",%progbits
  99              		.align	1
 100              		.weak	HAL_PCDEx_SetConnectionState
 101              		.syntax unified
 102              		.thumb
 103              		.thumb_func
 104              		.fpu softvfp
ARM GAS  /tmp/ccll1WiH.s 			page 6


 106              	HAL_PCDEx_SetConnectionState:
 107              	.LVL10:
 108              	.LFB66:
 172:/home/smartth/STM32Cube/Repository/STM32Cube_FW_F1_V1.8.4//Drivers/STM32F1xx_HAL_Driver/Src/stm32f1xx_hal_pcd_ex.c **** 
 173:/home/smartth/STM32Cube/Repository/STM32Cube_FW_F1_V1.8.4//Drivers/STM32F1xx_HAL_Driver/Src/stm32f1xx_hal_pcd_ex.c **** /**
 174:/home/smartth/STM32Cube/Repository/STM32Cube_FW_F1_V1.8.4//Drivers/STM32F1xx_HAL_Driver/Src/stm32f1xx_hal_pcd_ex.c ****   * @brief  Software Device Connection,
 175:/home/smartth/STM32Cube/Repository/STM32Cube_FW_F1_V1.8.4//Drivers/STM32F1xx_HAL_Driver/Src/stm32f1xx_hal_pcd_ex.c ****   *         this function is not required by USB OTG FS peripheral, it is used
 176:/home/smartth/STM32Cube/Repository/STM32Cube_FW_F1_V1.8.4//Drivers/STM32F1xx_HAL_Driver/Src/stm32f1xx_hal_pcd_ex.c ****   *         only by USB Device FS peripheral.
 177:/home/smartth/STM32Cube/Repository/STM32Cube_FW_F1_V1.8.4//Drivers/STM32F1xx_HAL_Driver/Src/stm32f1xx_hal_pcd_ex.c ****   * @param  hpcd PCD handle
 178:/home/smartth/STM32Cube/Repository/STM32Cube_FW_F1_V1.8.4//Drivers/STM32F1xx_HAL_Driver/Src/stm32f1xx_hal_pcd_ex.c ****   * @param  state connection state (0 : disconnected / 1: connected)
 179:/home/smartth/STM32Cube/Repository/STM32Cube_FW_F1_V1.8.4//Drivers/STM32F1xx_HAL_Driver/Src/stm32f1xx_hal_pcd_ex.c ****   * @retval None
 180:/home/smartth/STM32Cube/Repository/STM32Cube_FW_F1_V1.8.4//Drivers/STM32F1xx_HAL_Driver/Src/stm32f1xx_hal_pcd_ex.c ****   */
 181:/home/smartth/STM32Cube/Repository/STM32Cube_FW_F1_V1.8.4//Drivers/STM32F1xx_HAL_Driver/Src/stm32f1xx_hal_pcd_ex.c **** __weak void HAL_PCDEx_SetConnectionState(PCD_HandleTypeDef *hpcd, uint8_t state)
 182:/home/smartth/STM32Cube/Repository/STM32Cube_FW_F1_V1.8.4//Drivers/STM32F1xx_HAL_Driver/Src/stm32f1xx_hal_pcd_ex.c **** {
 109              		.loc 1 182 1 is_stmt 1 view -0
 110              		.cfi_startproc
 111              		@ args = 0, pretend = 0, frame = 0
 112              		@ frame_needed = 0, uses_anonymous_args = 0
 113              		@ link register save eliminated.
 183:/home/smartth/STM32Cube/Repository/STM32Cube_FW_F1_V1.8.4//Drivers/STM32F1xx_HAL_Driver/Src/stm32f1xx_hal_pcd_ex.c ****   /* Prevent unused argument(s) compilation warning */
 184:/home/smartth/STM32Cube/Repository/STM32Cube_FW_F1_V1.8.4//Drivers/STM32F1xx_HAL_Driver/Src/stm32f1xx_hal_pcd_ex.c ****   UNUSED(hpcd);
 114              		.loc 1 184 3 view .LVU29
 185:/home/smartth/STM32Cube/Repository/STM32Cube_FW_F1_V1.8.4//Drivers/STM32F1xx_HAL_Driver/Src/stm32f1xx_hal_pcd_ex.c ****   UNUSED(state);
 115              		.loc 1 185 3 view .LVU30
 186:/home/smartth/STM32Cube/Repository/STM32Cube_FW_F1_V1.8.4//Drivers/STM32F1xx_HAL_Driver/Src/stm32f1xx_hal_pcd_ex.c ****   /* NOTE : This function Should not be modified, when the callback is needed,
 187:/home/smartth/STM32Cube/Repository/STM32Cube_FW_F1_V1.8.4//Drivers/STM32F1xx_HAL_Driver/Src/stm32f1xx_hal_pcd_ex.c ****             the HAL_PCDEx_SetConnectionState could be implemented in the user file
 188:/home/smartth/STM32Cube/Repository/STM32Cube_FW_F1_V1.8.4//Drivers/STM32F1xx_HAL_Driver/Src/stm32f1xx_hal_pcd_ex.c ****    */
 189:/home/smartth/STM32Cube/Repository/STM32Cube_FW_F1_V1.8.4//Drivers/STM32F1xx_HAL_Driver/Src/stm32f1xx_hal_pcd_ex.c **** }
 116              		.loc 1 189 1 is_stmt 0 view .LVU31
 117 0000 7047     		bx	lr
 118              		.cfi_endproc
 119              	.LFE66:
 121              		.section	.text.HAL_PCDEx_LPM_Callback,"ax",%progbits
 122              		.align	1
 123              		.weak	HAL_PCDEx_LPM_Callback
 124              		.syntax unified
 125              		.thumb
 126              		.thumb_func
 127              		.fpu softvfp
 129              	HAL_PCDEx_LPM_Callback:
 130              	.LVL11:
 131              	.LFB67:
 190:/home/smartth/STM32Cube/Repository/STM32Cube_FW_F1_V1.8.4//Drivers/STM32F1xx_HAL_Driver/Src/stm32f1xx_hal_pcd_ex.c **** #endif /* defined (USB) */
 191:/home/smartth/STM32Cube/Repository/STM32Cube_FW_F1_V1.8.4//Drivers/STM32F1xx_HAL_Driver/Src/stm32f1xx_hal_pcd_ex.c **** 
 192:/home/smartth/STM32Cube/Repository/STM32Cube_FW_F1_V1.8.4//Drivers/STM32F1xx_HAL_Driver/Src/stm32f1xx_hal_pcd_ex.c **** /**
 193:/home/smartth/STM32Cube/Repository/STM32Cube_FW_F1_V1.8.4//Drivers/STM32F1xx_HAL_Driver/Src/stm32f1xx_hal_pcd_ex.c ****   * @brief  Send LPM message to user layer callback.
 194:/home/smartth/STM32Cube/Repository/STM32Cube_FW_F1_V1.8.4//Drivers/STM32F1xx_HAL_Driver/Src/stm32f1xx_hal_pcd_ex.c ****   * @param  hpcd PCD handle
 195:/home/smartth/STM32Cube/Repository/STM32Cube_FW_F1_V1.8.4//Drivers/STM32F1xx_HAL_Driver/Src/stm32f1xx_hal_pcd_ex.c ****   * @param  msg LPM message
 196:/home/smartth/STM32Cube/Repository/STM32Cube_FW_F1_V1.8.4//Drivers/STM32F1xx_HAL_Driver/Src/stm32f1xx_hal_pcd_ex.c ****   * @retval HAL status
 197:/home/smartth/STM32Cube/Repository/STM32Cube_FW_F1_V1.8.4//Drivers/STM32F1xx_HAL_Driver/Src/stm32f1xx_hal_pcd_ex.c ****   */
 198:/home/smartth/STM32Cube/Repository/STM32Cube_FW_F1_V1.8.4//Drivers/STM32F1xx_HAL_Driver/Src/stm32f1xx_hal_pcd_ex.c **** __weak void HAL_PCDEx_LPM_Callback(PCD_HandleTypeDef *hpcd, PCD_LPM_MsgTypeDef msg)
 199:/home/smartth/STM32Cube/Repository/STM32Cube_FW_F1_V1.8.4//Drivers/STM32F1xx_HAL_Driver/Src/stm32f1xx_hal_pcd_ex.c **** {
 132              		.loc 1 199 1 is_stmt 1 view -0
 133              		.cfi_startproc
 134              		@ args = 0, pretend = 0, frame = 0
 135              		@ frame_needed = 0, uses_anonymous_args = 0
 136              		@ link register save eliminated.
ARM GAS  /tmp/ccll1WiH.s 			page 7


 200:/home/smartth/STM32Cube/Repository/STM32Cube_FW_F1_V1.8.4//Drivers/STM32F1xx_HAL_Driver/Src/stm32f1xx_hal_pcd_ex.c ****   /* Prevent unused argument(s) compilation warning */
 201:/home/smartth/STM32Cube/Repository/STM32Cube_FW_F1_V1.8.4//Drivers/STM32F1xx_HAL_Driver/Src/stm32f1xx_hal_pcd_ex.c ****   UNUSED(hpcd);
 137              		.loc 1 201 3 view .LVU33
 202:/home/smartth/STM32Cube/Repository/STM32Cube_FW_F1_V1.8.4//Drivers/STM32F1xx_HAL_Driver/Src/stm32f1xx_hal_pcd_ex.c ****   UNUSED(msg);
 138              		.loc 1 202 3 view .LVU34
 203:/home/smartth/STM32Cube/Repository/STM32Cube_FW_F1_V1.8.4//Drivers/STM32F1xx_HAL_Driver/Src/stm32f1xx_hal_pcd_ex.c **** 
 204:/home/smartth/STM32Cube/Repository/STM32Cube_FW_F1_V1.8.4//Drivers/STM32F1xx_HAL_Driver/Src/stm32f1xx_hal_pcd_ex.c ****   /* NOTE : This function should not be modified, when the callback is needed,
 205:/home/smartth/STM32Cube/Repository/STM32Cube_FW_F1_V1.8.4//Drivers/STM32F1xx_HAL_Driver/Src/stm32f1xx_hal_pcd_ex.c ****             the HAL_PCDEx_LPM_Callback could be implemented in the user file
 206:/home/smartth/STM32Cube/Repository/STM32Cube_FW_F1_V1.8.4//Drivers/STM32F1xx_HAL_Driver/Src/stm32f1xx_hal_pcd_ex.c ****    */
 207:/home/smartth/STM32Cube/Repository/STM32Cube_FW_F1_V1.8.4//Drivers/STM32F1xx_HAL_Driver/Src/stm32f1xx_hal_pcd_ex.c **** }
 139              		.loc 1 207 1 is_stmt 0 view .LVU35
 140 0000 7047     		bx	lr
 141              		.cfi_endproc
 142              	.LFE67:
 144              		.section	.text.HAL_PCDEx_BCD_Callback,"ax",%progbits
 145              		.align	1
 146              		.weak	HAL_PCDEx_BCD_Callback
 147              		.syntax unified
 148              		.thumb
 149              		.thumb_func
 150              		.fpu softvfp
 152              	HAL_PCDEx_BCD_Callback:
 153              	.LVL12:
 154              	.LFB68:
 208:/home/smartth/STM32Cube/Repository/STM32Cube_FW_F1_V1.8.4//Drivers/STM32F1xx_HAL_Driver/Src/stm32f1xx_hal_pcd_ex.c **** 
 209:/home/smartth/STM32Cube/Repository/STM32Cube_FW_F1_V1.8.4//Drivers/STM32F1xx_HAL_Driver/Src/stm32f1xx_hal_pcd_ex.c **** /**
 210:/home/smartth/STM32Cube/Repository/STM32Cube_FW_F1_V1.8.4//Drivers/STM32F1xx_HAL_Driver/Src/stm32f1xx_hal_pcd_ex.c ****   * @brief  Send BatteryCharging message to user layer callback.
 211:/home/smartth/STM32Cube/Repository/STM32Cube_FW_F1_V1.8.4//Drivers/STM32F1xx_HAL_Driver/Src/stm32f1xx_hal_pcd_ex.c ****   * @param  hpcd PCD handle
 212:/home/smartth/STM32Cube/Repository/STM32Cube_FW_F1_V1.8.4//Drivers/STM32F1xx_HAL_Driver/Src/stm32f1xx_hal_pcd_ex.c ****   * @param  msg LPM message
 213:/home/smartth/STM32Cube/Repository/STM32Cube_FW_F1_V1.8.4//Drivers/STM32F1xx_HAL_Driver/Src/stm32f1xx_hal_pcd_ex.c ****   * @retval HAL status
 214:/home/smartth/STM32Cube/Repository/STM32Cube_FW_F1_V1.8.4//Drivers/STM32F1xx_HAL_Driver/Src/stm32f1xx_hal_pcd_ex.c ****   */
 215:/home/smartth/STM32Cube/Repository/STM32Cube_FW_F1_V1.8.4//Drivers/STM32F1xx_HAL_Driver/Src/stm32f1xx_hal_pcd_ex.c **** __weak void HAL_PCDEx_BCD_Callback(PCD_HandleTypeDef *hpcd, PCD_BCD_MsgTypeDef msg)
 216:/home/smartth/STM32Cube/Repository/STM32Cube_FW_F1_V1.8.4//Drivers/STM32F1xx_HAL_Driver/Src/stm32f1xx_hal_pcd_ex.c **** {
 155              		.loc 1 216 1 is_stmt 1 view -0
 156              		.cfi_startproc
 157              		@ args = 0, pretend = 0, frame = 0
 158              		@ frame_needed = 0, uses_anonymous_args = 0
 159              		@ link register save eliminated.
 217:/home/smartth/STM32Cube/Repository/STM32Cube_FW_F1_V1.8.4//Drivers/STM32F1xx_HAL_Driver/Src/stm32f1xx_hal_pcd_ex.c ****   /* Prevent unused argument(s) compilation warning */
 218:/home/smartth/STM32Cube/Repository/STM32Cube_FW_F1_V1.8.4//Drivers/STM32F1xx_HAL_Driver/Src/stm32f1xx_hal_pcd_ex.c ****   UNUSED(hpcd);
 160              		.loc 1 218 3 view .LVU37
 219:/home/smartth/STM32Cube/Repository/STM32Cube_FW_F1_V1.8.4//Drivers/STM32F1xx_HAL_Driver/Src/stm32f1xx_hal_pcd_ex.c ****   UNUSED(msg);
 161              		.loc 1 219 3 view .LVU38
 220:/home/smartth/STM32Cube/Repository/STM32Cube_FW_F1_V1.8.4//Drivers/STM32F1xx_HAL_Driver/Src/stm32f1xx_hal_pcd_ex.c **** 
 221:/home/smartth/STM32Cube/Repository/STM32Cube_FW_F1_V1.8.4//Drivers/STM32F1xx_HAL_Driver/Src/stm32f1xx_hal_pcd_ex.c ****   /* NOTE : This function should not be modified, when the callback is needed,
 222:/home/smartth/STM32Cube/Repository/STM32Cube_FW_F1_V1.8.4//Drivers/STM32F1xx_HAL_Driver/Src/stm32f1xx_hal_pcd_ex.c ****             the HAL_PCDEx_BCD_Callback could be implemented in the user file
 223:/home/smartth/STM32Cube/Repository/STM32Cube_FW_F1_V1.8.4//Drivers/STM32F1xx_HAL_Driver/Src/stm32f1xx_hal_pcd_ex.c ****    */
 224:/home/smartth/STM32Cube/Repository/STM32Cube_FW_F1_V1.8.4//Drivers/STM32F1xx_HAL_Driver/Src/stm32f1xx_hal_pcd_ex.c **** }
 162              		.loc 1 224 1 is_stmt 0 view .LVU39
 163 0000 7047     		bx	lr
 164              		.cfi_endproc
 165              	.LFE68:
 167              		.text
 168              	.Letext0:
 169              		.file 2 "/usr/lib/gcc/arm-none-eabi/10.3.1/include/stdint.h"
 170              		.file 3 "/home/smartth/STM32Cube/Repository/STM32Cube_FW_F1_V1.8.4//Drivers/CMSIS/Device/ST/STM32F
 171              		.file 4 "/home/smartth/STM32Cube/Repository/STM32Cube_FW_F1_V1.8.4//Drivers/STM32F1xx_HAL_Driver/I
ARM GAS  /tmp/ccll1WiH.s 			page 8


 172              		.file 5 "/home/smartth/STM32Cube/Repository/STM32Cube_FW_F1_V1.8.4//Drivers/STM32F1xx_HAL_Driver/I
 173              		.file 6 "/home/smartth/STM32Cube/Repository/STM32Cube_FW_F1_V1.8.4//Drivers/STM32F1xx_HAL_Driver/I
ARM GAS  /tmp/ccll1WiH.s 			page 9


DEFINED SYMBOLS
                            *ABS*:0000000000000000 stm32f1xx_hal_pcd_ex.c
     /tmp/ccll1WiH.s:16     .text.HAL_PCDEx_PMAConfig:0000000000000000 $t
     /tmp/ccll1WiH.s:24     .text.HAL_PCDEx_PMAConfig:0000000000000000 HAL_PCDEx_PMAConfig
     /tmp/ccll1WiH.s:99     .text.HAL_PCDEx_SetConnectionState:0000000000000000 $t
     /tmp/ccll1WiH.s:106    .text.HAL_PCDEx_SetConnectionState:0000000000000000 HAL_PCDEx_SetConnectionState
     /tmp/ccll1WiH.s:122    .text.HAL_PCDEx_LPM_Callback:0000000000000000 $t
     /tmp/ccll1WiH.s:129    .text.HAL_PCDEx_LPM_Callback:0000000000000000 HAL_PCDEx_LPM_Callback
     /tmp/ccll1WiH.s:145    .text.HAL_PCDEx_BCD_Callback:0000000000000000 $t
     /tmp/ccll1WiH.s:152    .text.HAL_PCDEx_BCD_Callback:0000000000000000 HAL_PCDEx_BCD_Callback

NO UNDEFINED SYMBOLS
