ARM GAS  C:\Users\BLACK_~1\AppData\Local\Temp\ccNcoNQN.s 			page 1


   1              		.cpu cortex-m3
   2              		.arch armv7-m
   3              		.fpu softvfp
   4              		.eabi_attribute 20, 1
   5              		.eabi_attribute 21, 1
   6              		.eabi_attribute 23, 3
   7              		.eabi_attribute 24, 1
   8              		.eabi_attribute 25, 1
   9              		.eabi_attribute 26, 1
  10              		.eabi_attribute 30, 1
  11              		.eabi_attribute 34, 1
  12              		.eabi_attribute 18, 4
  13              		.file	"stm32f1xx_hal_pcd_ex.c"
  14              		.text
  15              	.Ltext0:
  16              		.cfi_sections	.debug_frame
  17              		.section	.text.HAL_PCDEx_PMAConfig,"ax",%progbits
  18              		.align	1
  19              		.global	HAL_PCDEx_PMAConfig
  20              		.syntax unified
  21              		.thumb
  22              		.thumb_func
  24              	HAL_PCDEx_PMAConfig:
  25              	.LVL0:
  26              	.LFB65:
  27              		.file 1 "c:/Users/Black_Life/STM32Cube/Repository/STM32Cube_FW_F1_V1.8.4/Drivers/STM32F1xx_HAL_Dri
   1:c:/Users/Black_Life/STM32Cube/Repository/STM32Cube_FW_F1_V1.8.4/Drivers/STM32F1xx_HAL_Driver/Src\stm32f1xx_hal_pcd_ex.c **** /**
   2:c:/Users/Black_Life/STM32Cube/Repository/STM32Cube_FW_F1_V1.8.4/Drivers/STM32F1xx_HAL_Driver/Src\stm32f1xx_hal_pcd_ex.c ****   ******************************************************************************
   3:c:/Users/Black_Life/STM32Cube/Repository/STM32Cube_FW_F1_V1.8.4/Drivers/STM32F1xx_HAL_Driver/Src\stm32f1xx_hal_pcd_ex.c ****   * @file    stm32f1xx_hal_pcd_ex.c
   4:c:/Users/Black_Life/STM32Cube/Repository/STM32Cube_FW_F1_V1.8.4/Drivers/STM32F1xx_HAL_Driver/Src\stm32f1xx_hal_pcd_ex.c ****   * @author  MCD Application Team
   5:c:/Users/Black_Life/STM32Cube/Repository/STM32Cube_FW_F1_V1.8.4/Drivers/STM32F1xx_HAL_Driver/Src\stm32f1xx_hal_pcd_ex.c ****   * @brief   PCD Extended HAL module driver.
   6:c:/Users/Black_Life/STM32Cube/Repository/STM32Cube_FW_F1_V1.8.4/Drivers/STM32F1xx_HAL_Driver/Src\stm32f1xx_hal_pcd_ex.c ****   *          This file provides firmware functions to manage the following
   7:c:/Users/Black_Life/STM32Cube/Repository/STM32Cube_FW_F1_V1.8.4/Drivers/STM32F1xx_HAL_Driver/Src\stm32f1xx_hal_pcd_ex.c ****   *          functionalities of the USB Peripheral Controller:
   8:c:/Users/Black_Life/STM32Cube/Repository/STM32Cube_FW_F1_V1.8.4/Drivers/STM32F1xx_HAL_Driver/Src\stm32f1xx_hal_pcd_ex.c ****   *           + Extended features functions
   9:c:/Users/Black_Life/STM32Cube/Repository/STM32Cube_FW_F1_V1.8.4/Drivers/STM32F1xx_HAL_Driver/Src\stm32f1xx_hal_pcd_ex.c ****   *
  10:c:/Users/Black_Life/STM32Cube/Repository/STM32Cube_FW_F1_V1.8.4/Drivers/STM32F1xx_HAL_Driver/Src\stm32f1xx_hal_pcd_ex.c ****   ******************************************************************************
  11:c:/Users/Black_Life/STM32Cube/Repository/STM32Cube_FW_F1_V1.8.4/Drivers/STM32F1xx_HAL_Driver/Src\stm32f1xx_hal_pcd_ex.c ****   * @attention
  12:c:/Users/Black_Life/STM32Cube/Repository/STM32Cube_FW_F1_V1.8.4/Drivers/STM32F1xx_HAL_Driver/Src\stm32f1xx_hal_pcd_ex.c ****   *
  13:c:/Users/Black_Life/STM32Cube/Repository/STM32Cube_FW_F1_V1.8.4/Drivers/STM32F1xx_HAL_Driver/Src\stm32f1xx_hal_pcd_ex.c ****   * <h2><center>&copy; Copyright (c) 2016 STMicroelectronics.
  14:c:/Users/Black_Life/STM32Cube/Repository/STM32Cube_FW_F1_V1.8.4/Drivers/STM32F1xx_HAL_Driver/Src\stm32f1xx_hal_pcd_ex.c ****   * All rights reserved.</center></h2>
  15:c:/Users/Black_Life/STM32Cube/Repository/STM32Cube_FW_F1_V1.8.4/Drivers/STM32F1xx_HAL_Driver/Src\stm32f1xx_hal_pcd_ex.c ****   *
  16:c:/Users/Black_Life/STM32Cube/Repository/STM32Cube_FW_F1_V1.8.4/Drivers/STM32F1xx_HAL_Driver/Src\stm32f1xx_hal_pcd_ex.c ****   * This software component is licensed by ST under BSD 3-Clause license,
  17:c:/Users/Black_Life/STM32Cube/Repository/STM32Cube_FW_F1_V1.8.4/Drivers/STM32F1xx_HAL_Driver/Src\stm32f1xx_hal_pcd_ex.c ****   * the "License"; You may not use this file except in compliance with the
  18:c:/Users/Black_Life/STM32Cube/Repository/STM32Cube_FW_F1_V1.8.4/Drivers/STM32F1xx_HAL_Driver/Src\stm32f1xx_hal_pcd_ex.c ****   * License. You may obtain a copy of the License at:
  19:c:/Users/Black_Life/STM32Cube/Repository/STM32Cube_FW_F1_V1.8.4/Drivers/STM32F1xx_HAL_Driver/Src\stm32f1xx_hal_pcd_ex.c ****   *                        opensource.org/licenses/BSD-3-Clause
  20:c:/Users/Black_Life/STM32Cube/Repository/STM32Cube_FW_F1_V1.8.4/Drivers/STM32F1xx_HAL_Driver/Src\stm32f1xx_hal_pcd_ex.c ****   *
  21:c:/Users/Black_Life/STM32Cube/Repository/STM32Cube_FW_F1_V1.8.4/Drivers/STM32F1xx_HAL_Driver/Src\stm32f1xx_hal_pcd_ex.c ****   ******************************************************************************
  22:c:/Users/Black_Life/STM32Cube/Repository/STM32Cube_FW_F1_V1.8.4/Drivers/STM32F1xx_HAL_Driver/Src\stm32f1xx_hal_pcd_ex.c ****   */
  23:c:/Users/Black_Life/STM32Cube/Repository/STM32Cube_FW_F1_V1.8.4/Drivers/STM32F1xx_HAL_Driver/Src\stm32f1xx_hal_pcd_ex.c **** 
  24:c:/Users/Black_Life/STM32Cube/Repository/STM32Cube_FW_F1_V1.8.4/Drivers/STM32F1xx_HAL_Driver/Src\stm32f1xx_hal_pcd_ex.c **** /* Includes ------------------------------------------------------------------*/
  25:c:/Users/Black_Life/STM32Cube/Repository/STM32Cube_FW_F1_V1.8.4/Drivers/STM32F1xx_HAL_Driver/Src\stm32f1xx_hal_pcd_ex.c **** #include "stm32f1xx_hal.h"
  26:c:/Users/Black_Life/STM32Cube/Repository/STM32Cube_FW_F1_V1.8.4/Drivers/STM32F1xx_HAL_Driver/Src\stm32f1xx_hal_pcd_ex.c **** 
  27:c:/Users/Black_Life/STM32Cube/Repository/STM32Cube_FW_F1_V1.8.4/Drivers/STM32F1xx_HAL_Driver/Src\stm32f1xx_hal_pcd_ex.c **** /** @addtogroup STM32F1xx_HAL_Driver
  28:c:/Users/Black_Life/STM32Cube/Repository/STM32Cube_FW_F1_V1.8.4/Drivers/STM32F1xx_HAL_Driver/Src\stm32f1xx_hal_pcd_ex.c ****   * @{
  29:c:/Users/Black_Life/STM32Cube/Repository/STM32Cube_FW_F1_V1.8.4/Drivers/STM32F1xx_HAL_Driver/Src\stm32f1xx_hal_pcd_ex.c ****   */
  30:c:/Users/Black_Life/STM32Cube/Repository/STM32Cube_FW_F1_V1.8.4/Drivers/STM32F1xx_HAL_Driver/Src\stm32f1xx_hal_pcd_ex.c **** 
  31:c:/Users/Black_Life/STM32Cube/Repository/STM32Cube_FW_F1_V1.8.4/Drivers/STM32F1xx_HAL_Driver/Src\stm32f1xx_hal_pcd_ex.c **** /** @defgroup PCDEx PCDEx
ARM GAS  C:\Users\BLACK_~1\AppData\Local\Temp\ccNcoNQN.s 			page 2


  32:c:/Users/Black_Life/STM32Cube/Repository/STM32Cube_FW_F1_V1.8.4/Drivers/STM32F1xx_HAL_Driver/Src\stm32f1xx_hal_pcd_ex.c ****   * @brief PCD Extended HAL module driver
  33:c:/Users/Black_Life/STM32Cube/Repository/STM32Cube_FW_F1_V1.8.4/Drivers/STM32F1xx_HAL_Driver/Src\stm32f1xx_hal_pcd_ex.c ****   * @{
  34:c:/Users/Black_Life/STM32Cube/Repository/STM32Cube_FW_F1_V1.8.4/Drivers/STM32F1xx_HAL_Driver/Src\stm32f1xx_hal_pcd_ex.c ****   */
  35:c:/Users/Black_Life/STM32Cube/Repository/STM32Cube_FW_F1_V1.8.4/Drivers/STM32F1xx_HAL_Driver/Src\stm32f1xx_hal_pcd_ex.c **** 
  36:c:/Users/Black_Life/STM32Cube/Repository/STM32Cube_FW_F1_V1.8.4/Drivers/STM32F1xx_HAL_Driver/Src\stm32f1xx_hal_pcd_ex.c **** #ifdef HAL_PCD_MODULE_ENABLED
  37:c:/Users/Black_Life/STM32Cube/Repository/STM32Cube_FW_F1_V1.8.4/Drivers/STM32F1xx_HAL_Driver/Src\stm32f1xx_hal_pcd_ex.c **** 
  38:c:/Users/Black_Life/STM32Cube/Repository/STM32Cube_FW_F1_V1.8.4/Drivers/STM32F1xx_HAL_Driver/Src\stm32f1xx_hal_pcd_ex.c **** #if defined (USB) || defined (USB_OTG_FS)
  39:c:/Users/Black_Life/STM32Cube/Repository/STM32Cube_FW_F1_V1.8.4/Drivers/STM32F1xx_HAL_Driver/Src\stm32f1xx_hal_pcd_ex.c **** /* Private types -------------------------------------------------------------*/
  40:c:/Users/Black_Life/STM32Cube/Repository/STM32Cube_FW_F1_V1.8.4/Drivers/STM32F1xx_HAL_Driver/Src\stm32f1xx_hal_pcd_ex.c **** /* Private variables ---------------------------------------------------------*/
  41:c:/Users/Black_Life/STM32Cube/Repository/STM32Cube_FW_F1_V1.8.4/Drivers/STM32F1xx_HAL_Driver/Src\stm32f1xx_hal_pcd_ex.c **** /* Private constants ---------------------------------------------------------*/
  42:c:/Users/Black_Life/STM32Cube/Repository/STM32Cube_FW_F1_V1.8.4/Drivers/STM32F1xx_HAL_Driver/Src\stm32f1xx_hal_pcd_ex.c **** /* Private macros ------------------------------------------------------------*/
  43:c:/Users/Black_Life/STM32Cube/Repository/STM32Cube_FW_F1_V1.8.4/Drivers/STM32F1xx_HAL_Driver/Src\stm32f1xx_hal_pcd_ex.c **** /* Private functions ---------------------------------------------------------*/
  44:c:/Users/Black_Life/STM32Cube/Repository/STM32Cube_FW_F1_V1.8.4/Drivers/STM32F1xx_HAL_Driver/Src\stm32f1xx_hal_pcd_ex.c **** /* Exported functions --------------------------------------------------------*/
  45:c:/Users/Black_Life/STM32Cube/Repository/STM32Cube_FW_F1_V1.8.4/Drivers/STM32F1xx_HAL_Driver/Src\stm32f1xx_hal_pcd_ex.c **** 
  46:c:/Users/Black_Life/STM32Cube/Repository/STM32Cube_FW_F1_V1.8.4/Drivers/STM32F1xx_HAL_Driver/Src\stm32f1xx_hal_pcd_ex.c **** /** @defgroup PCDEx_Exported_Functions PCDEx Exported Functions
  47:c:/Users/Black_Life/STM32Cube/Repository/STM32Cube_FW_F1_V1.8.4/Drivers/STM32F1xx_HAL_Driver/Src\stm32f1xx_hal_pcd_ex.c ****   * @{
  48:c:/Users/Black_Life/STM32Cube/Repository/STM32Cube_FW_F1_V1.8.4/Drivers/STM32F1xx_HAL_Driver/Src\stm32f1xx_hal_pcd_ex.c ****   */
  49:c:/Users/Black_Life/STM32Cube/Repository/STM32Cube_FW_F1_V1.8.4/Drivers/STM32F1xx_HAL_Driver/Src\stm32f1xx_hal_pcd_ex.c **** 
  50:c:/Users/Black_Life/STM32Cube/Repository/STM32Cube_FW_F1_V1.8.4/Drivers/STM32F1xx_HAL_Driver/Src\stm32f1xx_hal_pcd_ex.c **** /** @defgroup PCDEx_Exported_Functions_Group1 Peripheral Control functions
  51:c:/Users/Black_Life/STM32Cube/Repository/STM32Cube_FW_F1_V1.8.4/Drivers/STM32F1xx_HAL_Driver/Src\stm32f1xx_hal_pcd_ex.c ****   * @brief    PCDEx control functions
  52:c:/Users/Black_Life/STM32Cube/Repository/STM32Cube_FW_F1_V1.8.4/Drivers/STM32F1xx_HAL_Driver/Src\stm32f1xx_hal_pcd_ex.c ****   *
  53:c:/Users/Black_Life/STM32Cube/Repository/STM32Cube_FW_F1_V1.8.4/Drivers/STM32F1xx_HAL_Driver/Src\stm32f1xx_hal_pcd_ex.c **** @verbatim
  54:c:/Users/Black_Life/STM32Cube/Repository/STM32Cube_FW_F1_V1.8.4/Drivers/STM32F1xx_HAL_Driver/Src\stm32f1xx_hal_pcd_ex.c ****  ===============================================================================
  55:c:/Users/Black_Life/STM32Cube/Repository/STM32Cube_FW_F1_V1.8.4/Drivers/STM32F1xx_HAL_Driver/Src\stm32f1xx_hal_pcd_ex.c ****                  ##### Extended features functions #####
  56:c:/Users/Black_Life/STM32Cube/Repository/STM32Cube_FW_F1_V1.8.4/Drivers/STM32F1xx_HAL_Driver/Src\stm32f1xx_hal_pcd_ex.c ****  ===============================================================================
  57:c:/Users/Black_Life/STM32Cube/Repository/STM32Cube_FW_F1_V1.8.4/Drivers/STM32F1xx_HAL_Driver/Src\stm32f1xx_hal_pcd_ex.c ****     [..]  This section provides functions allowing to:
  58:c:/Users/Black_Life/STM32Cube/Repository/STM32Cube_FW_F1_V1.8.4/Drivers/STM32F1xx_HAL_Driver/Src\stm32f1xx_hal_pcd_ex.c ****       (+) Update FIFO configuration
  59:c:/Users/Black_Life/STM32Cube/Repository/STM32Cube_FW_F1_V1.8.4/Drivers/STM32F1xx_HAL_Driver/Src\stm32f1xx_hal_pcd_ex.c **** 
  60:c:/Users/Black_Life/STM32Cube/Repository/STM32Cube_FW_F1_V1.8.4/Drivers/STM32F1xx_HAL_Driver/Src\stm32f1xx_hal_pcd_ex.c **** @endverbatim
  61:c:/Users/Black_Life/STM32Cube/Repository/STM32Cube_FW_F1_V1.8.4/Drivers/STM32F1xx_HAL_Driver/Src\stm32f1xx_hal_pcd_ex.c ****   * @{
  62:c:/Users/Black_Life/STM32Cube/Repository/STM32Cube_FW_F1_V1.8.4/Drivers/STM32F1xx_HAL_Driver/Src\stm32f1xx_hal_pcd_ex.c ****   */
  63:c:/Users/Black_Life/STM32Cube/Repository/STM32Cube_FW_F1_V1.8.4/Drivers/STM32F1xx_HAL_Driver/Src\stm32f1xx_hal_pcd_ex.c **** #if defined (USB_OTG_FS)
  64:c:/Users/Black_Life/STM32Cube/Repository/STM32Cube_FW_F1_V1.8.4/Drivers/STM32F1xx_HAL_Driver/Src\stm32f1xx_hal_pcd_ex.c **** /**
  65:c:/Users/Black_Life/STM32Cube/Repository/STM32Cube_FW_F1_V1.8.4/Drivers/STM32F1xx_HAL_Driver/Src\stm32f1xx_hal_pcd_ex.c ****   * @brief  Set Tx FIFO
  66:c:/Users/Black_Life/STM32Cube/Repository/STM32Cube_FW_F1_V1.8.4/Drivers/STM32F1xx_HAL_Driver/Src\stm32f1xx_hal_pcd_ex.c ****   * @param  hpcd PCD handle
  67:c:/Users/Black_Life/STM32Cube/Repository/STM32Cube_FW_F1_V1.8.4/Drivers/STM32F1xx_HAL_Driver/Src\stm32f1xx_hal_pcd_ex.c ****   * @param  fifo The number of Tx fifo
  68:c:/Users/Black_Life/STM32Cube/Repository/STM32Cube_FW_F1_V1.8.4/Drivers/STM32F1xx_HAL_Driver/Src\stm32f1xx_hal_pcd_ex.c ****   * @param  size Fifo size
  69:c:/Users/Black_Life/STM32Cube/Repository/STM32Cube_FW_F1_V1.8.4/Drivers/STM32F1xx_HAL_Driver/Src\stm32f1xx_hal_pcd_ex.c ****   * @retval HAL status
  70:c:/Users/Black_Life/STM32Cube/Repository/STM32Cube_FW_F1_V1.8.4/Drivers/STM32F1xx_HAL_Driver/Src\stm32f1xx_hal_pcd_ex.c ****   */
  71:c:/Users/Black_Life/STM32Cube/Repository/STM32Cube_FW_F1_V1.8.4/Drivers/STM32F1xx_HAL_Driver/Src\stm32f1xx_hal_pcd_ex.c **** HAL_StatusTypeDef HAL_PCDEx_SetTxFiFo(PCD_HandleTypeDef *hpcd, uint8_t fifo, uint16_t size)
  72:c:/Users/Black_Life/STM32Cube/Repository/STM32Cube_FW_F1_V1.8.4/Drivers/STM32F1xx_HAL_Driver/Src\stm32f1xx_hal_pcd_ex.c **** {
  73:c:/Users/Black_Life/STM32Cube/Repository/STM32Cube_FW_F1_V1.8.4/Drivers/STM32F1xx_HAL_Driver/Src\stm32f1xx_hal_pcd_ex.c ****   uint8_t i;
  74:c:/Users/Black_Life/STM32Cube/Repository/STM32Cube_FW_F1_V1.8.4/Drivers/STM32F1xx_HAL_Driver/Src\stm32f1xx_hal_pcd_ex.c ****   uint32_t Tx_Offset;
  75:c:/Users/Black_Life/STM32Cube/Repository/STM32Cube_FW_F1_V1.8.4/Drivers/STM32F1xx_HAL_Driver/Src\stm32f1xx_hal_pcd_ex.c **** 
  76:c:/Users/Black_Life/STM32Cube/Repository/STM32Cube_FW_F1_V1.8.4/Drivers/STM32F1xx_HAL_Driver/Src\stm32f1xx_hal_pcd_ex.c ****   /*  TXn min size = 16 words. (n  : Transmit FIFO index)
  77:c:/Users/Black_Life/STM32Cube/Repository/STM32Cube_FW_F1_V1.8.4/Drivers/STM32F1xx_HAL_Driver/Src\stm32f1xx_hal_pcd_ex.c ****       When a TxFIFO is not used, the Configuration should be as follows:
  78:c:/Users/Black_Life/STM32Cube/Repository/STM32Cube_FW_F1_V1.8.4/Drivers/STM32F1xx_HAL_Driver/Src\stm32f1xx_hal_pcd_ex.c ****           case 1 :  n > m    and Txn is not used    (n,m  : Transmit FIFO indexes)
  79:c:/Users/Black_Life/STM32Cube/Repository/STM32Cube_FW_F1_V1.8.4/Drivers/STM32F1xx_HAL_Driver/Src\stm32f1xx_hal_pcd_ex.c ****          --> Txm can use the space allocated for Txn.
  80:c:/Users/Black_Life/STM32Cube/Repository/STM32Cube_FW_F1_V1.8.4/Drivers/STM32F1xx_HAL_Driver/Src\stm32f1xx_hal_pcd_ex.c ****          case2  :  n < m    and Txn is not used    (n,m  : Transmit FIFO indexes)
  81:c:/Users/Black_Life/STM32Cube/Repository/STM32Cube_FW_F1_V1.8.4/Drivers/STM32F1xx_HAL_Driver/Src\stm32f1xx_hal_pcd_ex.c ****          --> Txn should be configured with the minimum space of 16 words
  82:c:/Users/Black_Life/STM32Cube/Repository/STM32Cube_FW_F1_V1.8.4/Drivers/STM32F1xx_HAL_Driver/Src\stm32f1xx_hal_pcd_ex.c ****      The FIFO is used optimally when used TxFIFOs are allocated in the top
  83:c:/Users/Black_Life/STM32Cube/Repository/STM32Cube_FW_F1_V1.8.4/Drivers/STM32F1xx_HAL_Driver/Src\stm32f1xx_hal_pcd_ex.c ****          of the FIFO.Ex: use EP1 and EP2 as IN instead of EP1 and EP3 as IN ones.
  84:c:/Users/Black_Life/STM32Cube/Repository/STM32Cube_FW_F1_V1.8.4/Drivers/STM32F1xx_HAL_Driver/Src\stm32f1xx_hal_pcd_ex.c ****      When DMA is used 3n * FIFO locations should be reserved for internal DMA registers */
  85:c:/Users/Black_Life/STM32Cube/Repository/STM32Cube_FW_F1_V1.8.4/Drivers/STM32F1xx_HAL_Driver/Src\stm32f1xx_hal_pcd_ex.c **** 
  86:c:/Users/Black_Life/STM32Cube/Repository/STM32Cube_FW_F1_V1.8.4/Drivers/STM32F1xx_HAL_Driver/Src\stm32f1xx_hal_pcd_ex.c ****   Tx_Offset = hpcd->Instance->GRXFSIZ;
  87:c:/Users/Black_Life/STM32Cube/Repository/STM32Cube_FW_F1_V1.8.4/Drivers/STM32F1xx_HAL_Driver/Src\stm32f1xx_hal_pcd_ex.c **** 
  88:c:/Users/Black_Life/STM32Cube/Repository/STM32Cube_FW_F1_V1.8.4/Drivers/STM32F1xx_HAL_Driver/Src\stm32f1xx_hal_pcd_ex.c ****   if (fifo == 0U)
ARM GAS  C:\Users\BLACK_~1\AppData\Local\Temp\ccNcoNQN.s 			page 3


  89:c:/Users/Black_Life/STM32Cube/Repository/STM32Cube_FW_F1_V1.8.4/Drivers/STM32F1xx_HAL_Driver/Src\stm32f1xx_hal_pcd_ex.c ****   {
  90:c:/Users/Black_Life/STM32Cube/Repository/STM32Cube_FW_F1_V1.8.4/Drivers/STM32F1xx_HAL_Driver/Src\stm32f1xx_hal_pcd_ex.c ****     hpcd->Instance->DIEPTXF0_HNPTXFSIZ = ((uint32_t)size << 16) | Tx_Offset;
  91:c:/Users/Black_Life/STM32Cube/Repository/STM32Cube_FW_F1_V1.8.4/Drivers/STM32F1xx_HAL_Driver/Src\stm32f1xx_hal_pcd_ex.c ****   }
  92:c:/Users/Black_Life/STM32Cube/Repository/STM32Cube_FW_F1_V1.8.4/Drivers/STM32F1xx_HAL_Driver/Src\stm32f1xx_hal_pcd_ex.c ****   else
  93:c:/Users/Black_Life/STM32Cube/Repository/STM32Cube_FW_F1_V1.8.4/Drivers/STM32F1xx_HAL_Driver/Src\stm32f1xx_hal_pcd_ex.c ****   {
  94:c:/Users/Black_Life/STM32Cube/Repository/STM32Cube_FW_F1_V1.8.4/Drivers/STM32F1xx_HAL_Driver/Src\stm32f1xx_hal_pcd_ex.c ****     Tx_Offset += (hpcd->Instance->DIEPTXF0_HNPTXFSIZ) >> 16;
  95:c:/Users/Black_Life/STM32Cube/Repository/STM32Cube_FW_F1_V1.8.4/Drivers/STM32F1xx_HAL_Driver/Src\stm32f1xx_hal_pcd_ex.c ****     for (i = 0U; i < (fifo - 1U); i++)
  96:c:/Users/Black_Life/STM32Cube/Repository/STM32Cube_FW_F1_V1.8.4/Drivers/STM32F1xx_HAL_Driver/Src\stm32f1xx_hal_pcd_ex.c ****     {
  97:c:/Users/Black_Life/STM32Cube/Repository/STM32Cube_FW_F1_V1.8.4/Drivers/STM32F1xx_HAL_Driver/Src\stm32f1xx_hal_pcd_ex.c ****       Tx_Offset += (hpcd->Instance->DIEPTXF[i] >> 16);
  98:c:/Users/Black_Life/STM32Cube/Repository/STM32Cube_FW_F1_V1.8.4/Drivers/STM32F1xx_HAL_Driver/Src\stm32f1xx_hal_pcd_ex.c ****     }
  99:c:/Users/Black_Life/STM32Cube/Repository/STM32Cube_FW_F1_V1.8.4/Drivers/STM32F1xx_HAL_Driver/Src\stm32f1xx_hal_pcd_ex.c **** 
 100:c:/Users/Black_Life/STM32Cube/Repository/STM32Cube_FW_F1_V1.8.4/Drivers/STM32F1xx_HAL_Driver/Src\stm32f1xx_hal_pcd_ex.c ****     /* Multiply Tx_Size by 2 to get higher performance */
 101:c:/Users/Black_Life/STM32Cube/Repository/STM32Cube_FW_F1_V1.8.4/Drivers/STM32F1xx_HAL_Driver/Src\stm32f1xx_hal_pcd_ex.c ****     hpcd->Instance->DIEPTXF[fifo - 1U] = ((uint32_t)size << 16) | Tx_Offset;
 102:c:/Users/Black_Life/STM32Cube/Repository/STM32Cube_FW_F1_V1.8.4/Drivers/STM32F1xx_HAL_Driver/Src\stm32f1xx_hal_pcd_ex.c ****   }
 103:c:/Users/Black_Life/STM32Cube/Repository/STM32Cube_FW_F1_V1.8.4/Drivers/STM32F1xx_HAL_Driver/Src\stm32f1xx_hal_pcd_ex.c **** 
 104:c:/Users/Black_Life/STM32Cube/Repository/STM32Cube_FW_F1_V1.8.4/Drivers/STM32F1xx_HAL_Driver/Src\stm32f1xx_hal_pcd_ex.c ****   return HAL_OK;
 105:c:/Users/Black_Life/STM32Cube/Repository/STM32Cube_FW_F1_V1.8.4/Drivers/STM32F1xx_HAL_Driver/Src\stm32f1xx_hal_pcd_ex.c **** }
 106:c:/Users/Black_Life/STM32Cube/Repository/STM32Cube_FW_F1_V1.8.4/Drivers/STM32F1xx_HAL_Driver/Src\stm32f1xx_hal_pcd_ex.c **** 
 107:c:/Users/Black_Life/STM32Cube/Repository/STM32Cube_FW_F1_V1.8.4/Drivers/STM32F1xx_HAL_Driver/Src\stm32f1xx_hal_pcd_ex.c **** /**
 108:c:/Users/Black_Life/STM32Cube/Repository/STM32Cube_FW_F1_V1.8.4/Drivers/STM32F1xx_HAL_Driver/Src\stm32f1xx_hal_pcd_ex.c ****   * @brief  Set Rx FIFO
 109:c:/Users/Black_Life/STM32Cube/Repository/STM32Cube_FW_F1_V1.8.4/Drivers/STM32F1xx_HAL_Driver/Src\stm32f1xx_hal_pcd_ex.c ****   * @param  hpcd PCD handle
 110:c:/Users/Black_Life/STM32Cube/Repository/STM32Cube_FW_F1_V1.8.4/Drivers/STM32F1xx_HAL_Driver/Src\stm32f1xx_hal_pcd_ex.c ****   * @param  size Size of Rx fifo
 111:c:/Users/Black_Life/STM32Cube/Repository/STM32Cube_FW_F1_V1.8.4/Drivers/STM32F1xx_HAL_Driver/Src\stm32f1xx_hal_pcd_ex.c ****   * @retval HAL status
 112:c:/Users/Black_Life/STM32Cube/Repository/STM32Cube_FW_F1_V1.8.4/Drivers/STM32F1xx_HAL_Driver/Src\stm32f1xx_hal_pcd_ex.c ****   */
 113:c:/Users/Black_Life/STM32Cube/Repository/STM32Cube_FW_F1_V1.8.4/Drivers/STM32F1xx_HAL_Driver/Src\stm32f1xx_hal_pcd_ex.c **** HAL_StatusTypeDef HAL_PCDEx_SetRxFiFo(PCD_HandleTypeDef *hpcd, uint16_t size)
 114:c:/Users/Black_Life/STM32Cube/Repository/STM32Cube_FW_F1_V1.8.4/Drivers/STM32F1xx_HAL_Driver/Src\stm32f1xx_hal_pcd_ex.c **** {
 115:c:/Users/Black_Life/STM32Cube/Repository/STM32Cube_FW_F1_V1.8.4/Drivers/STM32F1xx_HAL_Driver/Src\stm32f1xx_hal_pcd_ex.c ****   hpcd->Instance->GRXFSIZ = size;
 116:c:/Users/Black_Life/STM32Cube/Repository/STM32Cube_FW_F1_V1.8.4/Drivers/STM32F1xx_HAL_Driver/Src\stm32f1xx_hal_pcd_ex.c **** 
 117:c:/Users/Black_Life/STM32Cube/Repository/STM32Cube_FW_F1_V1.8.4/Drivers/STM32F1xx_HAL_Driver/Src\stm32f1xx_hal_pcd_ex.c ****   return HAL_OK;
 118:c:/Users/Black_Life/STM32Cube/Repository/STM32Cube_FW_F1_V1.8.4/Drivers/STM32F1xx_HAL_Driver/Src\stm32f1xx_hal_pcd_ex.c **** }
 119:c:/Users/Black_Life/STM32Cube/Repository/STM32Cube_FW_F1_V1.8.4/Drivers/STM32F1xx_HAL_Driver/Src\stm32f1xx_hal_pcd_ex.c **** #endif /* defined (USB_OTG_FS) */
 120:c:/Users/Black_Life/STM32Cube/Repository/STM32Cube_FW_F1_V1.8.4/Drivers/STM32F1xx_HAL_Driver/Src\stm32f1xx_hal_pcd_ex.c **** #if defined (USB)
 121:c:/Users/Black_Life/STM32Cube/Repository/STM32Cube_FW_F1_V1.8.4/Drivers/STM32F1xx_HAL_Driver/Src\stm32f1xx_hal_pcd_ex.c **** /**
 122:c:/Users/Black_Life/STM32Cube/Repository/STM32Cube_FW_F1_V1.8.4/Drivers/STM32F1xx_HAL_Driver/Src\stm32f1xx_hal_pcd_ex.c ****   * @brief  Configure PMA for EP
 123:c:/Users/Black_Life/STM32Cube/Repository/STM32Cube_FW_F1_V1.8.4/Drivers/STM32F1xx_HAL_Driver/Src\stm32f1xx_hal_pcd_ex.c ****   * @param  hpcd  Device instance
 124:c:/Users/Black_Life/STM32Cube/Repository/STM32Cube_FW_F1_V1.8.4/Drivers/STM32F1xx_HAL_Driver/Src\stm32f1xx_hal_pcd_ex.c ****   * @param  ep_addr endpoint address
 125:c:/Users/Black_Life/STM32Cube/Repository/STM32Cube_FW_F1_V1.8.4/Drivers/STM32F1xx_HAL_Driver/Src\stm32f1xx_hal_pcd_ex.c ****   * @param  ep_kind endpoint Kind
 126:c:/Users/Black_Life/STM32Cube/Repository/STM32Cube_FW_F1_V1.8.4/Drivers/STM32F1xx_HAL_Driver/Src\stm32f1xx_hal_pcd_ex.c ****   *                  USB_SNG_BUF: Single Buffer used
 127:c:/Users/Black_Life/STM32Cube/Repository/STM32Cube_FW_F1_V1.8.4/Drivers/STM32F1xx_HAL_Driver/Src\stm32f1xx_hal_pcd_ex.c ****   *                  USB_DBL_BUF: Double Buffer used
 128:c:/Users/Black_Life/STM32Cube/Repository/STM32Cube_FW_F1_V1.8.4/Drivers/STM32F1xx_HAL_Driver/Src\stm32f1xx_hal_pcd_ex.c ****   * @param  pmaadress: EP address in The PMA: In case of single buffer endpoint
 129:c:/Users/Black_Life/STM32Cube/Repository/STM32Cube_FW_F1_V1.8.4/Drivers/STM32F1xx_HAL_Driver/Src\stm32f1xx_hal_pcd_ex.c ****   *                   this parameter is 16-bit value providing the address
 130:c:/Users/Black_Life/STM32Cube/Repository/STM32Cube_FW_F1_V1.8.4/Drivers/STM32F1xx_HAL_Driver/Src\stm32f1xx_hal_pcd_ex.c ****   *                   in PMA allocated to endpoint.
 131:c:/Users/Black_Life/STM32Cube/Repository/STM32Cube_FW_F1_V1.8.4/Drivers/STM32F1xx_HAL_Driver/Src\stm32f1xx_hal_pcd_ex.c ****   *                   In case of double buffer endpoint this parameter
 132:c:/Users/Black_Life/STM32Cube/Repository/STM32Cube_FW_F1_V1.8.4/Drivers/STM32F1xx_HAL_Driver/Src\stm32f1xx_hal_pcd_ex.c ****   *                   is a 32-bit value providing the endpoint buffer 0 address
 133:c:/Users/Black_Life/STM32Cube/Repository/STM32Cube_FW_F1_V1.8.4/Drivers/STM32F1xx_HAL_Driver/Src\stm32f1xx_hal_pcd_ex.c ****   *                   in the LSB part of 32-bit value and endpoint buffer 1 address
 134:c:/Users/Black_Life/STM32Cube/Repository/STM32Cube_FW_F1_V1.8.4/Drivers/STM32F1xx_HAL_Driver/Src\stm32f1xx_hal_pcd_ex.c ****   *                   in the MSB part of 32-bit value.
 135:c:/Users/Black_Life/STM32Cube/Repository/STM32Cube_FW_F1_V1.8.4/Drivers/STM32F1xx_HAL_Driver/Src\stm32f1xx_hal_pcd_ex.c ****   * @retval HAL status
 136:c:/Users/Black_Life/STM32Cube/Repository/STM32Cube_FW_F1_V1.8.4/Drivers/STM32F1xx_HAL_Driver/Src\stm32f1xx_hal_pcd_ex.c ****   */
 137:c:/Users/Black_Life/STM32Cube/Repository/STM32Cube_FW_F1_V1.8.4/Drivers/STM32F1xx_HAL_Driver/Src\stm32f1xx_hal_pcd_ex.c **** 
 138:c:/Users/Black_Life/STM32Cube/Repository/STM32Cube_FW_F1_V1.8.4/Drivers/STM32F1xx_HAL_Driver/Src\stm32f1xx_hal_pcd_ex.c **** HAL_StatusTypeDef  HAL_PCDEx_PMAConfig(PCD_HandleTypeDef *hpcd, uint16_t ep_addr,
 139:c:/Users/Black_Life/STM32Cube/Repository/STM32Cube_FW_F1_V1.8.4/Drivers/STM32F1xx_HAL_Driver/Src\stm32f1xx_hal_pcd_ex.c ****                                        uint16_t ep_kind, uint32_t pmaadress)
 140:c:/Users/Black_Life/STM32Cube/Repository/STM32Cube_FW_F1_V1.8.4/Drivers/STM32F1xx_HAL_Driver/Src\stm32f1xx_hal_pcd_ex.c **** {
  28              		.loc 1 140 1 view -0
  29              		.cfi_startproc
  30              		@ args = 0, pretend = 0, frame = 0
  31              		@ frame_needed = 0, uses_anonymous_args = 0
  32              		@ link register save eliminated.
ARM GAS  C:\Users\BLACK_~1\AppData\Local\Temp\ccNcoNQN.s 			page 4


 141:c:/Users/Black_Life/STM32Cube/Repository/STM32Cube_FW_F1_V1.8.4/Drivers/STM32F1xx_HAL_Driver/Src\stm32f1xx_hal_pcd_ex.c ****   PCD_EPTypeDef *ep;
  33              		.loc 1 141 3 view .LVU1
 142:c:/Users/Black_Life/STM32Cube/Repository/STM32Cube_FW_F1_V1.8.4/Drivers/STM32F1xx_HAL_Driver/Src\stm32f1xx_hal_pcd_ex.c **** 
 143:c:/Users/Black_Life/STM32Cube/Repository/STM32Cube_FW_F1_V1.8.4/Drivers/STM32F1xx_HAL_Driver/Src\stm32f1xx_hal_pcd_ex.c ****   /* initialize ep structure*/
 144:c:/Users/Black_Life/STM32Cube/Repository/STM32Cube_FW_F1_V1.8.4/Drivers/STM32F1xx_HAL_Driver/Src\stm32f1xx_hal_pcd_ex.c ****   if ((0x80U & ep_addr) == 0x80U)
  34              		.loc 1 144 3 view .LVU2
  35              		.loc 1 144 6 is_stmt 0 view .LVU3
  36 0000 11F0800F 		tst	r1, #128
  37 0004 0BD0     		beq	.L2
 145:c:/Users/Black_Life/STM32Cube/Repository/STM32Cube_FW_F1_V1.8.4/Drivers/STM32F1xx_HAL_Driver/Src\stm32f1xx_hal_pcd_ex.c ****   {
 146:c:/Users/Black_Life/STM32Cube/Repository/STM32Cube_FW_F1_V1.8.4/Drivers/STM32F1xx_HAL_Driver/Src\stm32f1xx_hal_pcd_ex.c ****     ep = &hpcd->IN_ep[ep_addr & EP_ADDR_MSK];
  38              		.loc 1 146 5 is_stmt 1 view .LVU4
  39              		.loc 1 146 31 is_stmt 0 view .LVU5
  40 0006 01F00701 		and	r1, r1, #7
  41              	.LVL1:
  42              		.loc 1 146 8 view .LVU6
  43 000a 0131     		adds	r1, r1, #1
  44 000c 01EB8101 		add	r1, r1, r1, lsl #2
  45 0010 00EBC101 		add	r1, r0, r1, lsl #3
  46              	.LVL2:
  47              	.L3:
 147:c:/Users/Black_Life/STM32Cube/Repository/STM32Cube_FW_F1_V1.8.4/Drivers/STM32F1xx_HAL_Driver/Src\stm32f1xx_hal_pcd_ex.c ****   }
 148:c:/Users/Black_Life/STM32Cube/Repository/STM32Cube_FW_F1_V1.8.4/Drivers/STM32F1xx_HAL_Driver/Src\stm32f1xx_hal_pcd_ex.c ****   else
 149:c:/Users/Black_Life/STM32Cube/Repository/STM32Cube_FW_F1_V1.8.4/Drivers/STM32F1xx_HAL_Driver/Src\stm32f1xx_hal_pcd_ex.c ****   {
 150:c:/Users/Black_Life/STM32Cube/Repository/STM32Cube_FW_F1_V1.8.4/Drivers/STM32F1xx_HAL_Driver/Src\stm32f1xx_hal_pcd_ex.c ****     ep = &hpcd->OUT_ep[ep_addr];
 151:c:/Users/Black_Life/STM32Cube/Repository/STM32Cube_FW_F1_V1.8.4/Drivers/STM32F1xx_HAL_Driver/Src\stm32f1xx_hal_pcd_ex.c ****   }
 152:c:/Users/Black_Life/STM32Cube/Repository/STM32Cube_FW_F1_V1.8.4/Drivers/STM32F1xx_HAL_Driver/Src\stm32f1xx_hal_pcd_ex.c **** 
 153:c:/Users/Black_Life/STM32Cube/Repository/STM32Cube_FW_F1_V1.8.4/Drivers/STM32F1xx_HAL_Driver/Src\stm32f1xx_hal_pcd_ex.c ****   /* Here we check if the endpoint is single or double Buffer*/
 154:c:/Users/Black_Life/STM32Cube/Repository/STM32Cube_FW_F1_V1.8.4/Drivers/STM32F1xx_HAL_Driver/Src\stm32f1xx_hal_pcd_ex.c ****   if (ep_kind == PCD_SNG_BUF)
  48              		.loc 1 154 3 is_stmt 1 view .LVU7
  49              		.loc 1 154 6 is_stmt 0 view .LVU8
  50 0014 52B9     		cbnz	r2, .L4
 155:c:/Users/Black_Life/STM32Cube/Repository/STM32Cube_FW_F1_V1.8.4/Drivers/STM32F1xx_HAL_Driver/Src\stm32f1xx_hal_pcd_ex.c ****   {
 156:c:/Users/Black_Life/STM32Cube/Repository/STM32Cube_FW_F1_V1.8.4/Drivers/STM32F1xx_HAL_Driver/Src\stm32f1xx_hal_pcd_ex.c ****     /* Single Buffer */
 157:c:/Users/Black_Life/STM32Cube/Repository/STM32Cube_FW_F1_V1.8.4/Drivers/STM32F1xx_HAL_Driver/Src\stm32f1xx_hal_pcd_ex.c ****     ep->doublebuffer = 0U;
  51              		.loc 1 157 5 is_stmt 1 view .LVU9
  52              		.loc 1 157 22 is_stmt 0 view .LVU10
  53 0016 0A73     		strb	r2, [r1, #12]
 158:c:/Users/Black_Life/STM32Cube/Repository/STM32Cube_FW_F1_V1.8.4/Drivers/STM32F1xx_HAL_Driver/Src\stm32f1xx_hal_pcd_ex.c ****     /* Configure the PMA */
 159:c:/Users/Black_Life/STM32Cube/Repository/STM32Cube_FW_F1_V1.8.4/Drivers/STM32F1xx_HAL_Driver/Src\stm32f1xx_hal_pcd_ex.c ****     ep->pmaadress = (uint16_t)pmaadress;
  54              		.loc 1 159 5 is_stmt 1 view .LVU11
  55              		.loc 1 159 19 is_stmt 0 view .LVU12
  56 0018 CB80     		strh	r3, [r1, #6]	@ movhi
  57              	.LVL3:
  58              	.L5:
 160:c:/Users/Black_Life/STM32Cube/Repository/STM32Cube_FW_F1_V1.8.4/Drivers/STM32F1xx_HAL_Driver/Src\stm32f1xx_hal_pcd_ex.c ****   }
 161:c:/Users/Black_Life/STM32Cube/Repository/STM32Cube_FW_F1_V1.8.4/Drivers/STM32F1xx_HAL_Driver/Src\stm32f1xx_hal_pcd_ex.c ****   else /* USB_DBL_BUF */
 162:c:/Users/Black_Life/STM32Cube/Repository/STM32Cube_FW_F1_V1.8.4/Drivers/STM32F1xx_HAL_Driver/Src\stm32f1xx_hal_pcd_ex.c ****   {
 163:c:/Users/Black_Life/STM32Cube/Repository/STM32Cube_FW_F1_V1.8.4/Drivers/STM32F1xx_HAL_Driver/Src\stm32f1xx_hal_pcd_ex.c ****     /* Double Buffer Endpoint */
 164:c:/Users/Black_Life/STM32Cube/Repository/STM32Cube_FW_F1_V1.8.4/Drivers/STM32F1xx_HAL_Driver/Src\stm32f1xx_hal_pcd_ex.c ****     ep->doublebuffer = 1U;
 165:c:/Users/Black_Life/STM32Cube/Repository/STM32Cube_FW_F1_V1.8.4/Drivers/STM32F1xx_HAL_Driver/Src\stm32f1xx_hal_pcd_ex.c ****     /* Configure the PMA */
 166:c:/Users/Black_Life/STM32Cube/Repository/STM32Cube_FW_F1_V1.8.4/Drivers/STM32F1xx_HAL_Driver/Src\stm32f1xx_hal_pcd_ex.c ****     ep->pmaaddr0 = (uint16_t)(pmaadress & 0xFFFFU);
 167:c:/Users/Black_Life/STM32Cube/Repository/STM32Cube_FW_F1_V1.8.4/Drivers/STM32F1xx_HAL_Driver/Src\stm32f1xx_hal_pcd_ex.c ****     ep->pmaaddr1 = (uint16_t)((pmaadress & 0xFFFF0000U) >> 16);
 168:c:/Users/Black_Life/STM32Cube/Repository/STM32Cube_FW_F1_V1.8.4/Drivers/STM32F1xx_HAL_Driver/Src\stm32f1xx_hal_pcd_ex.c ****   }
 169:c:/Users/Black_Life/STM32Cube/Repository/STM32Cube_FW_F1_V1.8.4/Drivers/STM32F1xx_HAL_Driver/Src\stm32f1xx_hal_pcd_ex.c **** 
 170:c:/Users/Black_Life/STM32Cube/Repository/STM32Cube_FW_F1_V1.8.4/Drivers/STM32F1xx_HAL_Driver/Src\stm32f1xx_hal_pcd_ex.c ****   return HAL_OK;
  59              		.loc 1 170 3 is_stmt 1 view .LVU13
ARM GAS  C:\Users\BLACK_~1\AppData\Local\Temp\ccNcoNQN.s 			page 5


 171:c:/Users/Black_Life/STM32Cube/Repository/STM32Cube_FW_F1_V1.8.4/Drivers/STM32F1xx_HAL_Driver/Src\stm32f1xx_hal_pcd_ex.c **** }
  60              		.loc 1 171 1 is_stmt 0 view .LVU14
  61 001a 0020     		movs	r0, #0
  62              	.LVL4:
  63              		.loc 1 171 1 view .LVU15
  64 001c 7047     		bx	lr
  65              	.LVL5:
  66              	.L2:
 150:c:/Users/Black_Life/STM32Cube/Repository/STM32Cube_FW_F1_V1.8.4/Drivers/STM32F1xx_HAL_Driver/Src\stm32f1xx_hal_pcd_ex.c ****   }
  67              		.loc 1 150 5 is_stmt 1 view .LVU16
 150:c:/Users/Black_Life/STM32Cube/Repository/STM32Cube_FW_F1_V1.8.4/Drivers/STM32F1xx_HAL_Driver/Src\stm32f1xx_hal_pcd_ex.c ****   }
  68              		.loc 1 150 8 is_stmt 0 view .LVU17
  69 001e 01EB8101 		add	r1, r1, r1, lsl #2
  70              	.LVL6:
 150:c:/Users/Black_Life/STM32Cube/Repository/STM32Cube_FW_F1_V1.8.4/Drivers/STM32F1xx_HAL_Driver/Src\stm32f1xx_hal_pcd_ex.c ****   }
  71              		.loc 1 150 8 view .LVU18
  72 0022 C900     		lsls	r1, r1, #3
  73 0024 01F5B471 		add	r1, r1, #360
  74 0028 0144     		add	r1, r1, r0
  75              	.LVL7:
 150:c:/Users/Black_Life/STM32Cube/Repository/STM32Cube_FW_F1_V1.8.4/Drivers/STM32F1xx_HAL_Driver/Src\stm32f1xx_hal_pcd_ex.c ****   }
  76              		.loc 1 150 8 view .LVU19
  77 002a F3E7     		b	.L3
  78              	.L4:
 164:c:/Users/Black_Life/STM32Cube/Repository/STM32Cube_FW_F1_V1.8.4/Drivers/STM32F1xx_HAL_Driver/Src\stm32f1xx_hal_pcd_ex.c ****     /* Configure the PMA */
  79              		.loc 1 164 5 is_stmt 1 view .LVU20
 164:c:/Users/Black_Life/STM32Cube/Repository/STM32Cube_FW_F1_V1.8.4/Drivers/STM32F1xx_HAL_Driver/Src\stm32f1xx_hal_pcd_ex.c ****     /* Configure the PMA */
  80              		.loc 1 164 22 is_stmt 0 view .LVU21
  81 002c 0122     		movs	r2, #1
  82              	.LVL8:
 164:c:/Users/Black_Life/STM32Cube/Repository/STM32Cube_FW_F1_V1.8.4/Drivers/STM32F1xx_HAL_Driver/Src\stm32f1xx_hal_pcd_ex.c ****     /* Configure the PMA */
  83              		.loc 1 164 22 view .LVU22
  84 002e 0A73     		strb	r2, [r1, #12]
 166:c:/Users/Black_Life/STM32Cube/Repository/STM32Cube_FW_F1_V1.8.4/Drivers/STM32F1xx_HAL_Driver/Src\stm32f1xx_hal_pcd_ex.c ****     ep->pmaaddr1 = (uint16_t)((pmaadress & 0xFFFF0000U) >> 16);
  85              		.loc 1 166 5 is_stmt 1 view .LVU23
 166:c:/Users/Black_Life/STM32Cube/Repository/STM32Cube_FW_F1_V1.8.4/Drivers/STM32F1xx_HAL_Driver/Src\stm32f1xx_hal_pcd_ex.c ****     ep->pmaaddr1 = (uint16_t)((pmaadress & 0xFFFF0000U) >> 16);
  86              		.loc 1 166 18 is_stmt 0 view .LVU24
  87 0030 0B81     		strh	r3, [r1, #8]	@ movhi
 167:c:/Users/Black_Life/STM32Cube/Repository/STM32Cube_FW_F1_V1.8.4/Drivers/STM32F1xx_HAL_Driver/Src\stm32f1xx_hal_pcd_ex.c ****   }
  88              		.loc 1 167 5 is_stmt 1 view .LVU25
 167:c:/Users/Black_Life/STM32Cube/Repository/STM32Cube_FW_F1_V1.8.4/Drivers/STM32F1xx_HAL_Driver/Src\stm32f1xx_hal_pcd_ex.c ****   }
  89              		.loc 1 167 20 is_stmt 0 view .LVU26
  90 0032 1B0C     		lsrs	r3, r3, #16
  91              	.LVL9:
 167:c:/Users/Black_Life/STM32Cube/Repository/STM32Cube_FW_F1_V1.8.4/Drivers/STM32F1xx_HAL_Driver/Src\stm32f1xx_hal_pcd_ex.c ****   }
  92              		.loc 1 167 18 view .LVU27
  93 0034 4B81     		strh	r3, [r1, #10]	@ movhi
  94 0036 F0E7     		b	.L5
  95              		.cfi_endproc
  96              	.LFE65:
  98              		.section	.text.HAL_PCDEx_SetConnectionState,"ax",%progbits
  99              		.align	1
 100              		.weak	HAL_PCDEx_SetConnectionState
 101              		.syntax unified
 102              		.thumb
 103              		.thumb_func
 105              	HAL_PCDEx_SetConnectionState:
ARM GAS  C:\Users\BLACK_~1\AppData\Local\Temp\ccNcoNQN.s 			page 6


 106              	.LVL10:
 107              	.LFB66:
 172:c:/Users/Black_Life/STM32Cube/Repository/STM32Cube_FW_F1_V1.8.4/Drivers/STM32F1xx_HAL_Driver/Src\stm32f1xx_hal_pcd_ex.c **** 
 173:c:/Users/Black_Life/STM32Cube/Repository/STM32Cube_FW_F1_V1.8.4/Drivers/STM32F1xx_HAL_Driver/Src\stm32f1xx_hal_pcd_ex.c **** /**
 174:c:/Users/Black_Life/STM32Cube/Repository/STM32Cube_FW_F1_V1.8.4/Drivers/STM32F1xx_HAL_Driver/Src\stm32f1xx_hal_pcd_ex.c ****   * @brief  Software Device Connection,
 175:c:/Users/Black_Life/STM32Cube/Repository/STM32Cube_FW_F1_V1.8.4/Drivers/STM32F1xx_HAL_Driver/Src\stm32f1xx_hal_pcd_ex.c ****   *         this function is not required by USB OTG FS peripheral, it is used
 176:c:/Users/Black_Life/STM32Cube/Repository/STM32Cube_FW_F1_V1.8.4/Drivers/STM32F1xx_HAL_Driver/Src\stm32f1xx_hal_pcd_ex.c ****   *         only by USB Device FS peripheral.
 177:c:/Users/Black_Life/STM32Cube/Repository/STM32Cube_FW_F1_V1.8.4/Drivers/STM32F1xx_HAL_Driver/Src\stm32f1xx_hal_pcd_ex.c ****   * @param  hpcd PCD handle
 178:c:/Users/Black_Life/STM32Cube/Repository/STM32Cube_FW_F1_V1.8.4/Drivers/STM32F1xx_HAL_Driver/Src\stm32f1xx_hal_pcd_ex.c ****   * @param  state connection state (0 : disconnected / 1: connected)
 179:c:/Users/Black_Life/STM32Cube/Repository/STM32Cube_FW_F1_V1.8.4/Drivers/STM32F1xx_HAL_Driver/Src\stm32f1xx_hal_pcd_ex.c ****   * @retval None
 180:c:/Users/Black_Life/STM32Cube/Repository/STM32Cube_FW_F1_V1.8.4/Drivers/STM32F1xx_HAL_Driver/Src\stm32f1xx_hal_pcd_ex.c ****   */
 181:c:/Users/Black_Life/STM32Cube/Repository/STM32Cube_FW_F1_V1.8.4/Drivers/STM32F1xx_HAL_Driver/Src\stm32f1xx_hal_pcd_ex.c **** __weak void HAL_PCDEx_SetConnectionState(PCD_HandleTypeDef *hpcd, uint8_t state)
 182:c:/Users/Black_Life/STM32Cube/Repository/STM32Cube_FW_F1_V1.8.4/Drivers/STM32F1xx_HAL_Driver/Src\stm32f1xx_hal_pcd_ex.c **** {
 108              		.loc 1 182 1 is_stmt 1 view -0
 109              		.cfi_startproc
 110              		@ args = 0, pretend = 0, frame = 0
 111              		@ frame_needed = 0, uses_anonymous_args = 0
 112              		@ link register save eliminated.
 183:c:/Users/Black_Life/STM32Cube/Repository/STM32Cube_FW_F1_V1.8.4/Drivers/STM32F1xx_HAL_Driver/Src\stm32f1xx_hal_pcd_ex.c ****   /* Prevent unused argument(s) compilation warning */
 184:c:/Users/Black_Life/STM32Cube/Repository/STM32Cube_FW_F1_V1.8.4/Drivers/STM32F1xx_HAL_Driver/Src\stm32f1xx_hal_pcd_ex.c ****   UNUSED(hpcd);
 113              		.loc 1 184 3 view .LVU29
 185:c:/Users/Black_Life/STM32Cube/Repository/STM32Cube_FW_F1_V1.8.4/Drivers/STM32F1xx_HAL_Driver/Src\stm32f1xx_hal_pcd_ex.c ****   UNUSED(state);
 114              		.loc 1 185 3 view .LVU30
 186:c:/Users/Black_Life/STM32Cube/Repository/STM32Cube_FW_F1_V1.8.4/Drivers/STM32F1xx_HAL_Driver/Src\stm32f1xx_hal_pcd_ex.c ****   /* NOTE : This function Should not be modified, when the callback is needed,
 187:c:/Users/Black_Life/STM32Cube/Repository/STM32Cube_FW_F1_V1.8.4/Drivers/STM32F1xx_HAL_Driver/Src\stm32f1xx_hal_pcd_ex.c ****             the HAL_PCDEx_SetConnectionState could be implemented in the user file
 188:c:/Users/Black_Life/STM32Cube/Repository/STM32Cube_FW_F1_V1.8.4/Drivers/STM32F1xx_HAL_Driver/Src\stm32f1xx_hal_pcd_ex.c ****    */
 189:c:/Users/Black_Life/STM32Cube/Repository/STM32Cube_FW_F1_V1.8.4/Drivers/STM32F1xx_HAL_Driver/Src\stm32f1xx_hal_pcd_ex.c **** }
 115              		.loc 1 189 1 is_stmt 0 view .LVU31
 116 0000 7047     		bx	lr
 117              		.cfi_endproc
 118              	.LFE66:
 120              		.section	.text.HAL_PCDEx_LPM_Callback,"ax",%progbits
 121              		.align	1
 122              		.weak	HAL_PCDEx_LPM_Callback
 123              		.syntax unified
 124              		.thumb
 125              		.thumb_func
 127              	HAL_PCDEx_LPM_Callback:
 128              	.LVL11:
 129              	.LFB67:
 190:c:/Users/Black_Life/STM32Cube/Repository/STM32Cube_FW_F1_V1.8.4/Drivers/STM32F1xx_HAL_Driver/Src\stm32f1xx_hal_pcd_ex.c **** #endif /* defined (USB) */
 191:c:/Users/Black_Life/STM32Cube/Repository/STM32Cube_FW_F1_V1.8.4/Drivers/STM32F1xx_HAL_Driver/Src\stm32f1xx_hal_pcd_ex.c **** 
 192:c:/Users/Black_Life/STM32Cube/Repository/STM32Cube_FW_F1_V1.8.4/Drivers/STM32F1xx_HAL_Driver/Src\stm32f1xx_hal_pcd_ex.c **** /**
 193:c:/Users/Black_Life/STM32Cube/Repository/STM32Cube_FW_F1_V1.8.4/Drivers/STM32F1xx_HAL_Driver/Src\stm32f1xx_hal_pcd_ex.c ****   * @brief  Send LPM message to user layer callback.
 194:c:/Users/Black_Life/STM32Cube/Repository/STM32Cube_FW_F1_V1.8.4/Drivers/STM32F1xx_HAL_Driver/Src\stm32f1xx_hal_pcd_ex.c ****   * @param  hpcd PCD handle
 195:c:/Users/Black_Life/STM32Cube/Repository/STM32Cube_FW_F1_V1.8.4/Drivers/STM32F1xx_HAL_Driver/Src\stm32f1xx_hal_pcd_ex.c ****   * @param  msg LPM message
 196:c:/Users/Black_Life/STM32Cube/Repository/STM32Cube_FW_F1_V1.8.4/Drivers/STM32F1xx_HAL_Driver/Src\stm32f1xx_hal_pcd_ex.c ****   * @retval HAL status
 197:c:/Users/Black_Life/STM32Cube/Repository/STM32Cube_FW_F1_V1.8.4/Drivers/STM32F1xx_HAL_Driver/Src\stm32f1xx_hal_pcd_ex.c ****   */
 198:c:/Users/Black_Life/STM32Cube/Repository/STM32Cube_FW_F1_V1.8.4/Drivers/STM32F1xx_HAL_Driver/Src\stm32f1xx_hal_pcd_ex.c **** __weak void HAL_PCDEx_LPM_Callback(PCD_HandleTypeDef *hpcd, PCD_LPM_MsgTypeDef msg)
 199:c:/Users/Black_Life/STM32Cube/Repository/STM32Cube_FW_F1_V1.8.4/Drivers/STM32F1xx_HAL_Driver/Src\stm32f1xx_hal_pcd_ex.c **** {
 130              		.loc 1 199 1 is_stmt 1 view -0
 131              		.cfi_startproc
 132              		@ args = 0, pretend = 0, frame = 0
 133              		@ frame_needed = 0, uses_anonymous_args = 0
 134              		@ link register save eliminated.
 200:c:/Users/Black_Life/STM32Cube/Repository/STM32Cube_FW_F1_V1.8.4/Drivers/STM32F1xx_HAL_Driver/Src\stm32f1xx_hal_pcd_ex.c ****   /* Prevent unused argument(s) compilation warning */
 201:c:/Users/Black_Life/STM32Cube/Repository/STM32Cube_FW_F1_V1.8.4/Drivers/STM32F1xx_HAL_Driver/Src\stm32f1xx_hal_pcd_ex.c ****   UNUSED(hpcd);
ARM GAS  C:\Users\BLACK_~1\AppData\Local\Temp\ccNcoNQN.s 			page 7


 135              		.loc 1 201 3 view .LVU33
 202:c:/Users/Black_Life/STM32Cube/Repository/STM32Cube_FW_F1_V1.8.4/Drivers/STM32F1xx_HAL_Driver/Src\stm32f1xx_hal_pcd_ex.c ****   UNUSED(msg);
 136              		.loc 1 202 3 view .LVU34
 203:c:/Users/Black_Life/STM32Cube/Repository/STM32Cube_FW_F1_V1.8.4/Drivers/STM32F1xx_HAL_Driver/Src\stm32f1xx_hal_pcd_ex.c **** 
 204:c:/Users/Black_Life/STM32Cube/Repository/STM32Cube_FW_F1_V1.8.4/Drivers/STM32F1xx_HAL_Driver/Src\stm32f1xx_hal_pcd_ex.c ****   /* NOTE : This function should not be modified, when the callback is needed,
 205:c:/Users/Black_Life/STM32Cube/Repository/STM32Cube_FW_F1_V1.8.4/Drivers/STM32F1xx_HAL_Driver/Src\stm32f1xx_hal_pcd_ex.c ****             the HAL_PCDEx_LPM_Callback could be implemented in the user file
 206:c:/Users/Black_Life/STM32Cube/Repository/STM32Cube_FW_F1_V1.8.4/Drivers/STM32F1xx_HAL_Driver/Src\stm32f1xx_hal_pcd_ex.c ****    */
 207:c:/Users/Black_Life/STM32Cube/Repository/STM32Cube_FW_F1_V1.8.4/Drivers/STM32F1xx_HAL_Driver/Src\stm32f1xx_hal_pcd_ex.c **** }
 137              		.loc 1 207 1 is_stmt 0 view .LVU35
 138 0000 7047     		bx	lr
 139              		.cfi_endproc
 140              	.LFE67:
 142              		.section	.text.HAL_PCDEx_BCD_Callback,"ax",%progbits
 143              		.align	1
 144              		.weak	HAL_PCDEx_BCD_Callback
 145              		.syntax unified
 146              		.thumb
 147              		.thumb_func
 149              	HAL_PCDEx_BCD_Callback:
 150              	.LVL12:
 151              	.LFB68:
 208:c:/Users/Black_Life/STM32Cube/Repository/STM32Cube_FW_F1_V1.8.4/Drivers/STM32F1xx_HAL_Driver/Src\stm32f1xx_hal_pcd_ex.c **** 
 209:c:/Users/Black_Life/STM32Cube/Repository/STM32Cube_FW_F1_V1.8.4/Drivers/STM32F1xx_HAL_Driver/Src\stm32f1xx_hal_pcd_ex.c **** /**
 210:c:/Users/Black_Life/STM32Cube/Repository/STM32Cube_FW_F1_V1.8.4/Drivers/STM32F1xx_HAL_Driver/Src\stm32f1xx_hal_pcd_ex.c ****   * @brief  Send BatteryCharging message to user layer callback.
 211:c:/Users/Black_Life/STM32Cube/Repository/STM32Cube_FW_F1_V1.8.4/Drivers/STM32F1xx_HAL_Driver/Src\stm32f1xx_hal_pcd_ex.c ****   * @param  hpcd PCD handle
 212:c:/Users/Black_Life/STM32Cube/Repository/STM32Cube_FW_F1_V1.8.4/Drivers/STM32F1xx_HAL_Driver/Src\stm32f1xx_hal_pcd_ex.c ****   * @param  msg LPM message
 213:c:/Users/Black_Life/STM32Cube/Repository/STM32Cube_FW_F1_V1.8.4/Drivers/STM32F1xx_HAL_Driver/Src\stm32f1xx_hal_pcd_ex.c ****   * @retval HAL status
 214:c:/Users/Black_Life/STM32Cube/Repository/STM32Cube_FW_F1_V1.8.4/Drivers/STM32F1xx_HAL_Driver/Src\stm32f1xx_hal_pcd_ex.c ****   */
 215:c:/Users/Black_Life/STM32Cube/Repository/STM32Cube_FW_F1_V1.8.4/Drivers/STM32F1xx_HAL_Driver/Src\stm32f1xx_hal_pcd_ex.c **** __weak void HAL_PCDEx_BCD_Callback(PCD_HandleTypeDef *hpcd, PCD_BCD_MsgTypeDef msg)
 216:c:/Users/Black_Life/STM32Cube/Repository/STM32Cube_FW_F1_V1.8.4/Drivers/STM32F1xx_HAL_Driver/Src\stm32f1xx_hal_pcd_ex.c **** {
 152              		.loc 1 216 1 is_stmt 1 view -0
 153              		.cfi_startproc
 154              		@ args = 0, pretend = 0, frame = 0
 155              		@ frame_needed = 0, uses_anonymous_args = 0
 156              		@ link register save eliminated.
 217:c:/Users/Black_Life/STM32Cube/Repository/STM32Cube_FW_F1_V1.8.4/Drivers/STM32F1xx_HAL_Driver/Src\stm32f1xx_hal_pcd_ex.c ****   /* Prevent unused argument(s) compilation warning */
 218:c:/Users/Black_Life/STM32Cube/Repository/STM32Cube_FW_F1_V1.8.4/Drivers/STM32F1xx_HAL_Driver/Src\stm32f1xx_hal_pcd_ex.c ****   UNUSED(hpcd);
 157              		.loc 1 218 3 view .LVU37
 219:c:/Users/Black_Life/STM32Cube/Repository/STM32Cube_FW_F1_V1.8.4/Drivers/STM32F1xx_HAL_Driver/Src\stm32f1xx_hal_pcd_ex.c ****   UNUSED(msg);
 158              		.loc 1 219 3 view .LVU38
 220:c:/Users/Black_Life/STM32Cube/Repository/STM32Cube_FW_F1_V1.8.4/Drivers/STM32F1xx_HAL_Driver/Src\stm32f1xx_hal_pcd_ex.c **** 
 221:c:/Users/Black_Life/STM32Cube/Repository/STM32Cube_FW_F1_V1.8.4/Drivers/STM32F1xx_HAL_Driver/Src\stm32f1xx_hal_pcd_ex.c ****   /* NOTE : This function should not be modified, when the callback is needed,
 222:c:/Users/Black_Life/STM32Cube/Repository/STM32Cube_FW_F1_V1.8.4/Drivers/STM32F1xx_HAL_Driver/Src\stm32f1xx_hal_pcd_ex.c ****             the HAL_PCDEx_BCD_Callback could be implemented in the user file
 223:c:/Users/Black_Life/STM32Cube/Repository/STM32Cube_FW_F1_V1.8.4/Drivers/STM32F1xx_HAL_Driver/Src\stm32f1xx_hal_pcd_ex.c ****    */
 224:c:/Users/Black_Life/STM32Cube/Repository/STM32Cube_FW_F1_V1.8.4/Drivers/STM32F1xx_HAL_Driver/Src\stm32f1xx_hal_pcd_ex.c **** }
 159              		.loc 1 224 1 is_stmt 0 view .LVU39
 160 0000 7047     		bx	lr
 161              		.cfi_endproc
 162              	.LFE68:
 164              		.text
 165              	.Letext0:
 166              		.file 2 "e:\\gnu arm embedded toolchain\\10 2021.10\\arm-none-eabi\\include\\machine\\_default_typ
 167              		.file 3 "e:\\gnu arm embedded toolchain\\10 2021.10\\arm-none-eabi\\include\\sys\\_stdint.h"
 168              		.file 4 "c:/Users/Black_Life/STM32Cube/Repository/STM32Cube_FW_F1_V1.8.4/Drivers/CMSIS/Device/ST/S
 169              		.file 5 "c:/Users/Black_Life/STM32Cube/Repository/STM32Cube_FW_F1_V1.8.4/Drivers/STM32F1xx_HAL_Dri
 170              		.file 6 "c:/Users/Black_Life/STM32Cube/Repository/STM32Cube_FW_F1_V1.8.4/Drivers/STM32F1xx_HAL_Dri
 171              		.file 7 "c:/Users/Black_Life/STM32Cube/Repository/STM32Cube_FW_F1_V1.8.4/Drivers/STM32F1xx_HAL_Dri
ARM GAS  C:\Users\BLACK_~1\AppData\Local\Temp\ccNcoNQN.s 			page 8


ARM GAS  C:\Users\BLACK_~1\AppData\Local\Temp\ccNcoNQN.s 			page 9

