ARM GAS  C:\Users\BLACK_~1\AppData\Local\Temp\cci6O7Le.s 			page 1


   1              		.cpu cortex-m3
   2              		.arch armv7-m
   3              		.fpu softvfp
   4              		.eabi_attribute 20, 1
   5              		.eabi_attribute 21, 1
   6              		.eabi_attribute 23, 3
   7              		.eabi_attribute 24, 1
   8              		.eabi_attribute 25, 1
   9              		.eabi_attribute 26, 1
  10              		.eabi_attribute 30, 1
  11              		.eabi_attribute 34, 1
  12              		.eabi_attribute 18, 4
  13              		.file	"stm32f1xx_hal_msp.c"
  14              		.text
  15              	.Ltext0:
  16              		.cfi_sections	.debug_frame
  17              		.section	.text.HAL_MspInit,"ax",%progbits
  18              		.align	1
  19              		.global	HAL_MspInit
  20              		.syntax unified
  21              		.thumb
  22              		.thumb_func
  24              	HAL_MspInit:
  25              	.LFB65:
  26              		.file 1 "Core/Src/stm32f1xx_hal_msp.c"
   1:Core/Src/stm32f1xx_hal_msp.c **** /* USER CODE BEGIN Header */
   2:Core/Src/stm32f1xx_hal_msp.c **** /**
   3:Core/Src/stm32f1xx_hal_msp.c ****   ******************************************************************************
   4:Core/Src/stm32f1xx_hal_msp.c ****   * @file         stm32f1xx_hal_msp.c
   5:Core/Src/stm32f1xx_hal_msp.c ****   * @brief        This file provides code for the MSP Initialization
   6:Core/Src/stm32f1xx_hal_msp.c ****   *               and de-Initialization codes.
   7:Core/Src/stm32f1xx_hal_msp.c ****   ******************************************************************************
   8:Core/Src/stm32f1xx_hal_msp.c ****   * @attention
   9:Core/Src/stm32f1xx_hal_msp.c ****   *
  10:Core/Src/stm32f1xx_hal_msp.c ****   * Copyright (c) 2023 STMicroelectronics.
  11:Core/Src/stm32f1xx_hal_msp.c ****   * All rights reserved.
  12:Core/Src/stm32f1xx_hal_msp.c ****   *
  13:Core/Src/stm32f1xx_hal_msp.c ****   * This software is licensed under terms that can be found in the LICENSE file
  14:Core/Src/stm32f1xx_hal_msp.c ****   * in the root directory of this software component.
  15:Core/Src/stm32f1xx_hal_msp.c ****   * If no LICENSE file comes with this software, it is provided AS-IS.
  16:Core/Src/stm32f1xx_hal_msp.c ****   *
  17:Core/Src/stm32f1xx_hal_msp.c ****   ******************************************************************************
  18:Core/Src/stm32f1xx_hal_msp.c ****   */
  19:Core/Src/stm32f1xx_hal_msp.c **** /* USER CODE END Header */
  20:Core/Src/stm32f1xx_hal_msp.c **** 
  21:Core/Src/stm32f1xx_hal_msp.c **** /* Includes ------------------------------------------------------------------*/
  22:Core/Src/stm32f1xx_hal_msp.c **** #include "main.h"
  23:Core/Src/stm32f1xx_hal_msp.c **** /* USER CODE BEGIN Includes */
  24:Core/Src/stm32f1xx_hal_msp.c **** 
  25:Core/Src/stm32f1xx_hal_msp.c **** /* USER CODE END Includes */
  26:Core/Src/stm32f1xx_hal_msp.c **** 
  27:Core/Src/stm32f1xx_hal_msp.c **** /* Private typedef -----------------------------------------------------------*/
  28:Core/Src/stm32f1xx_hal_msp.c **** /* USER CODE BEGIN TD */
  29:Core/Src/stm32f1xx_hal_msp.c **** 
  30:Core/Src/stm32f1xx_hal_msp.c **** /* USER CODE END TD */
  31:Core/Src/stm32f1xx_hal_msp.c **** 
  32:Core/Src/stm32f1xx_hal_msp.c **** /* Private define ------------------------------------------------------------*/
ARM GAS  C:\Users\BLACK_~1\AppData\Local\Temp\cci6O7Le.s 			page 2


  33:Core/Src/stm32f1xx_hal_msp.c **** /* USER CODE BEGIN Define */
  34:Core/Src/stm32f1xx_hal_msp.c **** 
  35:Core/Src/stm32f1xx_hal_msp.c **** /* USER CODE END Define */
  36:Core/Src/stm32f1xx_hal_msp.c **** 
  37:Core/Src/stm32f1xx_hal_msp.c **** /* Private macro -------------------------------------------------------------*/
  38:Core/Src/stm32f1xx_hal_msp.c **** /* USER CODE BEGIN Macro */
  39:Core/Src/stm32f1xx_hal_msp.c **** 
  40:Core/Src/stm32f1xx_hal_msp.c **** /* USER CODE END Macro */
  41:Core/Src/stm32f1xx_hal_msp.c **** 
  42:Core/Src/stm32f1xx_hal_msp.c **** /* Private variables ---------------------------------------------------------*/
  43:Core/Src/stm32f1xx_hal_msp.c **** /* USER CODE BEGIN PV */
  44:Core/Src/stm32f1xx_hal_msp.c **** 
  45:Core/Src/stm32f1xx_hal_msp.c **** /* USER CODE END PV */
  46:Core/Src/stm32f1xx_hal_msp.c **** 
  47:Core/Src/stm32f1xx_hal_msp.c **** /* Private function prototypes -----------------------------------------------*/
  48:Core/Src/stm32f1xx_hal_msp.c **** /* USER CODE BEGIN PFP */
  49:Core/Src/stm32f1xx_hal_msp.c **** 
  50:Core/Src/stm32f1xx_hal_msp.c **** /* USER CODE END PFP */
  51:Core/Src/stm32f1xx_hal_msp.c **** 
  52:Core/Src/stm32f1xx_hal_msp.c **** /* External functions --------------------------------------------------------*/
  53:Core/Src/stm32f1xx_hal_msp.c **** /* USER CODE BEGIN ExternalFunctions */
  54:Core/Src/stm32f1xx_hal_msp.c **** 
  55:Core/Src/stm32f1xx_hal_msp.c **** /* USER CODE END ExternalFunctions */
  56:Core/Src/stm32f1xx_hal_msp.c **** 
  57:Core/Src/stm32f1xx_hal_msp.c **** /* USER CODE BEGIN 0 */
  58:Core/Src/stm32f1xx_hal_msp.c **** 
  59:Core/Src/stm32f1xx_hal_msp.c **** /* USER CODE END 0 */
  60:Core/Src/stm32f1xx_hal_msp.c **** /**
  61:Core/Src/stm32f1xx_hal_msp.c ****   * Initializes the Global MSP.
  62:Core/Src/stm32f1xx_hal_msp.c ****   */
  63:Core/Src/stm32f1xx_hal_msp.c **** void HAL_MspInit(void)
  64:Core/Src/stm32f1xx_hal_msp.c **** {
  27              		.loc 1 64 1 view -0
  28              		.cfi_startproc
  29              		@ args = 0, pretend = 0, frame = 8
  30              		@ frame_needed = 0, uses_anonymous_args = 0
  31              		@ link register save eliminated.
  32 0000 82B0     		sub	sp, sp, #8
  33              	.LCFI0:
  34              		.cfi_def_cfa_offset 8
  65:Core/Src/stm32f1xx_hal_msp.c ****   /* USER CODE BEGIN MspInit 0 */
  66:Core/Src/stm32f1xx_hal_msp.c **** 
  67:Core/Src/stm32f1xx_hal_msp.c ****   /* USER CODE END MspInit 0 */
  68:Core/Src/stm32f1xx_hal_msp.c **** 
  69:Core/Src/stm32f1xx_hal_msp.c ****   __HAL_RCC_AFIO_CLK_ENABLE();
  35              		.loc 1 69 3 view .LVU1
  36              	.LBB2:
  37              		.loc 1 69 3 view .LVU2
  38              		.loc 1 69 3 view .LVU3
  39 0002 0E4B     		ldr	r3, .L3
  40 0004 9A69     		ldr	r2, [r3, #24]
  41 0006 42F00102 		orr	r2, r2, #1
  42 000a 9A61     		str	r2, [r3, #24]
  43              		.loc 1 69 3 view .LVU4
  44 000c 9A69     		ldr	r2, [r3, #24]
  45 000e 02F00102 		and	r2, r2, #1
  46 0012 0092     		str	r2, [sp]
ARM GAS  C:\Users\BLACK_~1\AppData\Local\Temp\cci6O7Le.s 			page 3


  47              		.loc 1 69 3 view .LVU5
  48 0014 009A     		ldr	r2, [sp]
  49              	.LBE2:
  50              		.loc 1 69 3 view .LVU6
  70:Core/Src/stm32f1xx_hal_msp.c ****   __HAL_RCC_PWR_CLK_ENABLE();
  51              		.loc 1 70 3 view .LVU7
  52              	.LBB3:
  53              		.loc 1 70 3 view .LVU8
  54              		.loc 1 70 3 view .LVU9
  55 0016 DA69     		ldr	r2, [r3, #28]
  56 0018 42F08052 		orr	r2, r2, #268435456
  57 001c DA61     		str	r2, [r3, #28]
  58              		.loc 1 70 3 view .LVU10
  59 001e DB69     		ldr	r3, [r3, #28]
  60 0020 03F08053 		and	r3, r3, #268435456
  61 0024 0193     		str	r3, [sp, #4]
  62              		.loc 1 70 3 view .LVU11
  63 0026 019B     		ldr	r3, [sp, #4]
  64              	.LBE3:
  65              		.loc 1 70 3 view .LVU12
  71:Core/Src/stm32f1xx_hal_msp.c **** 
  72:Core/Src/stm32f1xx_hal_msp.c ****   /* System interrupt init*/
  73:Core/Src/stm32f1xx_hal_msp.c **** 
  74:Core/Src/stm32f1xx_hal_msp.c ****   /** NOJTAG: JTAG-DP Disabled and SW-DP Enabled
  75:Core/Src/stm32f1xx_hal_msp.c ****   */
  76:Core/Src/stm32f1xx_hal_msp.c ****   __HAL_AFIO_REMAP_SWJ_NOJTAG();
  66              		.loc 1 76 3 view .LVU13
  67              	.LBB4:
  68              		.loc 1 76 3 view .LVU14
  69 0028 054A     		ldr	r2, .L3+4
  70 002a 5368     		ldr	r3, [r2, #4]
  71              	.LVL0:
  72              		.loc 1 76 3 view .LVU15
  73 002c 23F0E063 		bic	r3, r3, #117440512
  74              	.LVL1:
  75              		.loc 1 76 3 view .LVU16
  76 0030 43F00073 		orr	r3, r3, #33554432
  77              	.LVL2:
  78              		.loc 1 76 3 view .LVU17
  79 0034 5360     		str	r3, [r2, #4]
  80              	.LBE4:
  81              		.loc 1 76 3 view .LVU18
  77:Core/Src/stm32f1xx_hal_msp.c **** 
  78:Core/Src/stm32f1xx_hal_msp.c ****   /* USER CODE BEGIN MspInit 1 */
  79:Core/Src/stm32f1xx_hal_msp.c **** 
  80:Core/Src/stm32f1xx_hal_msp.c ****   /* USER CODE END MspInit 1 */
  81:Core/Src/stm32f1xx_hal_msp.c **** }
  82              		.loc 1 81 1 is_stmt 0 view .LVU19
  83 0036 02B0     		add	sp, sp, #8
  84              	.LCFI1:
  85              		.cfi_def_cfa_offset 0
  86              		@ sp needed
  87 0038 7047     		bx	lr
  88              	.L4:
  89 003a 00BF     		.align	2
  90              	.L3:
  91 003c 00100240 		.word	1073876992
ARM GAS  C:\Users\BLACK_~1\AppData\Local\Temp\cci6O7Le.s 			page 4


  92 0040 00000140 		.word	1073807360
  93              		.cfi_endproc
  94              	.LFE65:
  96              		.section	.text.HAL_TIM_Base_MspInit,"ax",%progbits
  97              		.align	1
  98              		.global	HAL_TIM_Base_MspInit
  99              		.syntax unified
 100              		.thumb
 101              		.thumb_func
 103              	HAL_TIM_Base_MspInit:
 104              	.LVL3:
 105              	.LFB66:
  82:Core/Src/stm32f1xx_hal_msp.c **** 
  83:Core/Src/stm32f1xx_hal_msp.c **** /**
  84:Core/Src/stm32f1xx_hal_msp.c **** * @brief TIM_Base MSP Initialization
  85:Core/Src/stm32f1xx_hal_msp.c **** * This function configures the hardware resources used in this example
  86:Core/Src/stm32f1xx_hal_msp.c **** * @param htim_base: TIM_Base handle pointer
  87:Core/Src/stm32f1xx_hal_msp.c **** * @retval None
  88:Core/Src/stm32f1xx_hal_msp.c **** */
  89:Core/Src/stm32f1xx_hal_msp.c **** void HAL_TIM_Base_MspInit(TIM_HandleTypeDef* htim_base)
  90:Core/Src/stm32f1xx_hal_msp.c **** {
 106              		.loc 1 90 1 is_stmt 1 view -0
 107              		.cfi_startproc
 108              		@ args = 0, pretend = 0, frame = 8
 109              		@ frame_needed = 0, uses_anonymous_args = 0
  91:Core/Src/stm32f1xx_hal_msp.c ****   if(htim_base->Instance==TIM3)
 110              		.loc 1 91 3 view .LVU21
 111              		.loc 1 91 15 is_stmt 0 view .LVU22
 112 0000 0268     		ldr	r2, [r0]
 113              		.loc 1 91 5 view .LVU23
 114 0002 0E4B     		ldr	r3, .L12
 115 0004 9A42     		cmp	r2, r3
 116 0006 00D0     		beq	.L11
 117 0008 7047     		bx	lr
 118              	.L11:
  90:Core/Src/stm32f1xx_hal_msp.c ****   if(htim_base->Instance==TIM3)
 119              		.loc 1 90 1 view .LVU24
 120 000a 00B5     		push	{lr}
 121              	.LCFI2:
 122              		.cfi_def_cfa_offset 4
 123              		.cfi_offset 14, -4
 124 000c 83B0     		sub	sp, sp, #12
 125              	.LCFI3:
 126              		.cfi_def_cfa_offset 16
  92:Core/Src/stm32f1xx_hal_msp.c ****   {
  93:Core/Src/stm32f1xx_hal_msp.c ****   /* USER CODE BEGIN TIM3_MspInit 0 */
  94:Core/Src/stm32f1xx_hal_msp.c **** 
  95:Core/Src/stm32f1xx_hal_msp.c ****   /* USER CODE END TIM3_MspInit 0 */
  96:Core/Src/stm32f1xx_hal_msp.c ****     /* Peripheral clock enable */
  97:Core/Src/stm32f1xx_hal_msp.c ****     __HAL_RCC_TIM3_CLK_ENABLE();
 127              		.loc 1 97 5 is_stmt 1 view .LVU25
 128              	.LBB5:
 129              		.loc 1 97 5 view .LVU26
 130              		.loc 1 97 5 view .LVU27
 131 000e 03F50333 		add	r3, r3, #134144
 132 0012 DA69     		ldr	r2, [r3, #28]
 133 0014 42F00202 		orr	r2, r2, #2
ARM GAS  C:\Users\BLACK_~1\AppData\Local\Temp\cci6O7Le.s 			page 5


 134 0018 DA61     		str	r2, [r3, #28]
 135              		.loc 1 97 5 view .LVU28
 136 001a DB69     		ldr	r3, [r3, #28]
 137 001c 03F00203 		and	r3, r3, #2
 138 0020 0193     		str	r3, [sp, #4]
 139              		.loc 1 97 5 view .LVU29
 140 0022 019B     		ldr	r3, [sp, #4]
 141              	.LBE5:
 142              		.loc 1 97 5 view .LVU30
  98:Core/Src/stm32f1xx_hal_msp.c ****     /* TIM3 interrupt Init */
  99:Core/Src/stm32f1xx_hal_msp.c ****     HAL_NVIC_SetPriority(TIM3_IRQn, 0, 0);
 143              		.loc 1 99 5 view .LVU31
 144 0024 0022     		movs	r2, #0
 145 0026 1146     		mov	r1, r2
 146 0028 1D20     		movs	r0, #29
 147              	.LVL4:
 148              		.loc 1 99 5 is_stmt 0 view .LVU32
 149 002a FFF7FEFF 		bl	HAL_NVIC_SetPriority
 150              	.LVL5:
 100:Core/Src/stm32f1xx_hal_msp.c ****     HAL_NVIC_EnableIRQ(TIM3_IRQn);
 151              		.loc 1 100 5 is_stmt 1 view .LVU33
 152 002e 1D20     		movs	r0, #29
 153 0030 FFF7FEFF 		bl	HAL_NVIC_EnableIRQ
 154              	.LVL6:
 101:Core/Src/stm32f1xx_hal_msp.c ****   /* USER CODE BEGIN TIM3_MspInit 1 */
 102:Core/Src/stm32f1xx_hal_msp.c **** 
 103:Core/Src/stm32f1xx_hal_msp.c ****   /* USER CODE END TIM3_MspInit 1 */
 104:Core/Src/stm32f1xx_hal_msp.c ****   }
 105:Core/Src/stm32f1xx_hal_msp.c **** 
 106:Core/Src/stm32f1xx_hal_msp.c **** }
 155              		.loc 1 106 1 is_stmt 0 view .LVU34
 156 0034 03B0     		add	sp, sp, #12
 157              	.LCFI4:
 158              		.cfi_def_cfa_offset 4
 159              		@ sp needed
 160 0036 5DF804FB 		ldr	pc, [sp], #4
 161              	.L13:
 162 003a 00BF     		.align	2
 163              	.L12:
 164 003c 00040040 		.word	1073742848
 165              		.cfi_endproc
 166              	.LFE66:
 168              		.section	.text.HAL_TIM_Base_MspDeInit,"ax",%progbits
 169              		.align	1
 170              		.global	HAL_TIM_Base_MspDeInit
 171              		.syntax unified
 172              		.thumb
 173              		.thumb_func
 175              	HAL_TIM_Base_MspDeInit:
 176              	.LVL7:
 177              	.LFB67:
 107:Core/Src/stm32f1xx_hal_msp.c **** 
 108:Core/Src/stm32f1xx_hal_msp.c **** /**
 109:Core/Src/stm32f1xx_hal_msp.c **** * @brief TIM_Base MSP De-Initialization
 110:Core/Src/stm32f1xx_hal_msp.c **** * This function freeze the hardware resources used in this example
 111:Core/Src/stm32f1xx_hal_msp.c **** * @param htim_base: TIM_Base handle pointer
 112:Core/Src/stm32f1xx_hal_msp.c **** * @retval None
ARM GAS  C:\Users\BLACK_~1\AppData\Local\Temp\cci6O7Le.s 			page 6


 113:Core/Src/stm32f1xx_hal_msp.c **** */
 114:Core/Src/stm32f1xx_hal_msp.c **** void HAL_TIM_Base_MspDeInit(TIM_HandleTypeDef* htim_base)
 115:Core/Src/stm32f1xx_hal_msp.c **** {
 178              		.loc 1 115 1 is_stmt 1 view -0
 179              		.cfi_startproc
 180              		@ args = 0, pretend = 0, frame = 0
 181              		@ frame_needed = 0, uses_anonymous_args = 0
 182              		.loc 1 115 1 is_stmt 0 view .LVU36
 183 0000 08B5     		push	{r3, lr}
 184              	.LCFI5:
 185              		.cfi_def_cfa_offset 8
 186              		.cfi_offset 3, -8
 187              		.cfi_offset 14, -4
 116:Core/Src/stm32f1xx_hal_msp.c ****   if(htim_base->Instance==TIM3)
 188              		.loc 1 116 3 is_stmt 1 view .LVU37
 189              		.loc 1 116 15 is_stmt 0 view .LVU38
 190 0002 0268     		ldr	r2, [r0]
 191              		.loc 1 116 5 view .LVU39
 192 0004 064B     		ldr	r3, .L18
 193 0006 9A42     		cmp	r2, r3
 194 0008 00D0     		beq	.L17
 195              	.LVL8:
 196              	.L14:
 117:Core/Src/stm32f1xx_hal_msp.c ****   {
 118:Core/Src/stm32f1xx_hal_msp.c ****   /* USER CODE BEGIN TIM3_MspDeInit 0 */
 119:Core/Src/stm32f1xx_hal_msp.c **** 
 120:Core/Src/stm32f1xx_hal_msp.c ****   /* USER CODE END TIM3_MspDeInit 0 */
 121:Core/Src/stm32f1xx_hal_msp.c ****     /* Peripheral clock disable */
 122:Core/Src/stm32f1xx_hal_msp.c ****     __HAL_RCC_TIM3_CLK_DISABLE();
 123:Core/Src/stm32f1xx_hal_msp.c **** 
 124:Core/Src/stm32f1xx_hal_msp.c ****     /* TIM3 interrupt DeInit */
 125:Core/Src/stm32f1xx_hal_msp.c ****     HAL_NVIC_DisableIRQ(TIM3_IRQn);
 126:Core/Src/stm32f1xx_hal_msp.c ****   /* USER CODE BEGIN TIM3_MspDeInit 1 */
 127:Core/Src/stm32f1xx_hal_msp.c **** 
 128:Core/Src/stm32f1xx_hal_msp.c ****   /* USER CODE END TIM3_MspDeInit 1 */
 129:Core/Src/stm32f1xx_hal_msp.c ****   }
 130:Core/Src/stm32f1xx_hal_msp.c **** 
 131:Core/Src/stm32f1xx_hal_msp.c **** }
 197              		.loc 1 131 1 view .LVU40
 198 000a 08BD     		pop	{r3, pc}
 199              	.LVL9:
 200              	.L17:
 122:Core/Src/stm32f1xx_hal_msp.c **** 
 201              		.loc 1 122 5 is_stmt 1 view .LVU41
 202 000c 054A     		ldr	r2, .L18+4
 203 000e D369     		ldr	r3, [r2, #28]
 204 0010 23F00203 		bic	r3, r3, #2
 205 0014 D361     		str	r3, [r2, #28]
 125:Core/Src/stm32f1xx_hal_msp.c ****   /* USER CODE BEGIN TIM3_MspDeInit 1 */
 206              		.loc 1 125 5 view .LVU42
 207 0016 1D20     		movs	r0, #29
 208              	.LVL10:
 125:Core/Src/stm32f1xx_hal_msp.c ****   /* USER CODE BEGIN TIM3_MspDeInit 1 */
 209              		.loc 1 125 5 is_stmt 0 view .LVU43
 210 0018 FFF7FEFF 		bl	HAL_NVIC_DisableIRQ
 211              	.LVL11:
 212              		.loc 1 131 1 view .LVU44
ARM GAS  C:\Users\BLACK_~1\AppData\Local\Temp\cci6O7Le.s 			page 7


 213 001c F5E7     		b	.L14
 214              	.L19:
 215 001e 00BF     		.align	2
 216              	.L18:
 217 0020 00040040 		.word	1073742848
 218 0024 00100240 		.word	1073876992
 219              		.cfi_endproc
 220              	.LFE67:
 222              		.section	.text.HAL_UART_MspInit,"ax",%progbits
 223              		.align	1
 224              		.global	HAL_UART_MspInit
 225              		.syntax unified
 226              		.thumb
 227              		.thumb_func
 229              	HAL_UART_MspInit:
 230              	.LVL12:
 231              	.LFB68:
 132:Core/Src/stm32f1xx_hal_msp.c **** 
 133:Core/Src/stm32f1xx_hal_msp.c **** /**
 134:Core/Src/stm32f1xx_hal_msp.c **** * @brief UART MSP Initialization
 135:Core/Src/stm32f1xx_hal_msp.c **** * This function configures the hardware resources used in this example
 136:Core/Src/stm32f1xx_hal_msp.c **** * @param huart: UART handle pointer
 137:Core/Src/stm32f1xx_hal_msp.c **** * @retval None
 138:Core/Src/stm32f1xx_hal_msp.c **** */
 139:Core/Src/stm32f1xx_hal_msp.c **** void HAL_UART_MspInit(UART_HandleTypeDef* huart)
 140:Core/Src/stm32f1xx_hal_msp.c **** {
 232              		.loc 1 140 1 is_stmt 1 view -0
 233              		.cfi_startproc
 234              		@ args = 0, pretend = 0, frame = 24
 235              		@ frame_needed = 0, uses_anonymous_args = 0
 236              		.loc 1 140 1 is_stmt 0 view .LVU46
 237 0000 30B5     		push	{r4, r5, lr}
 238              	.LCFI6:
 239              		.cfi_def_cfa_offset 12
 240              		.cfi_offset 4, -12
 241              		.cfi_offset 5, -8
 242              		.cfi_offset 14, -4
 243 0002 87B0     		sub	sp, sp, #28
 244              	.LCFI7:
 245              		.cfi_def_cfa_offset 40
 141:Core/Src/stm32f1xx_hal_msp.c ****   GPIO_InitTypeDef GPIO_InitStruct = {0};
 246              		.loc 1 141 3 is_stmt 1 view .LVU47
 247              		.loc 1 141 20 is_stmt 0 view .LVU48
 248 0004 0023     		movs	r3, #0
 249 0006 0293     		str	r3, [sp, #8]
 250 0008 0393     		str	r3, [sp, #12]
 251 000a 0493     		str	r3, [sp, #16]
 252 000c 0593     		str	r3, [sp, #20]
 142:Core/Src/stm32f1xx_hal_msp.c ****   if(huart->Instance==USART2)
 253              		.loc 1 142 3 is_stmt 1 view .LVU49
 254              		.loc 1 142 11 is_stmt 0 view .LVU50
 255 000e 0268     		ldr	r2, [r0]
 256              		.loc 1 142 5 view .LVU51
 257 0010 1B4B     		ldr	r3, .L24
 258 0012 9A42     		cmp	r2, r3
 259 0014 01D0     		beq	.L23
 260              	.LVL13:
ARM GAS  C:\Users\BLACK_~1\AppData\Local\Temp\cci6O7Le.s 			page 8


 261              	.L20:
 143:Core/Src/stm32f1xx_hal_msp.c ****   {
 144:Core/Src/stm32f1xx_hal_msp.c ****   /* USER CODE BEGIN USART2_MspInit 0 */
 145:Core/Src/stm32f1xx_hal_msp.c **** 
 146:Core/Src/stm32f1xx_hal_msp.c ****   /* USER CODE END USART2_MspInit 0 */
 147:Core/Src/stm32f1xx_hal_msp.c ****     /* Peripheral clock enable */
 148:Core/Src/stm32f1xx_hal_msp.c ****     __HAL_RCC_USART2_CLK_ENABLE();
 149:Core/Src/stm32f1xx_hal_msp.c **** 
 150:Core/Src/stm32f1xx_hal_msp.c ****     __HAL_RCC_GPIOA_CLK_ENABLE();
 151:Core/Src/stm32f1xx_hal_msp.c ****     /**USART2 GPIO Configuration
 152:Core/Src/stm32f1xx_hal_msp.c ****     PA2     ------> USART2_TX
 153:Core/Src/stm32f1xx_hal_msp.c ****     PA3     ------> USART2_RX
 154:Core/Src/stm32f1xx_hal_msp.c ****     */
 155:Core/Src/stm32f1xx_hal_msp.c ****     GPIO_InitStruct.Pin = GPIO_PIN_2;
 156:Core/Src/stm32f1xx_hal_msp.c ****     GPIO_InitStruct.Mode = GPIO_MODE_AF_PP;
 157:Core/Src/stm32f1xx_hal_msp.c ****     GPIO_InitStruct.Speed = GPIO_SPEED_FREQ_HIGH;
 158:Core/Src/stm32f1xx_hal_msp.c ****     HAL_GPIO_Init(GPIOA, &GPIO_InitStruct);
 159:Core/Src/stm32f1xx_hal_msp.c **** 
 160:Core/Src/stm32f1xx_hal_msp.c ****     GPIO_InitStruct.Pin = GPIO_PIN_3;
 161:Core/Src/stm32f1xx_hal_msp.c ****     GPIO_InitStruct.Mode = GPIO_MODE_INPUT;
 162:Core/Src/stm32f1xx_hal_msp.c ****     GPIO_InitStruct.Pull = GPIO_NOPULL;
 163:Core/Src/stm32f1xx_hal_msp.c ****     HAL_GPIO_Init(GPIOA, &GPIO_InitStruct);
 164:Core/Src/stm32f1xx_hal_msp.c **** 
 165:Core/Src/stm32f1xx_hal_msp.c ****     /* USART2 interrupt Init */
 166:Core/Src/stm32f1xx_hal_msp.c ****     HAL_NVIC_SetPriority(USART2_IRQn, 0, 0);
 167:Core/Src/stm32f1xx_hal_msp.c ****     HAL_NVIC_EnableIRQ(USART2_IRQn);
 168:Core/Src/stm32f1xx_hal_msp.c ****   /* USER CODE BEGIN USART2_MspInit 1 */
 169:Core/Src/stm32f1xx_hal_msp.c **** 
 170:Core/Src/stm32f1xx_hal_msp.c ****   /* USER CODE END USART2_MspInit 1 */
 171:Core/Src/stm32f1xx_hal_msp.c ****   }
 172:Core/Src/stm32f1xx_hal_msp.c **** 
 173:Core/Src/stm32f1xx_hal_msp.c **** }
 262              		.loc 1 173 1 view .LVU52
 263 0016 07B0     		add	sp, sp, #28
 264              	.LCFI8:
 265              		.cfi_remember_state
 266              		.cfi_def_cfa_offset 12
 267              		@ sp needed
 268 0018 30BD     		pop	{r4, r5, pc}
 269              	.LVL14:
 270              	.L23:
 271              	.LCFI9:
 272              		.cfi_restore_state
 148:Core/Src/stm32f1xx_hal_msp.c **** 
 273              		.loc 1 148 5 is_stmt 1 view .LVU53
 274              	.LBB6:
 148:Core/Src/stm32f1xx_hal_msp.c **** 
 275              		.loc 1 148 5 view .LVU54
 148:Core/Src/stm32f1xx_hal_msp.c **** 
 276              		.loc 1 148 5 view .LVU55
 277 001a 03F5E633 		add	r3, r3, #117760
 278 001e DA69     		ldr	r2, [r3, #28]
 279 0020 42F40032 		orr	r2, r2, #131072
 280 0024 DA61     		str	r2, [r3, #28]
 148:Core/Src/stm32f1xx_hal_msp.c **** 
 281              		.loc 1 148 5 view .LVU56
 282 0026 DA69     		ldr	r2, [r3, #28]
ARM GAS  C:\Users\BLACK_~1\AppData\Local\Temp\cci6O7Le.s 			page 9


 283 0028 02F40032 		and	r2, r2, #131072
 284 002c 0092     		str	r2, [sp]
 148:Core/Src/stm32f1xx_hal_msp.c **** 
 285              		.loc 1 148 5 view .LVU57
 286 002e 009A     		ldr	r2, [sp]
 287              	.LBE6:
 148:Core/Src/stm32f1xx_hal_msp.c **** 
 288              		.loc 1 148 5 view .LVU58
 150:Core/Src/stm32f1xx_hal_msp.c ****     /**USART2 GPIO Configuration
 289              		.loc 1 150 5 view .LVU59
 290              	.LBB7:
 150:Core/Src/stm32f1xx_hal_msp.c ****     /**USART2 GPIO Configuration
 291              		.loc 1 150 5 view .LVU60
 150:Core/Src/stm32f1xx_hal_msp.c ****     /**USART2 GPIO Configuration
 292              		.loc 1 150 5 view .LVU61
 293 0030 9A69     		ldr	r2, [r3, #24]
 294 0032 42F00402 		orr	r2, r2, #4
 295 0036 9A61     		str	r2, [r3, #24]
 150:Core/Src/stm32f1xx_hal_msp.c ****     /**USART2 GPIO Configuration
 296              		.loc 1 150 5 view .LVU62
 297 0038 9B69     		ldr	r3, [r3, #24]
 298 003a 03F00403 		and	r3, r3, #4
 299 003e 0193     		str	r3, [sp, #4]
 150:Core/Src/stm32f1xx_hal_msp.c ****     /**USART2 GPIO Configuration
 300              		.loc 1 150 5 view .LVU63
 301 0040 019B     		ldr	r3, [sp, #4]
 302              	.LBE7:
 150:Core/Src/stm32f1xx_hal_msp.c ****     /**USART2 GPIO Configuration
 303              		.loc 1 150 5 view .LVU64
 155:Core/Src/stm32f1xx_hal_msp.c ****     GPIO_InitStruct.Mode = GPIO_MODE_AF_PP;
 304              		.loc 1 155 5 view .LVU65
 155:Core/Src/stm32f1xx_hal_msp.c ****     GPIO_InitStruct.Mode = GPIO_MODE_AF_PP;
 305              		.loc 1 155 25 is_stmt 0 view .LVU66
 306 0042 0423     		movs	r3, #4
 307 0044 0293     		str	r3, [sp, #8]
 156:Core/Src/stm32f1xx_hal_msp.c ****     GPIO_InitStruct.Speed = GPIO_SPEED_FREQ_HIGH;
 308              		.loc 1 156 5 is_stmt 1 view .LVU67
 156:Core/Src/stm32f1xx_hal_msp.c ****     GPIO_InitStruct.Speed = GPIO_SPEED_FREQ_HIGH;
 309              		.loc 1 156 26 is_stmt 0 view .LVU68
 310 0046 0223     		movs	r3, #2
 311 0048 0393     		str	r3, [sp, #12]
 157:Core/Src/stm32f1xx_hal_msp.c ****     HAL_GPIO_Init(GPIOA, &GPIO_InitStruct);
 312              		.loc 1 157 5 is_stmt 1 view .LVU69
 157:Core/Src/stm32f1xx_hal_msp.c ****     HAL_GPIO_Init(GPIOA, &GPIO_InitStruct);
 313              		.loc 1 157 27 is_stmt 0 view .LVU70
 314 004a 0323     		movs	r3, #3
 315 004c 0593     		str	r3, [sp, #20]
 158:Core/Src/stm32f1xx_hal_msp.c **** 
 316              		.loc 1 158 5 is_stmt 1 view .LVU71
 317 004e 0D4D     		ldr	r5, .L24+4
 318 0050 02A9     		add	r1, sp, #8
 319 0052 2846     		mov	r0, r5
 320              	.LVL15:
 158:Core/Src/stm32f1xx_hal_msp.c **** 
 321              		.loc 1 158 5 is_stmt 0 view .LVU72
 322 0054 FFF7FEFF 		bl	HAL_GPIO_Init
 323              	.LVL16:
ARM GAS  C:\Users\BLACK_~1\AppData\Local\Temp\cci6O7Le.s 			page 10


 160:Core/Src/stm32f1xx_hal_msp.c ****     GPIO_InitStruct.Mode = GPIO_MODE_INPUT;
 324              		.loc 1 160 5 is_stmt 1 view .LVU73
 160:Core/Src/stm32f1xx_hal_msp.c ****     GPIO_InitStruct.Mode = GPIO_MODE_INPUT;
 325              		.loc 1 160 25 is_stmt 0 view .LVU74
 326 0058 0823     		movs	r3, #8
 327 005a 0293     		str	r3, [sp, #8]
 161:Core/Src/stm32f1xx_hal_msp.c ****     GPIO_InitStruct.Pull = GPIO_NOPULL;
 328              		.loc 1 161 5 is_stmt 1 view .LVU75
 161:Core/Src/stm32f1xx_hal_msp.c ****     GPIO_InitStruct.Pull = GPIO_NOPULL;
 329              		.loc 1 161 26 is_stmt 0 view .LVU76
 330 005c 0024     		movs	r4, #0
 331 005e 0394     		str	r4, [sp, #12]
 162:Core/Src/stm32f1xx_hal_msp.c ****     HAL_GPIO_Init(GPIOA, &GPIO_InitStruct);
 332              		.loc 1 162 5 is_stmt 1 view .LVU77
 162:Core/Src/stm32f1xx_hal_msp.c ****     HAL_GPIO_Init(GPIOA, &GPIO_InitStruct);
 333              		.loc 1 162 26 is_stmt 0 view .LVU78
 334 0060 0494     		str	r4, [sp, #16]
 163:Core/Src/stm32f1xx_hal_msp.c **** 
 335              		.loc 1 163 5 is_stmt 1 view .LVU79
 336 0062 0DEB0301 		add	r1, sp, r3
 337 0066 2846     		mov	r0, r5
 338 0068 FFF7FEFF 		bl	HAL_GPIO_Init
 339              	.LVL17:
 166:Core/Src/stm32f1xx_hal_msp.c ****     HAL_NVIC_EnableIRQ(USART2_IRQn);
 340              		.loc 1 166 5 view .LVU80
 341 006c 2246     		mov	r2, r4
 342 006e 2146     		mov	r1, r4
 343 0070 2620     		movs	r0, #38
 344 0072 FFF7FEFF 		bl	HAL_NVIC_SetPriority
 345              	.LVL18:
 167:Core/Src/stm32f1xx_hal_msp.c ****   /* USER CODE BEGIN USART2_MspInit 1 */
 346              		.loc 1 167 5 view .LVU81
 347 0076 2620     		movs	r0, #38
 348 0078 FFF7FEFF 		bl	HAL_NVIC_EnableIRQ
 349              	.LVL19:
 350              		.loc 1 173 1 is_stmt 0 view .LVU82
 351 007c CBE7     		b	.L20
 352              	.L25:
 353 007e 00BF     		.align	2
 354              	.L24:
 355 0080 00440040 		.word	1073759232
 356 0084 00080140 		.word	1073809408
 357              		.cfi_endproc
 358              	.LFE68:
 360              		.section	.text.HAL_UART_MspDeInit,"ax",%progbits
 361              		.align	1
 362              		.global	HAL_UART_MspDeInit
 363              		.syntax unified
 364              		.thumb
 365              		.thumb_func
 367              	HAL_UART_MspDeInit:
 368              	.LVL20:
 369              	.LFB69:
 174:Core/Src/stm32f1xx_hal_msp.c **** 
 175:Core/Src/stm32f1xx_hal_msp.c **** /**
 176:Core/Src/stm32f1xx_hal_msp.c **** * @brief UART MSP De-Initialization
 177:Core/Src/stm32f1xx_hal_msp.c **** * This function freeze the hardware resources used in this example
ARM GAS  C:\Users\BLACK_~1\AppData\Local\Temp\cci6O7Le.s 			page 11


 178:Core/Src/stm32f1xx_hal_msp.c **** * @param huart: UART handle pointer
 179:Core/Src/stm32f1xx_hal_msp.c **** * @retval None
 180:Core/Src/stm32f1xx_hal_msp.c **** */
 181:Core/Src/stm32f1xx_hal_msp.c **** void HAL_UART_MspDeInit(UART_HandleTypeDef* huart)
 182:Core/Src/stm32f1xx_hal_msp.c **** {
 370              		.loc 1 182 1 is_stmt 1 view -0
 371              		.cfi_startproc
 372              		@ args = 0, pretend = 0, frame = 0
 373              		@ frame_needed = 0, uses_anonymous_args = 0
 374              		.loc 1 182 1 is_stmt 0 view .LVU84
 375 0000 08B5     		push	{r3, lr}
 376              	.LCFI10:
 377              		.cfi_def_cfa_offset 8
 378              		.cfi_offset 3, -8
 379              		.cfi_offset 14, -4
 183:Core/Src/stm32f1xx_hal_msp.c ****   if(huart->Instance==USART2)
 380              		.loc 1 183 3 is_stmt 1 view .LVU85
 381              		.loc 1 183 11 is_stmt 0 view .LVU86
 382 0002 0268     		ldr	r2, [r0]
 383              		.loc 1 183 5 view .LVU87
 384 0004 084B     		ldr	r3, .L30
 385 0006 9A42     		cmp	r2, r3
 386 0008 00D0     		beq	.L29
 387              	.LVL21:
 388              	.L26:
 184:Core/Src/stm32f1xx_hal_msp.c ****   {
 185:Core/Src/stm32f1xx_hal_msp.c ****   /* USER CODE BEGIN USART2_MspDeInit 0 */
 186:Core/Src/stm32f1xx_hal_msp.c **** 
 187:Core/Src/stm32f1xx_hal_msp.c ****   /* USER CODE END USART2_MspDeInit 0 */
 188:Core/Src/stm32f1xx_hal_msp.c ****     /* Peripheral clock disable */
 189:Core/Src/stm32f1xx_hal_msp.c ****     __HAL_RCC_USART2_CLK_DISABLE();
 190:Core/Src/stm32f1xx_hal_msp.c **** 
 191:Core/Src/stm32f1xx_hal_msp.c ****     /**USART2 GPIO Configuration
 192:Core/Src/stm32f1xx_hal_msp.c ****     PA2     ------> USART2_TX
 193:Core/Src/stm32f1xx_hal_msp.c ****     PA3     ------> USART2_RX
 194:Core/Src/stm32f1xx_hal_msp.c ****     */
 195:Core/Src/stm32f1xx_hal_msp.c ****     HAL_GPIO_DeInit(GPIOA, GPIO_PIN_2|GPIO_PIN_3);
 196:Core/Src/stm32f1xx_hal_msp.c **** 
 197:Core/Src/stm32f1xx_hal_msp.c ****     /* USART2 interrupt DeInit */
 198:Core/Src/stm32f1xx_hal_msp.c ****     HAL_NVIC_DisableIRQ(USART2_IRQn);
 199:Core/Src/stm32f1xx_hal_msp.c ****   /* USER CODE BEGIN USART2_MspDeInit 1 */
 200:Core/Src/stm32f1xx_hal_msp.c **** 
 201:Core/Src/stm32f1xx_hal_msp.c ****   /* USER CODE END USART2_MspDeInit 1 */
 202:Core/Src/stm32f1xx_hal_msp.c ****   }
 203:Core/Src/stm32f1xx_hal_msp.c **** 
 204:Core/Src/stm32f1xx_hal_msp.c **** }
 389              		.loc 1 204 1 view .LVU88
 390 000a 08BD     		pop	{r3, pc}
 391              	.LVL22:
 392              	.L29:
 189:Core/Src/stm32f1xx_hal_msp.c **** 
 393              		.loc 1 189 5 is_stmt 1 view .LVU89
 394 000c 074A     		ldr	r2, .L30+4
 395 000e D369     		ldr	r3, [r2, #28]
 396 0010 23F40033 		bic	r3, r3, #131072
 397 0014 D361     		str	r3, [r2, #28]
 195:Core/Src/stm32f1xx_hal_msp.c **** 
ARM GAS  C:\Users\BLACK_~1\AppData\Local\Temp\cci6O7Le.s 			page 12


 398              		.loc 1 195 5 view .LVU90
 399 0016 0C21     		movs	r1, #12
 400 0018 0548     		ldr	r0, .L30+8
 401              	.LVL23:
 195:Core/Src/stm32f1xx_hal_msp.c **** 
 402              		.loc 1 195 5 is_stmt 0 view .LVU91
 403 001a FFF7FEFF 		bl	HAL_GPIO_DeInit
 404              	.LVL24:
 198:Core/Src/stm32f1xx_hal_msp.c ****   /* USER CODE BEGIN USART2_MspDeInit 1 */
 405              		.loc 1 198 5 is_stmt 1 view .LVU92
 406 001e 2620     		movs	r0, #38
 407 0020 FFF7FEFF 		bl	HAL_NVIC_DisableIRQ
 408              	.LVL25:
 409              		.loc 1 204 1 is_stmt 0 view .LVU93
 410 0024 F1E7     		b	.L26
 411              	.L31:
 412 0026 00BF     		.align	2
 413              	.L30:
 414 0028 00440040 		.word	1073759232
 415 002c 00100240 		.word	1073876992
 416 0030 00080140 		.word	1073809408
 417              		.cfi_endproc
 418              	.LFE69:
 420              		.text
 421              	.Letext0:
 422              		.file 2 "e:\\gnu arm embedded toolchain\\10 2021.10\\arm-none-eabi\\include\\machine\\_default_typ
 423              		.file 3 "e:\\gnu arm embedded toolchain\\10 2021.10\\arm-none-eabi\\include\\sys\\_stdint.h"
 424              		.file 4 "Drivers/CMSIS/Device/ST/STM32F1xx/Include/stm32f103xe.h"
 425              		.file 5 "Drivers/STM32F1xx_HAL_Driver/Inc/stm32f1xx_hal_def.h"
 426              		.file 6 "Drivers/STM32F1xx_HAL_Driver/Inc/stm32f1xx_hal_gpio.h"
 427              		.file 7 "Drivers/STM32F1xx_HAL_Driver/Inc/stm32f1xx_hal_dma.h"
 428              		.file 8 "Drivers/STM32F1xx_HAL_Driver/Inc/stm32f1xx_hal_tim.h"
 429              		.file 9 "Drivers/STM32F1xx_HAL_Driver/Inc/stm32f1xx_hal_uart.h"
 430              		.file 10 "Drivers/STM32F1xx_HAL_Driver/Inc/stm32f1xx_hal_cortex.h"
ARM GAS  C:\Users\BLACK_~1\AppData\Local\Temp\cci6O7Le.s 			page 13

