ARM GAS  C:\Users\BLACK_~1\AppData\Local\Temp\ccUB2Kvt.s 			page 1


   1              		.cpu cortex-m3
   2              		.arch armv7-m
   3              		.fpu softvfp
   4              		.eabi_attribute 20, 1
   5              		.eabi_attribute 21, 1
   6              		.eabi_attribute 23, 3
   7              		.eabi_attribute 24, 1
   8              		.eabi_attribute 25, 1
   9              		.eabi_attribute 26, 1
  10              		.eabi_attribute 30, 1
  11              		.eabi_attribute 34, 1
  12              		.eabi_attribute 18, 4
  13              		.file	"timeout.c"
  14              		.text
  15              	.Ltext0:
  16              		.cfi_sections	.debug_frame
  17              		.section	.text.TO_SetStatus,"ax",%progbits
  18              		.align	1
  19              		.syntax unified
  20              		.thumb
  21              		.thumb_func
  23              	TO_SetStatus:
  24              	.LVL0:
  25              	.LFB70:
  26              		.file 1 "Core/Src/timeout.c"
   1:Core/Src/timeout.c **** /**
   2:Core/Src/timeout.c ****   ******************************************************************************
   3:Core/Src/timeout.c ****   * @file    timeout.c
   4:Core/Src/timeout.c ****   * @author  DatLe
   5:Core/Src/timeout.c ****   * @version V1.00
   6:Core/Src/timeout.c ****   * @date    27-July-2013
   7:Core/Src/timeout.c ****   * @brief   STM32xx-EVAL abstraction layer. 
   8:Core/Src/timeout.c ****   *          This file should be added to the main application to use the provided
   9:Core/Src/timeout.c ****   *          functions that manage Leds, push-buttons, COM ports and low level 
  10:Core/Src/timeout.c ****   *          HW resources initialization of the different modules available on
  11:Core/Src/timeout.c ****   *          STM32 evaluation boards from STMicroelectronics.
  12:Core/Src/timeout.c ****   ******************************************************************************
  13:Core/Src/timeout.c ****   * @attention
  14:Core/Src/timeout.c ****   *
  15:Core/Src/timeout.c ****   * THE PRESENT FIRMWARE WHICH IS FOR GUIDANCE ONLY AIMS AT PROVIDING CUSTOMERS
  16:Core/Src/timeout.c ****   * WITH CODING INFORMATION REGARDING THEIR PRODUCTS IN ORDER FOR THEM TO SAVE
  17:Core/Src/timeout.c ****   * TIME. AS A RESULT, STMICROELECTRONICS SHALL NOT BE HELD LIABLE FOR ANY
  18:Core/Src/timeout.c ****   * DIRECT, INDIRECT OR CONSEQUENTIAL DAMAGES WITH RESPECT TO ANY CLAIMS ARISING
  19:Core/Src/timeout.c ****   * FROM THE CONTENT OF SUCH FIRMWARE AND/OR THE USE MADE BY CUSTOMERS OF THE
  20:Core/Src/timeout.c ****   * CODING INFORMATION CONTAINED HEREIN IN CONNECTION WITH THEIR PRODUCTS.
  21:Core/Src/timeout.c ****   *
  22:Core/Src/timeout.c ****   * <h2><center>&copy; COPYRIGHT 2011 STMicroelectronics</center></h2>
  23:Core/Src/timeout.c ****   ******************************************************************************  
  24:Core/Src/timeout.c ****   */ 
  25:Core/Src/timeout.c ****   
  26:Core/Src/timeout.c **** /* Includes ------------------------------------------------------------------*/
  27:Core/Src/timeout.c **** #include "timeout.h"
  28:Core/Src/timeout.c **** 
  29:Core/Src/timeout.c **** /** @addtogroup Utilities
  30:Core/Src/timeout.c ****   * @{
  31:Core/Src/timeout.c ****   */ 
  32:Core/Src/timeout.c ****   
ARM GAS  C:\Users\BLACK_~1\AppData\Local\Temp\ccUB2Kvt.s 			page 2


  33:Core/Src/timeout.c **** /** @defgroup STM32_EVAL 
  34:Core/Src/timeout.c ****   * @brief This file provides firmware functions to manage Leds, push-buttons, 
  35:Core/Src/timeout.c ****   *        COM ports and low level HW resources initialization of the different 
  36:Core/Src/timeout.c ****   *        modules available on STM32 Evaluation Boards from STMicroelectronics.
  37:Core/Src/timeout.c ****   * @{
  38:Core/Src/timeout.c ****   */ 
  39:Core/Src/timeout.c **** 
  40:Core/Src/timeout.c **** /** @defgroup STM32_EVAL_Abstraction_Layer
  41:Core/Src/timeout.c ****   * @{
  42:Core/Src/timeout.c ****   */ 
  43:Core/Src/timeout.c ****   
  44:Core/Src/timeout.c **** 
  45:Core/Src/timeout.c **** 
  46:Core/Src/timeout.c **** /** @defgroup STM32_EVAL_Private_TypesDefinitions
  47:Core/Src/timeout.c ****   * @{
  48:Core/Src/timeout.c ****   */ 
  49:Core/Src/timeout.c **** 
  50:Core/Src/timeout.c **** /**
  51:Core/Src/timeout.c ****   * @}
  52:Core/Src/timeout.c ****   */ 
  53:Core/Src/timeout.c **** 
  54:Core/Src/timeout.c **** 
  55:Core/Src/timeout.c **** /** @defgroup STM32_EVAL_Private_Defines
  56:Core/Src/timeout.c ****   * @{
  57:Core/Src/timeout.c ****   */ 
  58:Core/Src/timeout.c **** /**
  59:Core/Src/timeout.c ****   * @}
  60:Core/Src/timeout.c ****   */ 
  61:Core/Src/timeout.c **** 
  62:Core/Src/timeout.c **** 
  63:Core/Src/timeout.c **** /** @defgroup STM32_EVAL_Private_Macros
  64:Core/Src/timeout.c ****   * @{
  65:Core/Src/timeout.c ****   */ 
  66:Core/Src/timeout.c **** /**
  67:Core/Src/timeout.c ****   * @}
  68:Core/Src/timeout.c ****   */ 
  69:Core/Src/timeout.c **** /** @defgroup STM32_EVAL_Exported_Constants
  70:Core/Src/timeout.c ****   * @{
  71:Core/Src/timeout.c ****   */
  72:Core/Src/timeout.c **** 
  73:Core/Src/timeout.c **** 									   
  74:Core/Src/timeout.c **** /**
  75:Core/Src/timeout.c ****   * @}
  76:Core/Src/timeout.c ****   */ 
  77:Core/Src/timeout.c **** 
  78:Core/Src/timeout.c **** 
  79:Core/Src/timeout.c **** /** @defgroup STM32_EVAL_Private_Variables
  80:Core/Src/timeout.c ****   * @{
  81:Core/Src/timeout.c ****   */
  82:Core/Src/timeout.c **** 	
  83:Core/Src/timeout.c **** static uint32_t TO_SysTickCounter;
  84:Core/Src/timeout.c **** 	static void TO_SetStatus(TO_TypeDef *uTO);
  85:Core/Src/timeout.c **** /**
  86:Core/Src/timeout.c ****   * @}
  87:Core/Src/timeout.c ****   */ 
  88:Core/Src/timeout.c **** 
  89:Core/Src/timeout.c **** 
ARM GAS  C:\Users\BLACK_~1\AppData\Local\Temp\ccUB2Kvt.s 			page 3


  90:Core/Src/timeout.c **** /** @defgroup STM32_EVAL_Private_FunctionPrototypes
  91:Core/Src/timeout.c ****   * @{
  92:Core/Src/timeout.c ****   */
  93:Core/Src/timeout.c **** 
  94:Core/Src/timeout.c **** 
  95:Core/Src/timeout.c **** /**
  96:Core/Src/timeout.c ****   * @}
  97:Core/Src/timeout.c ****   */ 
  98:Core/Src/timeout.c **** 
  99:Core/Src/timeout.c **** 
 100:Core/Src/timeout.c **** /** @defgroup STM32_EVAL_Private_Functions
 101:Core/Src/timeout.c ****   * @{
 102:Core/Src/timeout.c ****   */
 103:Core/Src/timeout.c ****   /**
 104:Core/Src/timeout.c ****   * @brief : Initilize Time Out
 105:Core/Src/timeout.c ****   * @param : time out  
 106:Core/Src/timeout.c ****   * @retval : none
 107:Core/Src/timeout.c ****   */
 108:Core/Src/timeout.c **** 	void TO_Init(TO_TypeDef *uTO)
 109:Core/Src/timeout.c **** 	{
 110:Core/Src/timeout.c **** 		uTO->Enable=0;
 111:Core/Src/timeout.c ****     uTO->Time=0;
 112:Core/Src/timeout.c ****     uTO->Status=TO_NOCCUR;
 113:Core/Src/timeout.c **** 	}
 114:Core/Src/timeout.c **** 	
 115:Core/Src/timeout.c ****   /**
 116:Core/Src/timeout.c ****   * @brief : Start the time out 
 117:Core/Src/timeout.c ****   * @param : set time to time out occur
 118:Core/Src/timeout.c ****   *     @arg: setTime
 119:Core/Src/timeout.c ****   * @retval : none
 120:Core/Src/timeout.c ****   */
 121:Core/Src/timeout.c **** 	void TO_Start(TO_TypeDef *uTO,uint32_t setTime)
 122:Core/Src/timeout.c **** 	{
 123:Core/Src/timeout.c **** 		uTO->Enable=1;
 124:Core/Src/timeout.c ****     uTO->Time=setTime;
 125:Core/Src/timeout.c **** 		uTO->CntTaget=setTime+TO_SysTickCounter;
 126:Core/Src/timeout.c **** 	}
 127:Core/Src/timeout.c **** 	
 128:Core/Src/timeout.c ****   /**
 129:Core/Src/timeout.c ****   * @brief : Stop the time out and clear it totally
 130:Core/Src/timeout.c ****   * @param : time out  
 131:Core/Src/timeout.c ****   * @retval : none
 132:Core/Src/timeout.c ****   */
 133:Core/Src/timeout.c **** 	void TO_Stop(TO_TypeDef *uTO)
 134:Core/Src/timeout.c **** 	{
 135:Core/Src/timeout.c **** 		uTO->Enable=0;
 136:Core/Src/timeout.c ****     uTO->Time=0; 
 137:Core/Src/timeout.c ****     uTO->CntTaget=0;
 138:Core/Src/timeout.c **** 	}
 139:Core/Src/timeout.c **** 	
 140:Core/Src/timeout.c ****   /**
 141:Core/Src/timeout.c ****   * @brief : return the time out status
 142:Core/Src/timeout.c ****   * @param : time out  
 143:Core/Src/timeout.c ****   * @retval : time out status
 144:Core/Src/timeout.c ****   *     1: OCCUR
 145:Core/Src/timeout.c ****   *     0: NO_OCCUR
 146:Core/Src/timeout.c ****   */
ARM GAS  C:\Users\BLACK_~1\AppData\Local\Temp\ccUB2Kvt.s 			page 4


 147:Core/Src/timeout.c **** 	TO_StatusTypeDef TO_ReadStatus(TO_TypeDef *uTO)
 148:Core/Src/timeout.c **** 	{
 149:Core/Src/timeout.c **** 		return uTO->Status;
 150:Core/Src/timeout.c **** 	}
 151:Core/Src/timeout.c **** 	
 152:Core/Src/timeout.c ****   /**
 153:Core/Src/timeout.c ****   * @brief : Clear time out status and stop
 154:Core/Src/timeout.c ****   * @param : time out  
 155:Core/Src/timeout.c ****   * @retval : none
 156:Core/Src/timeout.c ****   */
 157:Core/Src/timeout.c ****   void TO_ClearStatus(TO_TypeDef *uTO)
 158:Core/Src/timeout.c **** 	{
 159:Core/Src/timeout.c **** 		uTO->Status=TO_NOCCUR;
 160:Core/Src/timeout.c ****     TO_Stop(uTO);
 161:Core/Src/timeout.c **** 	}
 162:Core/Src/timeout.c ****   
 163:Core/Src/timeout.c ****   /**
 164:Core/Src/timeout.c ****   * @brief : Set time out status
 165:Core/Src/timeout.c ****   * @param : time out  
 166:Core/Src/timeout.c ****   * @retval : none
 167:Core/Src/timeout.c ****   */
 168:Core/Src/timeout.c **** 	static void TO_SetStatus(TO_TypeDef *uTO)
 169:Core/Src/timeout.c **** 	{
  27              		.loc 1 169 2 view -0
  28              		.cfi_startproc
  29              		@ args = 0, pretend = 0, frame = 0
  30              		@ frame_needed = 0, uses_anonymous_args = 0
  31              		@ link register save eliminated.
 170:Core/Src/timeout.c **** 		uTO->Status=TO_OCCUR;
  32              		.loc 1 170 3 view .LVU1
  33              		.loc 1 170 14 is_stmt 0 view .LVU2
  34 0000 0123     		movs	r3, #1
  35 0002 0370     		strb	r3, [r0]
 171:Core/Src/timeout.c **** 	}
  36              		.loc 1 171 2 view .LVU3
  37 0004 7047     		bx	lr
  38              		.cfi_endproc
  39              	.LFE70:
  41              		.section	.text.TO_Init,"ax",%progbits
  42              		.align	1
  43              		.global	TO_Init
  44              		.syntax unified
  45              		.thumb
  46              		.thumb_func
  48              	TO_Init:
  49              	.LVL1:
  50              	.LFB65:
 109:Core/Src/timeout.c **** 		uTO->Enable=0;
  51              		.loc 1 109 2 is_stmt 1 view -0
  52              		.cfi_startproc
  53              		@ args = 0, pretend = 0, frame = 0
  54              		@ frame_needed = 0, uses_anonymous_args = 0
  55              		@ link register save eliminated.
 110:Core/Src/timeout.c ****     uTO->Time=0;
  56              		.loc 1 110 3 view .LVU5
 110:Core/Src/timeout.c ****     uTO->Time=0;
  57              		.loc 1 110 14 is_stmt 0 view .LVU6
ARM GAS  C:\Users\BLACK_~1\AppData\Local\Temp\ccUB2Kvt.s 			page 5


  58 0000 0023     		movs	r3, #0
  59 0002 4370     		strb	r3, [r0, #1]
 111:Core/Src/timeout.c ****     uTO->Status=TO_NOCCUR;
  60              		.loc 1 111 5 is_stmt 1 view .LVU7
 111:Core/Src/timeout.c ****     uTO->Status=TO_NOCCUR;
  61              		.loc 1 111 14 is_stmt 0 view .LVU8
  62 0004 4360     		str	r3, [r0, #4]
 112:Core/Src/timeout.c **** 	}
  63              		.loc 1 112 5 is_stmt 1 view .LVU9
 112:Core/Src/timeout.c **** 	}
  64              		.loc 1 112 16 is_stmt 0 view .LVU10
  65 0006 0370     		strb	r3, [r0]
 113:Core/Src/timeout.c **** 	
  66              		.loc 1 113 2 view .LVU11
  67 0008 7047     		bx	lr
  68              		.cfi_endproc
  69              	.LFE65:
  71              		.section	.text.TO_Start,"ax",%progbits
  72              		.align	1
  73              		.global	TO_Start
  74              		.syntax unified
  75              		.thumb
  76              		.thumb_func
  78              	TO_Start:
  79              	.LVL2:
  80              	.LFB66:
 122:Core/Src/timeout.c **** 		uTO->Enable=1;
  81              		.loc 1 122 2 is_stmt 1 view -0
  82              		.cfi_startproc
  83              		@ args = 0, pretend = 0, frame = 0
  84              		@ frame_needed = 0, uses_anonymous_args = 0
  85              		@ link register save eliminated.
 123:Core/Src/timeout.c ****     uTO->Time=setTime;
  86              		.loc 1 123 3 view .LVU13
 123:Core/Src/timeout.c ****     uTO->Time=setTime;
  87              		.loc 1 123 14 is_stmt 0 view .LVU14
  88 0000 0123     		movs	r3, #1
  89 0002 4370     		strb	r3, [r0, #1]
 124:Core/Src/timeout.c **** 		uTO->CntTaget=setTime+TO_SysTickCounter;
  90              		.loc 1 124 5 is_stmt 1 view .LVU15
 124:Core/Src/timeout.c **** 		uTO->CntTaget=setTime+TO_SysTickCounter;
  91              		.loc 1 124 14 is_stmt 0 view .LVU16
  92 0004 4160     		str	r1, [r0, #4]
 125:Core/Src/timeout.c **** 	}
  93              		.loc 1 125 3 is_stmt 1 view .LVU17
 125:Core/Src/timeout.c **** 	}
  94              		.loc 1 125 24 is_stmt 0 view .LVU18
  95 0006 024B     		ldr	r3, .L4
  96 0008 1B68     		ldr	r3, [r3]
  97 000a 1944     		add	r1, r1, r3
  98              	.LVL3:
 125:Core/Src/timeout.c **** 	}
  99              		.loc 1 125 16 view .LVU19
 100 000c 8160     		str	r1, [r0, #8]
 126:Core/Src/timeout.c **** 	
 101              		.loc 1 126 2 view .LVU20
 102 000e 7047     		bx	lr
ARM GAS  C:\Users\BLACK_~1\AppData\Local\Temp\ccUB2Kvt.s 			page 6


 103              	.L5:
 104              		.align	2
 105              	.L4:
 106 0010 00000000 		.word	.LANCHOR0
 107              		.cfi_endproc
 108              	.LFE66:
 110              		.section	.text.TO_Stop,"ax",%progbits
 111              		.align	1
 112              		.global	TO_Stop
 113              		.syntax unified
 114              		.thumb
 115              		.thumb_func
 117              	TO_Stop:
 118              	.LVL4:
 119              	.LFB67:
 134:Core/Src/timeout.c **** 		uTO->Enable=0;
 120              		.loc 1 134 2 is_stmt 1 view -0
 121              		.cfi_startproc
 122              		@ args = 0, pretend = 0, frame = 0
 123              		@ frame_needed = 0, uses_anonymous_args = 0
 124              		@ link register save eliminated.
 135:Core/Src/timeout.c ****     uTO->Time=0; 
 125              		.loc 1 135 3 view .LVU22
 135:Core/Src/timeout.c ****     uTO->Time=0; 
 126              		.loc 1 135 14 is_stmt 0 view .LVU23
 127 0000 0023     		movs	r3, #0
 128 0002 4370     		strb	r3, [r0, #1]
 136:Core/Src/timeout.c ****     uTO->CntTaget=0;
 129              		.loc 1 136 5 is_stmt 1 view .LVU24
 136:Core/Src/timeout.c ****     uTO->CntTaget=0;
 130              		.loc 1 136 14 is_stmt 0 view .LVU25
 131 0004 4360     		str	r3, [r0, #4]
 137:Core/Src/timeout.c **** 	}
 132              		.loc 1 137 5 is_stmt 1 view .LVU26
 137:Core/Src/timeout.c **** 	}
 133              		.loc 1 137 18 is_stmt 0 view .LVU27
 134 0006 8360     		str	r3, [r0, #8]
 138:Core/Src/timeout.c **** 	
 135              		.loc 1 138 2 view .LVU28
 136 0008 7047     		bx	lr
 137              		.cfi_endproc
 138              	.LFE67:
 140              		.section	.text.TO_ReadStatus,"ax",%progbits
 141              		.align	1
 142              		.global	TO_ReadStatus
 143              		.syntax unified
 144              		.thumb
 145              		.thumb_func
 147              	TO_ReadStatus:
 148              	.LVL5:
 149              	.LFB68:
 148:Core/Src/timeout.c **** 		return uTO->Status;
 150              		.loc 1 148 2 is_stmt 1 view -0
 151              		.cfi_startproc
 152              		@ args = 0, pretend = 0, frame = 0
 153              		@ frame_needed = 0, uses_anonymous_args = 0
 154              		@ link register save eliminated.
ARM GAS  C:\Users\BLACK_~1\AppData\Local\Temp\ccUB2Kvt.s 			page 7


 149:Core/Src/timeout.c **** 	}
 155              		.loc 1 149 3 view .LVU30
 150:Core/Src/timeout.c **** 	
 156              		.loc 1 150 2 is_stmt 0 view .LVU31
 157 0000 0078     		ldrb	r0, [r0]	@ zero_extendqisi2
 158              	.LVL6:
 150:Core/Src/timeout.c **** 	
 159              		.loc 1 150 2 view .LVU32
 160 0002 7047     		bx	lr
 161              		.cfi_endproc
 162              	.LFE68:
 164              		.section	.text.TO_ClearStatus,"ax",%progbits
 165              		.align	1
 166              		.global	TO_ClearStatus
 167              		.syntax unified
 168              		.thumb
 169              		.thumb_func
 171              	TO_ClearStatus:
 172              	.LVL7:
 173              	.LFB69:
 158:Core/Src/timeout.c **** 		uTO->Status=TO_NOCCUR;
 174              		.loc 1 158 2 is_stmt 1 view -0
 175              		.cfi_startproc
 176              		@ args = 0, pretend = 0, frame = 0
 177              		@ frame_needed = 0, uses_anonymous_args = 0
 158:Core/Src/timeout.c **** 		uTO->Status=TO_NOCCUR;
 178              		.loc 1 158 2 is_stmt 0 view .LVU34
 179 0000 08B5     		push	{r3, lr}
 180              	.LCFI0:
 181              		.cfi_def_cfa_offset 8
 182              		.cfi_offset 3, -8
 183              		.cfi_offset 14, -4
 159:Core/Src/timeout.c ****     TO_Stop(uTO);
 184              		.loc 1 159 3 is_stmt 1 view .LVU35
 159:Core/Src/timeout.c ****     TO_Stop(uTO);
 185              		.loc 1 159 14 is_stmt 0 view .LVU36
 186 0002 0022     		movs	r2, #0
 187 0004 0270     		strb	r2, [r0]
 160:Core/Src/timeout.c **** 	}
 188              		.loc 1 160 5 is_stmt 1 view .LVU37
 189 0006 FFF7FEFF 		bl	TO_Stop
 190              	.LVL8:
 161:Core/Src/timeout.c ****   
 191              		.loc 1 161 2 is_stmt 0 view .LVU38
 192 000a 08BD     		pop	{r3, pc}
 193              		.cfi_endproc
 194              	.LFE69:
 196              		.section	.text.TO_Reset,"ax",%progbits
 197              		.align	1
 198              		.global	TO_Reset
 199              		.syntax unified
 200              		.thumb
 201              		.thumb_func
 203              	TO_Reset:
 204              	.LVL9:
 205              	.LFB71:
 172:Core/Src/timeout.c **** 	
ARM GAS  C:\Users\BLACK_~1\AppData\Local\Temp\ccUB2Kvt.s 			page 8


 173:Core/Src/timeout.c ****   /**
 174:Core/Src/timeout.c ****   * @brief : Reset time out 
 175:Core/Src/timeout.c ****   * @param : time out  
 176:Core/Src/timeout.c ****   * @retval : none
 177:Core/Src/timeout.c ****   */
 178:Core/Src/timeout.c **** 	void TO_Reset(TO_TypeDef *uTO)
 179:Core/Src/timeout.c **** 	{
 206              		.loc 1 179 2 is_stmt 1 view -0
 207              		.cfi_startproc
 208              		@ args = 0, pretend = 0, frame = 0
 209              		@ frame_needed = 0, uses_anonymous_args = 0
 210              		@ link register save eliminated.
 180:Core/Src/timeout.c **** 		uTO->Enable=0;
 211              		.loc 1 180 3 view .LVU40
 212              		.loc 1 180 14 is_stmt 0 view .LVU41
 213 0000 0023     		movs	r3, #0
 214 0002 4370     		strb	r3, [r0, #1]
 181:Core/Src/timeout.c ****     uTO->Time=0;
 215              		.loc 1 181 5 is_stmt 1 view .LVU42
 216              		.loc 1 181 14 is_stmt 0 view .LVU43
 217 0004 4360     		str	r3, [r0, #4]
 182:Core/Src/timeout.c ****     uTO->Status=TO_NOCCUR;
 218              		.loc 1 182 5 is_stmt 1 view .LVU44
 219              		.loc 1 182 16 is_stmt 0 view .LVU45
 220 0006 0370     		strb	r3, [r0]
 183:Core/Src/timeout.c **** 		uTO->CntTaget=0;
 221              		.loc 1 183 3 is_stmt 1 view .LVU46
 222              		.loc 1 183 16 is_stmt 0 view .LVU47
 223 0008 8360     		str	r3, [r0, #8]
 184:Core/Src/timeout.c **** 	}
 224              		.loc 1 184 2 view .LVU48
 225 000a 7047     		bx	lr
 226              		.cfi_endproc
 227              	.LFE71:
 229              		.section	.text.TO_ISR,"ax",%progbits
 230              		.align	1
 231              		.global	TO_ISR
 232              		.syntax unified
 233              		.thumb
 234              		.thumb_func
 236              	TO_ISR:
 237              	.LFB72:
 185:Core/Src/timeout.c **** 	
 186:Core/Src/timeout.c ****   /**
 187:Core/Src/timeout.c ****   * @brief : time out ISR handle, it is placed in Sys Tick ISR
 188:Core/Src/timeout.c ****   * @param : none  
 189:Core/Src/timeout.c ****   * @retval : none
 190:Core/Src/timeout.c ****   */
 191:Core/Src/timeout.c **** 	void TO_ISR(void)
 192:Core/Src/timeout.c **** 	{
 238              		.loc 1 192 2 is_stmt 1 view -0
 239              		.cfi_startproc
 240              		@ args = 0, pretend = 0, frame = 0
 241              		@ frame_needed = 0, uses_anonymous_args = 0
 242              		@ link register save eliminated.
 193:Core/Src/timeout.c **** 		TO_SysTickCounter++;
 243              		.loc 1 193 3 view .LVU50
ARM GAS  C:\Users\BLACK_~1\AppData\Local\Temp\ccUB2Kvt.s 			page 9


 244              		.loc 1 193 20 is_stmt 0 view .LVU51
 245 0000 024A     		ldr	r2, .L12
 246 0002 1368     		ldr	r3, [r2]
 247 0004 0133     		adds	r3, r3, #1
 248 0006 1360     		str	r3, [r2]
 194:Core/Src/timeout.c **** 	}
 249              		.loc 1 194 2 view .LVU52
 250 0008 7047     		bx	lr
 251              	.L13:
 252 000a 00BF     		.align	2
 253              	.L12:
 254 000c 00000000 		.word	.LANCHOR0
 255              		.cfi_endproc
 256              	.LFE72:
 258              		.section	.text.TO_Task,"ax",%progbits
 259              		.align	1
 260              		.global	TO_Task
 261              		.syntax unified
 262              		.thumb
 263              		.thumb_func
 265              	TO_Task:
 266              	.LVL10:
 267              	.LFB73:
 195:Core/Src/timeout.c ****   
 196:Core/Src/timeout.c ****   /**
 197:Core/Src/timeout.c ****   * @brief : Back ground time out task, check time out is occured or not?
 198:Core/Src/timeout.c ****   * @param : time out need to check  
 199:Core/Src/timeout.c ****   * @retval : none
 200:Core/Src/timeout.c ****   */
 201:Core/Src/timeout.c **** 	void TO_Task(TO_TypeDef *uTO)
 202:Core/Src/timeout.c **** 	{
 268              		.loc 1 202 2 is_stmt 1 view -0
 269              		.cfi_startproc
 270              		@ args = 0, pretend = 0, frame = 0
 271              		@ frame_needed = 0, uses_anonymous_args = 0
 203:Core/Src/timeout.c ****     if(uTO->Enable)
 272              		.loc 1 203 5 view .LVU54
 273              		.loc 1 203 11 is_stmt 0 view .LVU55
 274 0000 4378     		ldrb	r3, [r0, #1]	@ zero_extendqisi2
 275              		.loc 1 203 7 view .LVU56
 276 0002 7BB1     		cbz	r3, .L17
 202:Core/Src/timeout.c ****     if(uTO->Enable)
 277              		.loc 1 202 2 view .LVU57
 278 0004 10B5     		push	{r4, lr}
 279              	.LCFI1:
 280              		.cfi_def_cfa_offset 8
 281              		.cfi_offset 4, -8
 282              		.cfi_offset 14, -4
 283 0006 0446     		mov	r4, r0
 204:Core/Src/timeout.c ****     {
 205:Core/Src/timeout.c **** 
 206:Core/Src/timeout.c ****       if(!((uTO->CntTaget-TO_SysTickCounter)<=uTO->Time))
 284              		.loc 1 206 7 is_stmt 1 view .LVU58
 285              		.loc 1 206 16 is_stmt 0 view .LVU59
 286 0008 8368     		ldr	r3, [r0, #8]
 287              		.loc 1 206 26 view .LVU60
 288 000a 074A     		ldr	r2, .L21
ARM GAS  C:\Users\BLACK_~1\AppData\Local\Temp\ccUB2Kvt.s 			page 10


 289 000c 1268     		ldr	r2, [r2]
 290 000e 9B1A     		subs	r3, r3, r2
 291              		.loc 1 206 50 view .LVU61
 292 0010 4268     		ldr	r2, [r0, #4]
 293              		.loc 1 206 9 view .LVU62
 294 0012 9342     		cmp	r3, r2
 295 0014 00D8     		bhi	.L20
 296              	.LVL11:
 297              	.L14:
 207:Core/Src/timeout.c ****       {
 208:Core/Src/timeout.c ****         TO_Stop(uTO);
 209:Core/Src/timeout.c ****         TO_SetStatus(uTO);	
 210:Core/Src/timeout.c ****       }
 211:Core/Src/timeout.c ****     }
 212:Core/Src/timeout.c **** 	}
 298              		.loc 1 212 2 view .LVU63
 299 0016 10BD     		pop	{r4, pc}
 300              	.LVL12:
 301              	.L20:
 208:Core/Src/timeout.c ****         TO_SetStatus(uTO);	
 302              		.loc 1 208 9 is_stmt 1 view .LVU64
 303 0018 FFF7FEFF 		bl	TO_Stop
 304              	.LVL13:
 209:Core/Src/timeout.c ****       }
 305              		.loc 1 209 9 view .LVU65
 306 001c 2046     		mov	r0, r4
 307 001e FFF7FEFF 		bl	TO_SetStatus
 308              	.LVL14:
 309              		.loc 1 212 2 is_stmt 0 view .LVU66
 310 0022 F8E7     		b	.L14
 311              	.LVL15:
 312              	.L17:
 313              	.LCFI2:
 314              		.cfi_def_cfa_offset 0
 315              		.cfi_restore 4
 316              		.cfi_restore 14
 317              		.loc 1 212 2 view .LVU67
 318 0024 7047     		bx	lr
 319              	.L22:
 320 0026 00BF     		.align	2
 321              	.L21:
 322 0028 00000000 		.word	.LANCHOR0
 323              		.cfi_endproc
 324              	.LFE73:
 326              		.section	.text.TO_GetCurrentTime,"ax",%progbits
 327              		.align	1
 328              		.global	TO_GetCurrentTime
 329              		.syntax unified
 330              		.thumb
 331              		.thumb_func
 333              	TO_GetCurrentTime:
 334              	.LFB74:
 213:Core/Src/timeout.c ****   
 214:Core/Src/timeout.c ****   
 215:Core/Src/timeout.c ****   /**
 216:Core/Src/timeout.c ****   * @brief : Get current time
 217:Core/Src/timeout.c ****   * @param : none  
ARM GAS  C:\Users\BLACK_~1\AppData\Local\Temp\ccUB2Kvt.s 			page 11


 218:Core/Src/timeout.c ****   * @retval : current time
 219:Core/Src/timeout.c ****   */
 220:Core/Src/timeout.c ****   uint32_t TO_GetCurrentTime(void)
 221:Core/Src/timeout.c ****   {
 335              		.loc 1 221 3 is_stmt 1 view -0
 336              		.cfi_startproc
 337              		@ args = 0, pretend = 0, frame = 0
 338              		@ frame_needed = 0, uses_anonymous_args = 0
 339              		@ link register save eliminated.
 222:Core/Src/timeout.c ****     return TO_SysTickCounter;
 340              		.loc 1 222 5 view .LVU69
 223:Core/Src/timeout.c ****   }
 341              		.loc 1 223 3 is_stmt 0 view .LVU70
 342 0000 014B     		ldr	r3, .L24
 343 0002 1868     		ldr	r0, [r3]
 344 0004 7047     		bx	lr
 345              	.L25:
 346 0006 00BF     		.align	2
 347              	.L24:
 348 0008 00000000 		.word	.LANCHOR0
 349              		.cfi_endproc
 350              	.LFE74:
 352              		.section	.bss.TO_SysTickCounter,"aw",%nobits
 353              		.align	2
 354              		.set	.LANCHOR0,. + 0
 357              	TO_SysTickCounter:
 358 0000 00000000 		.space	4
 359              		.text
 360              	.Letext0:
 361              		.file 2 "e:\\gnu arm embedded toolchain\\10 2021.10\\arm-none-eabi\\include\\machine\\_default_typ
 362              		.file 3 "e:\\gnu arm embedded toolchain\\10 2021.10\\arm-none-eabi\\include\\sys\\_stdint.h"
 363              		.file 4 "Core/Inc/timeout.h"
ARM GAS  C:\Users\BLACK_~1\AppData\Local\Temp\ccUB2Kvt.s 			page 12

