ARM GAS  /tmp/ccVKyOYc.s 			page 1


   1              		.cpu cortex-m3
   2              		.eabi_attribute 20, 1
   3              		.eabi_attribute 21, 1
   4              		.eabi_attribute 23, 3
   5              		.eabi_attribute 24, 1
   6              		.eabi_attribute 25, 1
   7              		.eabi_attribute 26, 1
   8              		.eabi_attribute 30, 1
   9              		.eabi_attribute 34, 1
  10              		.eabi_attribute 18, 4
  11              		.file	"usbd_ctlreq.c"
  12              		.text
  13              	.Ltext0:
  14              		.cfi_sections	.debug_frame
  15              		.section	.text.USBD_GetLen,"ax",%progbits
  16              		.align	1
  17              		.arch armv7-m
  18              		.syntax unified
  19              		.thumb
  20              		.thumb_func
  21              		.fpu softvfp
  23              	USBD_GetLen:
  24              	.LVL0:
  25              	.LFB210:
  26              		.file 1 "/home/smartth/STM32Cube/Repository/STM32Cube_FW_F1_V1.8.4//Middlewares/ST/STM32_USB_Devic
   1:/home/smartth/STM32Cube/Repository/STM32Cube_FW_F1_V1.8.4//Middlewares/ST/STM32_USB_Device_Library/Core/Src/usbd_ctlreq.c **** /**
   2:/home/smartth/STM32Cube/Repository/STM32Cube_FW_F1_V1.8.4//Middlewares/ST/STM32_USB_Device_Library/Core/Src/usbd_ctlreq.c ****   ******************************************************************************
   3:/home/smartth/STM32Cube/Repository/STM32Cube_FW_F1_V1.8.4//Middlewares/ST/STM32_USB_Device_Library/Core/Src/usbd_ctlreq.c ****   * @file    usbd_req.c
   4:/home/smartth/STM32Cube/Repository/STM32Cube_FW_F1_V1.8.4//Middlewares/ST/STM32_USB_Device_Library/Core/Src/usbd_ctlreq.c ****   * @author  MCD Application Team
   5:/home/smartth/STM32Cube/Repository/STM32Cube_FW_F1_V1.8.4//Middlewares/ST/STM32_USB_Device_Library/Core/Src/usbd_ctlreq.c ****   * @brief   This file provides the standard USB requests following chapter 9.
   6:/home/smartth/STM32Cube/Repository/STM32Cube_FW_F1_V1.8.4//Middlewares/ST/STM32_USB_Device_Library/Core/Src/usbd_ctlreq.c ****   ******************************************************************************
   7:/home/smartth/STM32Cube/Repository/STM32Cube_FW_F1_V1.8.4//Middlewares/ST/STM32_USB_Device_Library/Core/Src/usbd_ctlreq.c ****   * @attention
   8:/home/smartth/STM32Cube/Repository/STM32Cube_FW_F1_V1.8.4//Middlewares/ST/STM32_USB_Device_Library/Core/Src/usbd_ctlreq.c ****   *
   9:/home/smartth/STM32Cube/Repository/STM32Cube_FW_F1_V1.8.4//Middlewares/ST/STM32_USB_Device_Library/Core/Src/usbd_ctlreq.c ****   * <h2><center>&copy; Copyright (c) 2015 STMicroelectronics.
  10:/home/smartth/STM32Cube/Repository/STM32Cube_FW_F1_V1.8.4//Middlewares/ST/STM32_USB_Device_Library/Core/Src/usbd_ctlreq.c ****   * All rights reserved.</center></h2>
  11:/home/smartth/STM32Cube/Repository/STM32Cube_FW_F1_V1.8.4//Middlewares/ST/STM32_USB_Device_Library/Core/Src/usbd_ctlreq.c ****   *
  12:/home/smartth/STM32Cube/Repository/STM32Cube_FW_F1_V1.8.4//Middlewares/ST/STM32_USB_Device_Library/Core/Src/usbd_ctlreq.c ****   * This software component is licensed by ST under Ultimate Liberty license
  13:/home/smartth/STM32Cube/Repository/STM32Cube_FW_F1_V1.8.4//Middlewares/ST/STM32_USB_Device_Library/Core/Src/usbd_ctlreq.c ****   * SLA0044, the "License"; You may not use this file except in compliance with
  14:/home/smartth/STM32Cube/Repository/STM32Cube_FW_F1_V1.8.4//Middlewares/ST/STM32_USB_Device_Library/Core/Src/usbd_ctlreq.c ****   * the License. You may obtain a copy of the License at:
  15:/home/smartth/STM32Cube/Repository/STM32Cube_FW_F1_V1.8.4//Middlewares/ST/STM32_USB_Device_Library/Core/Src/usbd_ctlreq.c ****   *                      www.st.com/SLA0044
  16:/home/smartth/STM32Cube/Repository/STM32Cube_FW_F1_V1.8.4//Middlewares/ST/STM32_USB_Device_Library/Core/Src/usbd_ctlreq.c ****   *
  17:/home/smartth/STM32Cube/Repository/STM32Cube_FW_F1_V1.8.4//Middlewares/ST/STM32_USB_Device_Library/Core/Src/usbd_ctlreq.c ****   ******************************************************************************
  18:/home/smartth/STM32Cube/Repository/STM32Cube_FW_F1_V1.8.4//Middlewares/ST/STM32_USB_Device_Library/Core/Src/usbd_ctlreq.c ****   */
  19:/home/smartth/STM32Cube/Repository/STM32Cube_FW_F1_V1.8.4//Middlewares/ST/STM32_USB_Device_Library/Core/Src/usbd_ctlreq.c **** 
  20:/home/smartth/STM32Cube/Repository/STM32Cube_FW_F1_V1.8.4//Middlewares/ST/STM32_USB_Device_Library/Core/Src/usbd_ctlreq.c **** /* Includes ------------------------------------------------------------------*/
  21:/home/smartth/STM32Cube/Repository/STM32Cube_FW_F1_V1.8.4//Middlewares/ST/STM32_USB_Device_Library/Core/Src/usbd_ctlreq.c **** #include "usbd_ctlreq.h"
  22:/home/smartth/STM32Cube/Repository/STM32Cube_FW_F1_V1.8.4//Middlewares/ST/STM32_USB_Device_Library/Core/Src/usbd_ctlreq.c **** #include "usbd_ioreq.h"
  23:/home/smartth/STM32Cube/Repository/STM32Cube_FW_F1_V1.8.4//Middlewares/ST/STM32_USB_Device_Library/Core/Src/usbd_ctlreq.c **** 
  24:/home/smartth/STM32Cube/Repository/STM32Cube_FW_F1_V1.8.4//Middlewares/ST/STM32_USB_Device_Library/Core/Src/usbd_ctlreq.c **** 
  25:/home/smartth/STM32Cube/Repository/STM32Cube_FW_F1_V1.8.4//Middlewares/ST/STM32_USB_Device_Library/Core/Src/usbd_ctlreq.c **** /** @addtogroup STM32_USBD_STATE_DEVICE_LIBRARY
  26:/home/smartth/STM32Cube/Repository/STM32Cube_FW_F1_V1.8.4//Middlewares/ST/STM32_USB_Device_Library/Core/Src/usbd_ctlreq.c ****   * @{
  27:/home/smartth/STM32Cube/Repository/STM32Cube_FW_F1_V1.8.4//Middlewares/ST/STM32_USB_Device_Library/Core/Src/usbd_ctlreq.c ****   */
  28:/home/smartth/STM32Cube/Repository/STM32Cube_FW_F1_V1.8.4//Middlewares/ST/STM32_USB_Device_Library/Core/Src/usbd_ctlreq.c **** 
  29:/home/smartth/STM32Cube/Repository/STM32Cube_FW_F1_V1.8.4//Middlewares/ST/STM32_USB_Device_Library/Core/Src/usbd_ctlreq.c **** 
  30:/home/smartth/STM32Cube/Repository/STM32Cube_FW_F1_V1.8.4//Middlewares/ST/STM32_USB_Device_Library/Core/Src/usbd_ctlreq.c **** /** @defgroup USBD_REQ
  31:/home/smartth/STM32Cube/Repository/STM32Cube_FW_F1_V1.8.4//Middlewares/ST/STM32_USB_Device_Library/Core/Src/usbd_ctlreq.c ****   * @brief USB standard requests module
  32:/home/smartth/STM32Cube/Repository/STM32Cube_FW_F1_V1.8.4//Middlewares/ST/STM32_USB_Device_Library/Core/Src/usbd_ctlreq.c ****   * @{
ARM GAS  /tmp/ccVKyOYc.s 			page 2


  33:/home/smartth/STM32Cube/Repository/STM32Cube_FW_F1_V1.8.4//Middlewares/ST/STM32_USB_Device_Library/Core/Src/usbd_ctlreq.c ****   */
  34:/home/smartth/STM32Cube/Repository/STM32Cube_FW_F1_V1.8.4//Middlewares/ST/STM32_USB_Device_Library/Core/Src/usbd_ctlreq.c **** 
  35:/home/smartth/STM32Cube/Repository/STM32Cube_FW_F1_V1.8.4//Middlewares/ST/STM32_USB_Device_Library/Core/Src/usbd_ctlreq.c **** /** @defgroup USBD_REQ_Private_TypesDefinitions
  36:/home/smartth/STM32Cube/Repository/STM32Cube_FW_F1_V1.8.4//Middlewares/ST/STM32_USB_Device_Library/Core/Src/usbd_ctlreq.c ****   * @{
  37:/home/smartth/STM32Cube/Repository/STM32Cube_FW_F1_V1.8.4//Middlewares/ST/STM32_USB_Device_Library/Core/Src/usbd_ctlreq.c ****   */
  38:/home/smartth/STM32Cube/Repository/STM32Cube_FW_F1_V1.8.4//Middlewares/ST/STM32_USB_Device_Library/Core/Src/usbd_ctlreq.c **** 
  39:/home/smartth/STM32Cube/Repository/STM32Cube_FW_F1_V1.8.4//Middlewares/ST/STM32_USB_Device_Library/Core/Src/usbd_ctlreq.c **** /**
  40:/home/smartth/STM32Cube/Repository/STM32Cube_FW_F1_V1.8.4//Middlewares/ST/STM32_USB_Device_Library/Core/Src/usbd_ctlreq.c ****   * @}
  41:/home/smartth/STM32Cube/Repository/STM32Cube_FW_F1_V1.8.4//Middlewares/ST/STM32_USB_Device_Library/Core/Src/usbd_ctlreq.c ****   */
  42:/home/smartth/STM32Cube/Repository/STM32Cube_FW_F1_V1.8.4//Middlewares/ST/STM32_USB_Device_Library/Core/Src/usbd_ctlreq.c **** 
  43:/home/smartth/STM32Cube/Repository/STM32Cube_FW_F1_V1.8.4//Middlewares/ST/STM32_USB_Device_Library/Core/Src/usbd_ctlreq.c **** 
  44:/home/smartth/STM32Cube/Repository/STM32Cube_FW_F1_V1.8.4//Middlewares/ST/STM32_USB_Device_Library/Core/Src/usbd_ctlreq.c **** /** @defgroup USBD_REQ_Private_Defines
  45:/home/smartth/STM32Cube/Repository/STM32Cube_FW_F1_V1.8.4//Middlewares/ST/STM32_USB_Device_Library/Core/Src/usbd_ctlreq.c ****   * @{
  46:/home/smartth/STM32Cube/Repository/STM32Cube_FW_F1_V1.8.4//Middlewares/ST/STM32_USB_Device_Library/Core/Src/usbd_ctlreq.c ****   */
  47:/home/smartth/STM32Cube/Repository/STM32Cube_FW_F1_V1.8.4//Middlewares/ST/STM32_USB_Device_Library/Core/Src/usbd_ctlreq.c **** 
  48:/home/smartth/STM32Cube/Repository/STM32Cube_FW_F1_V1.8.4//Middlewares/ST/STM32_USB_Device_Library/Core/Src/usbd_ctlreq.c **** /**
  49:/home/smartth/STM32Cube/Repository/STM32Cube_FW_F1_V1.8.4//Middlewares/ST/STM32_USB_Device_Library/Core/Src/usbd_ctlreq.c ****   * @}
  50:/home/smartth/STM32Cube/Repository/STM32Cube_FW_F1_V1.8.4//Middlewares/ST/STM32_USB_Device_Library/Core/Src/usbd_ctlreq.c ****   */
  51:/home/smartth/STM32Cube/Repository/STM32Cube_FW_F1_V1.8.4//Middlewares/ST/STM32_USB_Device_Library/Core/Src/usbd_ctlreq.c **** 
  52:/home/smartth/STM32Cube/Repository/STM32Cube_FW_F1_V1.8.4//Middlewares/ST/STM32_USB_Device_Library/Core/Src/usbd_ctlreq.c **** 
  53:/home/smartth/STM32Cube/Repository/STM32Cube_FW_F1_V1.8.4//Middlewares/ST/STM32_USB_Device_Library/Core/Src/usbd_ctlreq.c **** /** @defgroup USBD_REQ_Private_Macros
  54:/home/smartth/STM32Cube/Repository/STM32Cube_FW_F1_V1.8.4//Middlewares/ST/STM32_USB_Device_Library/Core/Src/usbd_ctlreq.c ****   * @{
  55:/home/smartth/STM32Cube/Repository/STM32Cube_FW_F1_V1.8.4//Middlewares/ST/STM32_USB_Device_Library/Core/Src/usbd_ctlreq.c ****   */
  56:/home/smartth/STM32Cube/Repository/STM32Cube_FW_F1_V1.8.4//Middlewares/ST/STM32_USB_Device_Library/Core/Src/usbd_ctlreq.c **** 
  57:/home/smartth/STM32Cube/Repository/STM32Cube_FW_F1_V1.8.4//Middlewares/ST/STM32_USB_Device_Library/Core/Src/usbd_ctlreq.c **** /**
  58:/home/smartth/STM32Cube/Repository/STM32Cube_FW_F1_V1.8.4//Middlewares/ST/STM32_USB_Device_Library/Core/Src/usbd_ctlreq.c ****   * @}
  59:/home/smartth/STM32Cube/Repository/STM32Cube_FW_F1_V1.8.4//Middlewares/ST/STM32_USB_Device_Library/Core/Src/usbd_ctlreq.c ****   */
  60:/home/smartth/STM32Cube/Repository/STM32Cube_FW_F1_V1.8.4//Middlewares/ST/STM32_USB_Device_Library/Core/Src/usbd_ctlreq.c **** 
  61:/home/smartth/STM32Cube/Repository/STM32Cube_FW_F1_V1.8.4//Middlewares/ST/STM32_USB_Device_Library/Core/Src/usbd_ctlreq.c **** 
  62:/home/smartth/STM32Cube/Repository/STM32Cube_FW_F1_V1.8.4//Middlewares/ST/STM32_USB_Device_Library/Core/Src/usbd_ctlreq.c **** /** @defgroup USBD_REQ_Private_Variables
  63:/home/smartth/STM32Cube/Repository/STM32Cube_FW_F1_V1.8.4//Middlewares/ST/STM32_USB_Device_Library/Core/Src/usbd_ctlreq.c ****   * @{
  64:/home/smartth/STM32Cube/Repository/STM32Cube_FW_F1_V1.8.4//Middlewares/ST/STM32_USB_Device_Library/Core/Src/usbd_ctlreq.c ****   */
  65:/home/smartth/STM32Cube/Repository/STM32Cube_FW_F1_V1.8.4//Middlewares/ST/STM32_USB_Device_Library/Core/Src/usbd_ctlreq.c **** 
  66:/home/smartth/STM32Cube/Repository/STM32Cube_FW_F1_V1.8.4//Middlewares/ST/STM32_USB_Device_Library/Core/Src/usbd_ctlreq.c **** /**
  67:/home/smartth/STM32Cube/Repository/STM32Cube_FW_F1_V1.8.4//Middlewares/ST/STM32_USB_Device_Library/Core/Src/usbd_ctlreq.c ****   * @}
  68:/home/smartth/STM32Cube/Repository/STM32Cube_FW_F1_V1.8.4//Middlewares/ST/STM32_USB_Device_Library/Core/Src/usbd_ctlreq.c ****   */
  69:/home/smartth/STM32Cube/Repository/STM32Cube_FW_F1_V1.8.4//Middlewares/ST/STM32_USB_Device_Library/Core/Src/usbd_ctlreq.c **** 
  70:/home/smartth/STM32Cube/Repository/STM32Cube_FW_F1_V1.8.4//Middlewares/ST/STM32_USB_Device_Library/Core/Src/usbd_ctlreq.c **** 
  71:/home/smartth/STM32Cube/Repository/STM32Cube_FW_F1_V1.8.4//Middlewares/ST/STM32_USB_Device_Library/Core/Src/usbd_ctlreq.c **** /** @defgroup USBD_REQ_Private_FunctionPrototypes
  72:/home/smartth/STM32Cube/Repository/STM32Cube_FW_F1_V1.8.4//Middlewares/ST/STM32_USB_Device_Library/Core/Src/usbd_ctlreq.c ****   * @{
  73:/home/smartth/STM32Cube/Repository/STM32Cube_FW_F1_V1.8.4//Middlewares/ST/STM32_USB_Device_Library/Core/Src/usbd_ctlreq.c ****   */
  74:/home/smartth/STM32Cube/Repository/STM32Cube_FW_F1_V1.8.4//Middlewares/ST/STM32_USB_Device_Library/Core/Src/usbd_ctlreq.c **** static void USBD_GetDescriptor(USBD_HandleTypeDef *pdev,
  75:/home/smartth/STM32Cube/Repository/STM32Cube_FW_F1_V1.8.4//Middlewares/ST/STM32_USB_Device_Library/Core/Src/usbd_ctlreq.c ****                                USBD_SetupReqTypedef *req);
  76:/home/smartth/STM32Cube/Repository/STM32Cube_FW_F1_V1.8.4//Middlewares/ST/STM32_USB_Device_Library/Core/Src/usbd_ctlreq.c **** 
  77:/home/smartth/STM32Cube/Repository/STM32Cube_FW_F1_V1.8.4//Middlewares/ST/STM32_USB_Device_Library/Core/Src/usbd_ctlreq.c **** static void USBD_SetAddress(USBD_HandleTypeDef *pdev,
  78:/home/smartth/STM32Cube/Repository/STM32Cube_FW_F1_V1.8.4//Middlewares/ST/STM32_USB_Device_Library/Core/Src/usbd_ctlreq.c ****                             USBD_SetupReqTypedef *req);
  79:/home/smartth/STM32Cube/Repository/STM32Cube_FW_F1_V1.8.4//Middlewares/ST/STM32_USB_Device_Library/Core/Src/usbd_ctlreq.c **** 
  80:/home/smartth/STM32Cube/Repository/STM32Cube_FW_F1_V1.8.4//Middlewares/ST/STM32_USB_Device_Library/Core/Src/usbd_ctlreq.c **** static void USBD_SetConfig(USBD_HandleTypeDef *pdev,
  81:/home/smartth/STM32Cube/Repository/STM32Cube_FW_F1_V1.8.4//Middlewares/ST/STM32_USB_Device_Library/Core/Src/usbd_ctlreq.c ****                            USBD_SetupReqTypedef *req);
  82:/home/smartth/STM32Cube/Repository/STM32Cube_FW_F1_V1.8.4//Middlewares/ST/STM32_USB_Device_Library/Core/Src/usbd_ctlreq.c **** 
  83:/home/smartth/STM32Cube/Repository/STM32Cube_FW_F1_V1.8.4//Middlewares/ST/STM32_USB_Device_Library/Core/Src/usbd_ctlreq.c **** static void USBD_GetConfig(USBD_HandleTypeDef *pdev,
  84:/home/smartth/STM32Cube/Repository/STM32Cube_FW_F1_V1.8.4//Middlewares/ST/STM32_USB_Device_Library/Core/Src/usbd_ctlreq.c ****                            USBD_SetupReqTypedef *req);
  85:/home/smartth/STM32Cube/Repository/STM32Cube_FW_F1_V1.8.4//Middlewares/ST/STM32_USB_Device_Library/Core/Src/usbd_ctlreq.c **** 
  86:/home/smartth/STM32Cube/Repository/STM32Cube_FW_F1_V1.8.4//Middlewares/ST/STM32_USB_Device_Library/Core/Src/usbd_ctlreq.c **** static void USBD_GetStatus(USBD_HandleTypeDef *pdev,
  87:/home/smartth/STM32Cube/Repository/STM32Cube_FW_F1_V1.8.4//Middlewares/ST/STM32_USB_Device_Library/Core/Src/usbd_ctlreq.c ****                            USBD_SetupReqTypedef *req);
  88:/home/smartth/STM32Cube/Repository/STM32Cube_FW_F1_V1.8.4//Middlewares/ST/STM32_USB_Device_Library/Core/Src/usbd_ctlreq.c **** 
  89:/home/smartth/STM32Cube/Repository/STM32Cube_FW_F1_V1.8.4//Middlewares/ST/STM32_USB_Device_Library/Core/Src/usbd_ctlreq.c **** static void USBD_SetFeature(USBD_HandleTypeDef *pdev,
ARM GAS  /tmp/ccVKyOYc.s 			page 3


  90:/home/smartth/STM32Cube/Repository/STM32Cube_FW_F1_V1.8.4//Middlewares/ST/STM32_USB_Device_Library/Core/Src/usbd_ctlreq.c ****                             USBD_SetupReqTypedef *req);
  91:/home/smartth/STM32Cube/Repository/STM32Cube_FW_F1_V1.8.4//Middlewares/ST/STM32_USB_Device_Library/Core/Src/usbd_ctlreq.c **** 
  92:/home/smartth/STM32Cube/Repository/STM32Cube_FW_F1_V1.8.4//Middlewares/ST/STM32_USB_Device_Library/Core/Src/usbd_ctlreq.c **** static void USBD_ClrFeature(USBD_HandleTypeDef *pdev,
  93:/home/smartth/STM32Cube/Repository/STM32Cube_FW_F1_V1.8.4//Middlewares/ST/STM32_USB_Device_Library/Core/Src/usbd_ctlreq.c ****                             USBD_SetupReqTypedef *req);
  94:/home/smartth/STM32Cube/Repository/STM32Cube_FW_F1_V1.8.4//Middlewares/ST/STM32_USB_Device_Library/Core/Src/usbd_ctlreq.c **** 
  95:/home/smartth/STM32Cube/Repository/STM32Cube_FW_F1_V1.8.4//Middlewares/ST/STM32_USB_Device_Library/Core/Src/usbd_ctlreq.c **** static uint8_t USBD_GetLen(uint8_t *buf);
  96:/home/smartth/STM32Cube/Repository/STM32Cube_FW_F1_V1.8.4//Middlewares/ST/STM32_USB_Device_Library/Core/Src/usbd_ctlreq.c **** 
  97:/home/smartth/STM32Cube/Repository/STM32Cube_FW_F1_V1.8.4//Middlewares/ST/STM32_USB_Device_Library/Core/Src/usbd_ctlreq.c **** /**
  98:/home/smartth/STM32Cube/Repository/STM32Cube_FW_F1_V1.8.4//Middlewares/ST/STM32_USB_Device_Library/Core/Src/usbd_ctlreq.c ****   * @}
  99:/home/smartth/STM32Cube/Repository/STM32Cube_FW_F1_V1.8.4//Middlewares/ST/STM32_USB_Device_Library/Core/Src/usbd_ctlreq.c ****   */
 100:/home/smartth/STM32Cube/Repository/STM32Cube_FW_F1_V1.8.4//Middlewares/ST/STM32_USB_Device_Library/Core/Src/usbd_ctlreq.c **** 
 101:/home/smartth/STM32Cube/Repository/STM32Cube_FW_F1_V1.8.4//Middlewares/ST/STM32_USB_Device_Library/Core/Src/usbd_ctlreq.c **** 
 102:/home/smartth/STM32Cube/Repository/STM32Cube_FW_F1_V1.8.4//Middlewares/ST/STM32_USB_Device_Library/Core/Src/usbd_ctlreq.c **** /** @defgroup USBD_REQ_Private_Functions
 103:/home/smartth/STM32Cube/Repository/STM32Cube_FW_F1_V1.8.4//Middlewares/ST/STM32_USB_Device_Library/Core/Src/usbd_ctlreq.c ****   * @{
 104:/home/smartth/STM32Cube/Repository/STM32Cube_FW_F1_V1.8.4//Middlewares/ST/STM32_USB_Device_Library/Core/Src/usbd_ctlreq.c ****   */
 105:/home/smartth/STM32Cube/Repository/STM32Cube_FW_F1_V1.8.4//Middlewares/ST/STM32_USB_Device_Library/Core/Src/usbd_ctlreq.c **** 
 106:/home/smartth/STM32Cube/Repository/STM32Cube_FW_F1_V1.8.4//Middlewares/ST/STM32_USB_Device_Library/Core/Src/usbd_ctlreq.c **** 
 107:/home/smartth/STM32Cube/Repository/STM32Cube_FW_F1_V1.8.4//Middlewares/ST/STM32_USB_Device_Library/Core/Src/usbd_ctlreq.c **** /**
 108:/home/smartth/STM32Cube/Repository/STM32Cube_FW_F1_V1.8.4//Middlewares/ST/STM32_USB_Device_Library/Core/Src/usbd_ctlreq.c **** * @brief  USBD_StdDevReq
 109:/home/smartth/STM32Cube/Repository/STM32Cube_FW_F1_V1.8.4//Middlewares/ST/STM32_USB_Device_Library/Core/Src/usbd_ctlreq.c **** *         Handle standard usb device requests
 110:/home/smartth/STM32Cube/Repository/STM32Cube_FW_F1_V1.8.4//Middlewares/ST/STM32_USB_Device_Library/Core/Src/usbd_ctlreq.c **** * @param  pdev: device instance
 111:/home/smartth/STM32Cube/Repository/STM32Cube_FW_F1_V1.8.4//Middlewares/ST/STM32_USB_Device_Library/Core/Src/usbd_ctlreq.c **** * @param  req: usb request
 112:/home/smartth/STM32Cube/Repository/STM32Cube_FW_F1_V1.8.4//Middlewares/ST/STM32_USB_Device_Library/Core/Src/usbd_ctlreq.c **** * @retval status
 113:/home/smartth/STM32Cube/Repository/STM32Cube_FW_F1_V1.8.4//Middlewares/ST/STM32_USB_Device_Library/Core/Src/usbd_ctlreq.c **** */
 114:/home/smartth/STM32Cube/Repository/STM32Cube_FW_F1_V1.8.4//Middlewares/ST/STM32_USB_Device_Library/Core/Src/usbd_ctlreq.c **** USBD_StatusTypeDef  USBD_StdDevReq(USBD_HandleTypeDef *pdev,
 115:/home/smartth/STM32Cube/Repository/STM32Cube_FW_F1_V1.8.4//Middlewares/ST/STM32_USB_Device_Library/Core/Src/usbd_ctlreq.c ****                                    USBD_SetupReqTypedef *req)
 116:/home/smartth/STM32Cube/Repository/STM32Cube_FW_F1_V1.8.4//Middlewares/ST/STM32_USB_Device_Library/Core/Src/usbd_ctlreq.c **** {
 117:/home/smartth/STM32Cube/Repository/STM32Cube_FW_F1_V1.8.4//Middlewares/ST/STM32_USB_Device_Library/Core/Src/usbd_ctlreq.c ****   USBD_StatusTypeDef ret = USBD_OK;
 118:/home/smartth/STM32Cube/Repository/STM32Cube_FW_F1_V1.8.4//Middlewares/ST/STM32_USB_Device_Library/Core/Src/usbd_ctlreq.c **** 
 119:/home/smartth/STM32Cube/Repository/STM32Cube_FW_F1_V1.8.4//Middlewares/ST/STM32_USB_Device_Library/Core/Src/usbd_ctlreq.c ****   switch (req->bmRequest & USB_REQ_TYPE_MASK)
 120:/home/smartth/STM32Cube/Repository/STM32Cube_FW_F1_V1.8.4//Middlewares/ST/STM32_USB_Device_Library/Core/Src/usbd_ctlreq.c ****   {
 121:/home/smartth/STM32Cube/Repository/STM32Cube_FW_F1_V1.8.4//Middlewares/ST/STM32_USB_Device_Library/Core/Src/usbd_ctlreq.c ****     case USB_REQ_TYPE_CLASS:
 122:/home/smartth/STM32Cube/Repository/STM32Cube_FW_F1_V1.8.4//Middlewares/ST/STM32_USB_Device_Library/Core/Src/usbd_ctlreq.c ****     case USB_REQ_TYPE_VENDOR:
 123:/home/smartth/STM32Cube/Repository/STM32Cube_FW_F1_V1.8.4//Middlewares/ST/STM32_USB_Device_Library/Core/Src/usbd_ctlreq.c ****       pdev->pClass->Setup(pdev, req);
 124:/home/smartth/STM32Cube/Repository/STM32Cube_FW_F1_V1.8.4//Middlewares/ST/STM32_USB_Device_Library/Core/Src/usbd_ctlreq.c ****       break;
 125:/home/smartth/STM32Cube/Repository/STM32Cube_FW_F1_V1.8.4//Middlewares/ST/STM32_USB_Device_Library/Core/Src/usbd_ctlreq.c **** 
 126:/home/smartth/STM32Cube/Repository/STM32Cube_FW_F1_V1.8.4//Middlewares/ST/STM32_USB_Device_Library/Core/Src/usbd_ctlreq.c ****     case USB_REQ_TYPE_STANDARD:
 127:/home/smartth/STM32Cube/Repository/STM32Cube_FW_F1_V1.8.4//Middlewares/ST/STM32_USB_Device_Library/Core/Src/usbd_ctlreq.c ****       switch (req->bRequest)
 128:/home/smartth/STM32Cube/Repository/STM32Cube_FW_F1_V1.8.4//Middlewares/ST/STM32_USB_Device_Library/Core/Src/usbd_ctlreq.c ****       {
 129:/home/smartth/STM32Cube/Repository/STM32Cube_FW_F1_V1.8.4//Middlewares/ST/STM32_USB_Device_Library/Core/Src/usbd_ctlreq.c ****         case USB_REQ_GET_DESCRIPTOR:
 130:/home/smartth/STM32Cube/Repository/STM32Cube_FW_F1_V1.8.4//Middlewares/ST/STM32_USB_Device_Library/Core/Src/usbd_ctlreq.c ****           USBD_GetDescriptor(pdev, req);
 131:/home/smartth/STM32Cube/Repository/STM32Cube_FW_F1_V1.8.4//Middlewares/ST/STM32_USB_Device_Library/Core/Src/usbd_ctlreq.c ****           break;
 132:/home/smartth/STM32Cube/Repository/STM32Cube_FW_F1_V1.8.4//Middlewares/ST/STM32_USB_Device_Library/Core/Src/usbd_ctlreq.c **** 
 133:/home/smartth/STM32Cube/Repository/STM32Cube_FW_F1_V1.8.4//Middlewares/ST/STM32_USB_Device_Library/Core/Src/usbd_ctlreq.c ****         case USB_REQ_SET_ADDRESS:
 134:/home/smartth/STM32Cube/Repository/STM32Cube_FW_F1_V1.8.4//Middlewares/ST/STM32_USB_Device_Library/Core/Src/usbd_ctlreq.c ****           USBD_SetAddress(pdev, req);
 135:/home/smartth/STM32Cube/Repository/STM32Cube_FW_F1_V1.8.4//Middlewares/ST/STM32_USB_Device_Library/Core/Src/usbd_ctlreq.c ****           break;
 136:/home/smartth/STM32Cube/Repository/STM32Cube_FW_F1_V1.8.4//Middlewares/ST/STM32_USB_Device_Library/Core/Src/usbd_ctlreq.c **** 
 137:/home/smartth/STM32Cube/Repository/STM32Cube_FW_F1_V1.8.4//Middlewares/ST/STM32_USB_Device_Library/Core/Src/usbd_ctlreq.c ****         case USB_REQ_SET_CONFIGURATION:
 138:/home/smartth/STM32Cube/Repository/STM32Cube_FW_F1_V1.8.4//Middlewares/ST/STM32_USB_Device_Library/Core/Src/usbd_ctlreq.c ****           USBD_SetConfig(pdev, req);
 139:/home/smartth/STM32Cube/Repository/STM32Cube_FW_F1_V1.8.4//Middlewares/ST/STM32_USB_Device_Library/Core/Src/usbd_ctlreq.c ****           break;
 140:/home/smartth/STM32Cube/Repository/STM32Cube_FW_F1_V1.8.4//Middlewares/ST/STM32_USB_Device_Library/Core/Src/usbd_ctlreq.c **** 
 141:/home/smartth/STM32Cube/Repository/STM32Cube_FW_F1_V1.8.4//Middlewares/ST/STM32_USB_Device_Library/Core/Src/usbd_ctlreq.c ****         case USB_REQ_GET_CONFIGURATION:
 142:/home/smartth/STM32Cube/Repository/STM32Cube_FW_F1_V1.8.4//Middlewares/ST/STM32_USB_Device_Library/Core/Src/usbd_ctlreq.c ****           USBD_GetConfig(pdev, req);
 143:/home/smartth/STM32Cube/Repository/STM32Cube_FW_F1_V1.8.4//Middlewares/ST/STM32_USB_Device_Library/Core/Src/usbd_ctlreq.c ****           break;
 144:/home/smartth/STM32Cube/Repository/STM32Cube_FW_F1_V1.8.4//Middlewares/ST/STM32_USB_Device_Library/Core/Src/usbd_ctlreq.c **** 
 145:/home/smartth/STM32Cube/Repository/STM32Cube_FW_F1_V1.8.4//Middlewares/ST/STM32_USB_Device_Library/Core/Src/usbd_ctlreq.c ****         case USB_REQ_GET_STATUS:
 146:/home/smartth/STM32Cube/Repository/STM32Cube_FW_F1_V1.8.4//Middlewares/ST/STM32_USB_Device_Library/Core/Src/usbd_ctlreq.c ****           USBD_GetStatus(pdev, req);
ARM GAS  /tmp/ccVKyOYc.s 			page 4


 147:/home/smartth/STM32Cube/Repository/STM32Cube_FW_F1_V1.8.4//Middlewares/ST/STM32_USB_Device_Library/Core/Src/usbd_ctlreq.c ****           break;
 148:/home/smartth/STM32Cube/Repository/STM32Cube_FW_F1_V1.8.4//Middlewares/ST/STM32_USB_Device_Library/Core/Src/usbd_ctlreq.c **** 
 149:/home/smartth/STM32Cube/Repository/STM32Cube_FW_F1_V1.8.4//Middlewares/ST/STM32_USB_Device_Library/Core/Src/usbd_ctlreq.c ****         case USB_REQ_SET_FEATURE:
 150:/home/smartth/STM32Cube/Repository/STM32Cube_FW_F1_V1.8.4//Middlewares/ST/STM32_USB_Device_Library/Core/Src/usbd_ctlreq.c ****           USBD_SetFeature(pdev, req);
 151:/home/smartth/STM32Cube/Repository/STM32Cube_FW_F1_V1.8.4//Middlewares/ST/STM32_USB_Device_Library/Core/Src/usbd_ctlreq.c ****           break;
 152:/home/smartth/STM32Cube/Repository/STM32Cube_FW_F1_V1.8.4//Middlewares/ST/STM32_USB_Device_Library/Core/Src/usbd_ctlreq.c **** 
 153:/home/smartth/STM32Cube/Repository/STM32Cube_FW_F1_V1.8.4//Middlewares/ST/STM32_USB_Device_Library/Core/Src/usbd_ctlreq.c ****         case USB_REQ_CLEAR_FEATURE:
 154:/home/smartth/STM32Cube/Repository/STM32Cube_FW_F1_V1.8.4//Middlewares/ST/STM32_USB_Device_Library/Core/Src/usbd_ctlreq.c ****           USBD_ClrFeature(pdev, req);
 155:/home/smartth/STM32Cube/Repository/STM32Cube_FW_F1_V1.8.4//Middlewares/ST/STM32_USB_Device_Library/Core/Src/usbd_ctlreq.c ****           break;
 156:/home/smartth/STM32Cube/Repository/STM32Cube_FW_F1_V1.8.4//Middlewares/ST/STM32_USB_Device_Library/Core/Src/usbd_ctlreq.c **** 
 157:/home/smartth/STM32Cube/Repository/STM32Cube_FW_F1_V1.8.4//Middlewares/ST/STM32_USB_Device_Library/Core/Src/usbd_ctlreq.c ****         default:
 158:/home/smartth/STM32Cube/Repository/STM32Cube_FW_F1_V1.8.4//Middlewares/ST/STM32_USB_Device_Library/Core/Src/usbd_ctlreq.c ****           USBD_CtlError(pdev, req);
 159:/home/smartth/STM32Cube/Repository/STM32Cube_FW_F1_V1.8.4//Middlewares/ST/STM32_USB_Device_Library/Core/Src/usbd_ctlreq.c ****           break;
 160:/home/smartth/STM32Cube/Repository/STM32Cube_FW_F1_V1.8.4//Middlewares/ST/STM32_USB_Device_Library/Core/Src/usbd_ctlreq.c ****       }
 161:/home/smartth/STM32Cube/Repository/STM32Cube_FW_F1_V1.8.4//Middlewares/ST/STM32_USB_Device_Library/Core/Src/usbd_ctlreq.c ****       break;
 162:/home/smartth/STM32Cube/Repository/STM32Cube_FW_F1_V1.8.4//Middlewares/ST/STM32_USB_Device_Library/Core/Src/usbd_ctlreq.c **** 
 163:/home/smartth/STM32Cube/Repository/STM32Cube_FW_F1_V1.8.4//Middlewares/ST/STM32_USB_Device_Library/Core/Src/usbd_ctlreq.c ****     default:
 164:/home/smartth/STM32Cube/Repository/STM32Cube_FW_F1_V1.8.4//Middlewares/ST/STM32_USB_Device_Library/Core/Src/usbd_ctlreq.c ****       USBD_CtlError(pdev, req);
 165:/home/smartth/STM32Cube/Repository/STM32Cube_FW_F1_V1.8.4//Middlewares/ST/STM32_USB_Device_Library/Core/Src/usbd_ctlreq.c ****       break;
 166:/home/smartth/STM32Cube/Repository/STM32Cube_FW_F1_V1.8.4//Middlewares/ST/STM32_USB_Device_Library/Core/Src/usbd_ctlreq.c ****   }
 167:/home/smartth/STM32Cube/Repository/STM32Cube_FW_F1_V1.8.4//Middlewares/ST/STM32_USB_Device_Library/Core/Src/usbd_ctlreq.c **** 
 168:/home/smartth/STM32Cube/Repository/STM32Cube_FW_F1_V1.8.4//Middlewares/ST/STM32_USB_Device_Library/Core/Src/usbd_ctlreq.c ****   return ret;
 169:/home/smartth/STM32Cube/Repository/STM32Cube_FW_F1_V1.8.4//Middlewares/ST/STM32_USB_Device_Library/Core/Src/usbd_ctlreq.c **** }
 170:/home/smartth/STM32Cube/Repository/STM32Cube_FW_F1_V1.8.4//Middlewares/ST/STM32_USB_Device_Library/Core/Src/usbd_ctlreq.c **** 
 171:/home/smartth/STM32Cube/Repository/STM32Cube_FW_F1_V1.8.4//Middlewares/ST/STM32_USB_Device_Library/Core/Src/usbd_ctlreq.c **** /**
 172:/home/smartth/STM32Cube/Repository/STM32Cube_FW_F1_V1.8.4//Middlewares/ST/STM32_USB_Device_Library/Core/Src/usbd_ctlreq.c **** * @brief  USBD_StdItfReq
 173:/home/smartth/STM32Cube/Repository/STM32Cube_FW_F1_V1.8.4//Middlewares/ST/STM32_USB_Device_Library/Core/Src/usbd_ctlreq.c **** *         Handle standard usb interface requests
 174:/home/smartth/STM32Cube/Repository/STM32Cube_FW_F1_V1.8.4//Middlewares/ST/STM32_USB_Device_Library/Core/Src/usbd_ctlreq.c **** * @param  pdev: device instance
 175:/home/smartth/STM32Cube/Repository/STM32Cube_FW_F1_V1.8.4//Middlewares/ST/STM32_USB_Device_Library/Core/Src/usbd_ctlreq.c **** * @param  req: usb request
 176:/home/smartth/STM32Cube/Repository/STM32Cube_FW_F1_V1.8.4//Middlewares/ST/STM32_USB_Device_Library/Core/Src/usbd_ctlreq.c **** * @retval status
 177:/home/smartth/STM32Cube/Repository/STM32Cube_FW_F1_V1.8.4//Middlewares/ST/STM32_USB_Device_Library/Core/Src/usbd_ctlreq.c **** */
 178:/home/smartth/STM32Cube/Repository/STM32Cube_FW_F1_V1.8.4//Middlewares/ST/STM32_USB_Device_Library/Core/Src/usbd_ctlreq.c **** USBD_StatusTypeDef  USBD_StdItfReq(USBD_HandleTypeDef *pdev,
 179:/home/smartth/STM32Cube/Repository/STM32Cube_FW_F1_V1.8.4//Middlewares/ST/STM32_USB_Device_Library/Core/Src/usbd_ctlreq.c ****                                    USBD_SetupReqTypedef  *req)
 180:/home/smartth/STM32Cube/Repository/STM32Cube_FW_F1_V1.8.4//Middlewares/ST/STM32_USB_Device_Library/Core/Src/usbd_ctlreq.c **** {
 181:/home/smartth/STM32Cube/Repository/STM32Cube_FW_F1_V1.8.4//Middlewares/ST/STM32_USB_Device_Library/Core/Src/usbd_ctlreq.c ****   USBD_StatusTypeDef ret = USBD_OK;
 182:/home/smartth/STM32Cube/Repository/STM32Cube_FW_F1_V1.8.4//Middlewares/ST/STM32_USB_Device_Library/Core/Src/usbd_ctlreq.c **** 
 183:/home/smartth/STM32Cube/Repository/STM32Cube_FW_F1_V1.8.4//Middlewares/ST/STM32_USB_Device_Library/Core/Src/usbd_ctlreq.c ****   switch (req->bmRequest & USB_REQ_TYPE_MASK)
 184:/home/smartth/STM32Cube/Repository/STM32Cube_FW_F1_V1.8.4//Middlewares/ST/STM32_USB_Device_Library/Core/Src/usbd_ctlreq.c ****   {
 185:/home/smartth/STM32Cube/Repository/STM32Cube_FW_F1_V1.8.4//Middlewares/ST/STM32_USB_Device_Library/Core/Src/usbd_ctlreq.c ****     case USB_REQ_TYPE_CLASS:
 186:/home/smartth/STM32Cube/Repository/STM32Cube_FW_F1_V1.8.4//Middlewares/ST/STM32_USB_Device_Library/Core/Src/usbd_ctlreq.c ****     case USB_REQ_TYPE_VENDOR:
 187:/home/smartth/STM32Cube/Repository/STM32Cube_FW_F1_V1.8.4//Middlewares/ST/STM32_USB_Device_Library/Core/Src/usbd_ctlreq.c ****     case USB_REQ_TYPE_STANDARD:
 188:/home/smartth/STM32Cube/Repository/STM32Cube_FW_F1_V1.8.4//Middlewares/ST/STM32_USB_Device_Library/Core/Src/usbd_ctlreq.c ****       switch (pdev->dev_state)
 189:/home/smartth/STM32Cube/Repository/STM32Cube_FW_F1_V1.8.4//Middlewares/ST/STM32_USB_Device_Library/Core/Src/usbd_ctlreq.c ****       {
 190:/home/smartth/STM32Cube/Repository/STM32Cube_FW_F1_V1.8.4//Middlewares/ST/STM32_USB_Device_Library/Core/Src/usbd_ctlreq.c ****         case USBD_STATE_DEFAULT:
 191:/home/smartth/STM32Cube/Repository/STM32Cube_FW_F1_V1.8.4//Middlewares/ST/STM32_USB_Device_Library/Core/Src/usbd_ctlreq.c ****         case USBD_STATE_ADDRESSED:
 192:/home/smartth/STM32Cube/Repository/STM32Cube_FW_F1_V1.8.4//Middlewares/ST/STM32_USB_Device_Library/Core/Src/usbd_ctlreq.c ****         case USBD_STATE_CONFIGURED:
 193:/home/smartth/STM32Cube/Repository/STM32Cube_FW_F1_V1.8.4//Middlewares/ST/STM32_USB_Device_Library/Core/Src/usbd_ctlreq.c **** 
 194:/home/smartth/STM32Cube/Repository/STM32Cube_FW_F1_V1.8.4//Middlewares/ST/STM32_USB_Device_Library/Core/Src/usbd_ctlreq.c ****           if (LOBYTE(req->wIndex) <= USBD_MAX_NUM_INTERFACES)
 195:/home/smartth/STM32Cube/Repository/STM32Cube_FW_F1_V1.8.4//Middlewares/ST/STM32_USB_Device_Library/Core/Src/usbd_ctlreq.c ****           {
 196:/home/smartth/STM32Cube/Repository/STM32Cube_FW_F1_V1.8.4//Middlewares/ST/STM32_USB_Device_Library/Core/Src/usbd_ctlreq.c ****             ret = (USBD_StatusTypeDef)pdev->pClass->Setup(pdev, req);
 197:/home/smartth/STM32Cube/Repository/STM32Cube_FW_F1_V1.8.4//Middlewares/ST/STM32_USB_Device_Library/Core/Src/usbd_ctlreq.c **** 
 198:/home/smartth/STM32Cube/Repository/STM32Cube_FW_F1_V1.8.4//Middlewares/ST/STM32_USB_Device_Library/Core/Src/usbd_ctlreq.c ****             if ((req->wLength == 0U) && (ret == USBD_OK))
 199:/home/smartth/STM32Cube/Repository/STM32Cube_FW_F1_V1.8.4//Middlewares/ST/STM32_USB_Device_Library/Core/Src/usbd_ctlreq.c ****             {
 200:/home/smartth/STM32Cube/Repository/STM32Cube_FW_F1_V1.8.4//Middlewares/ST/STM32_USB_Device_Library/Core/Src/usbd_ctlreq.c ****               USBD_CtlSendStatus(pdev);
 201:/home/smartth/STM32Cube/Repository/STM32Cube_FW_F1_V1.8.4//Middlewares/ST/STM32_USB_Device_Library/Core/Src/usbd_ctlreq.c ****             }
 202:/home/smartth/STM32Cube/Repository/STM32Cube_FW_F1_V1.8.4//Middlewares/ST/STM32_USB_Device_Library/Core/Src/usbd_ctlreq.c ****           }
 203:/home/smartth/STM32Cube/Repository/STM32Cube_FW_F1_V1.8.4//Middlewares/ST/STM32_USB_Device_Library/Core/Src/usbd_ctlreq.c ****           else
ARM GAS  /tmp/ccVKyOYc.s 			page 5


 204:/home/smartth/STM32Cube/Repository/STM32Cube_FW_F1_V1.8.4//Middlewares/ST/STM32_USB_Device_Library/Core/Src/usbd_ctlreq.c ****           {
 205:/home/smartth/STM32Cube/Repository/STM32Cube_FW_F1_V1.8.4//Middlewares/ST/STM32_USB_Device_Library/Core/Src/usbd_ctlreq.c ****             USBD_CtlError(pdev, req);
 206:/home/smartth/STM32Cube/Repository/STM32Cube_FW_F1_V1.8.4//Middlewares/ST/STM32_USB_Device_Library/Core/Src/usbd_ctlreq.c ****           }
 207:/home/smartth/STM32Cube/Repository/STM32Cube_FW_F1_V1.8.4//Middlewares/ST/STM32_USB_Device_Library/Core/Src/usbd_ctlreq.c ****           break;
 208:/home/smartth/STM32Cube/Repository/STM32Cube_FW_F1_V1.8.4//Middlewares/ST/STM32_USB_Device_Library/Core/Src/usbd_ctlreq.c **** 
 209:/home/smartth/STM32Cube/Repository/STM32Cube_FW_F1_V1.8.4//Middlewares/ST/STM32_USB_Device_Library/Core/Src/usbd_ctlreq.c ****         default:
 210:/home/smartth/STM32Cube/Repository/STM32Cube_FW_F1_V1.8.4//Middlewares/ST/STM32_USB_Device_Library/Core/Src/usbd_ctlreq.c ****           USBD_CtlError(pdev, req);
 211:/home/smartth/STM32Cube/Repository/STM32Cube_FW_F1_V1.8.4//Middlewares/ST/STM32_USB_Device_Library/Core/Src/usbd_ctlreq.c ****           break;
 212:/home/smartth/STM32Cube/Repository/STM32Cube_FW_F1_V1.8.4//Middlewares/ST/STM32_USB_Device_Library/Core/Src/usbd_ctlreq.c ****       }
 213:/home/smartth/STM32Cube/Repository/STM32Cube_FW_F1_V1.8.4//Middlewares/ST/STM32_USB_Device_Library/Core/Src/usbd_ctlreq.c ****       break;
 214:/home/smartth/STM32Cube/Repository/STM32Cube_FW_F1_V1.8.4//Middlewares/ST/STM32_USB_Device_Library/Core/Src/usbd_ctlreq.c **** 
 215:/home/smartth/STM32Cube/Repository/STM32Cube_FW_F1_V1.8.4//Middlewares/ST/STM32_USB_Device_Library/Core/Src/usbd_ctlreq.c ****     default:
 216:/home/smartth/STM32Cube/Repository/STM32Cube_FW_F1_V1.8.4//Middlewares/ST/STM32_USB_Device_Library/Core/Src/usbd_ctlreq.c ****       USBD_CtlError(pdev, req);
 217:/home/smartth/STM32Cube/Repository/STM32Cube_FW_F1_V1.8.4//Middlewares/ST/STM32_USB_Device_Library/Core/Src/usbd_ctlreq.c ****       break;
 218:/home/smartth/STM32Cube/Repository/STM32Cube_FW_F1_V1.8.4//Middlewares/ST/STM32_USB_Device_Library/Core/Src/usbd_ctlreq.c ****   }
 219:/home/smartth/STM32Cube/Repository/STM32Cube_FW_F1_V1.8.4//Middlewares/ST/STM32_USB_Device_Library/Core/Src/usbd_ctlreq.c **** 
 220:/home/smartth/STM32Cube/Repository/STM32Cube_FW_F1_V1.8.4//Middlewares/ST/STM32_USB_Device_Library/Core/Src/usbd_ctlreq.c ****   return USBD_OK;
 221:/home/smartth/STM32Cube/Repository/STM32Cube_FW_F1_V1.8.4//Middlewares/ST/STM32_USB_Device_Library/Core/Src/usbd_ctlreq.c **** }
 222:/home/smartth/STM32Cube/Repository/STM32Cube_FW_F1_V1.8.4//Middlewares/ST/STM32_USB_Device_Library/Core/Src/usbd_ctlreq.c **** 
 223:/home/smartth/STM32Cube/Repository/STM32Cube_FW_F1_V1.8.4//Middlewares/ST/STM32_USB_Device_Library/Core/Src/usbd_ctlreq.c **** /**
 224:/home/smartth/STM32Cube/Repository/STM32Cube_FW_F1_V1.8.4//Middlewares/ST/STM32_USB_Device_Library/Core/Src/usbd_ctlreq.c **** * @brief  USBD_StdEPReq
 225:/home/smartth/STM32Cube/Repository/STM32Cube_FW_F1_V1.8.4//Middlewares/ST/STM32_USB_Device_Library/Core/Src/usbd_ctlreq.c **** *         Handle standard usb endpoint requests
 226:/home/smartth/STM32Cube/Repository/STM32Cube_FW_F1_V1.8.4//Middlewares/ST/STM32_USB_Device_Library/Core/Src/usbd_ctlreq.c **** * @param  pdev: device instance
 227:/home/smartth/STM32Cube/Repository/STM32Cube_FW_F1_V1.8.4//Middlewares/ST/STM32_USB_Device_Library/Core/Src/usbd_ctlreq.c **** * @param  req: usb request
 228:/home/smartth/STM32Cube/Repository/STM32Cube_FW_F1_V1.8.4//Middlewares/ST/STM32_USB_Device_Library/Core/Src/usbd_ctlreq.c **** * @retval status
 229:/home/smartth/STM32Cube/Repository/STM32Cube_FW_F1_V1.8.4//Middlewares/ST/STM32_USB_Device_Library/Core/Src/usbd_ctlreq.c **** */
 230:/home/smartth/STM32Cube/Repository/STM32Cube_FW_F1_V1.8.4//Middlewares/ST/STM32_USB_Device_Library/Core/Src/usbd_ctlreq.c **** USBD_StatusTypeDef  USBD_StdEPReq(USBD_HandleTypeDef *pdev,
 231:/home/smartth/STM32Cube/Repository/STM32Cube_FW_F1_V1.8.4//Middlewares/ST/STM32_USB_Device_Library/Core/Src/usbd_ctlreq.c ****                                   USBD_SetupReqTypedef  *req)
 232:/home/smartth/STM32Cube/Repository/STM32Cube_FW_F1_V1.8.4//Middlewares/ST/STM32_USB_Device_Library/Core/Src/usbd_ctlreq.c **** {
 233:/home/smartth/STM32Cube/Repository/STM32Cube_FW_F1_V1.8.4//Middlewares/ST/STM32_USB_Device_Library/Core/Src/usbd_ctlreq.c ****   USBD_EndpointTypeDef *pep;
 234:/home/smartth/STM32Cube/Repository/STM32Cube_FW_F1_V1.8.4//Middlewares/ST/STM32_USB_Device_Library/Core/Src/usbd_ctlreq.c ****   uint8_t   ep_addr;
 235:/home/smartth/STM32Cube/Repository/STM32Cube_FW_F1_V1.8.4//Middlewares/ST/STM32_USB_Device_Library/Core/Src/usbd_ctlreq.c ****   USBD_StatusTypeDef ret = USBD_OK;
 236:/home/smartth/STM32Cube/Repository/STM32Cube_FW_F1_V1.8.4//Middlewares/ST/STM32_USB_Device_Library/Core/Src/usbd_ctlreq.c ****   ep_addr  = LOBYTE(req->wIndex);
 237:/home/smartth/STM32Cube/Repository/STM32Cube_FW_F1_V1.8.4//Middlewares/ST/STM32_USB_Device_Library/Core/Src/usbd_ctlreq.c **** 
 238:/home/smartth/STM32Cube/Repository/STM32Cube_FW_F1_V1.8.4//Middlewares/ST/STM32_USB_Device_Library/Core/Src/usbd_ctlreq.c ****   switch (req->bmRequest & USB_REQ_TYPE_MASK)
 239:/home/smartth/STM32Cube/Repository/STM32Cube_FW_F1_V1.8.4//Middlewares/ST/STM32_USB_Device_Library/Core/Src/usbd_ctlreq.c ****   {
 240:/home/smartth/STM32Cube/Repository/STM32Cube_FW_F1_V1.8.4//Middlewares/ST/STM32_USB_Device_Library/Core/Src/usbd_ctlreq.c ****     case USB_REQ_TYPE_CLASS:
 241:/home/smartth/STM32Cube/Repository/STM32Cube_FW_F1_V1.8.4//Middlewares/ST/STM32_USB_Device_Library/Core/Src/usbd_ctlreq.c ****     case USB_REQ_TYPE_VENDOR:
 242:/home/smartth/STM32Cube/Repository/STM32Cube_FW_F1_V1.8.4//Middlewares/ST/STM32_USB_Device_Library/Core/Src/usbd_ctlreq.c ****       pdev->pClass->Setup(pdev, req);
 243:/home/smartth/STM32Cube/Repository/STM32Cube_FW_F1_V1.8.4//Middlewares/ST/STM32_USB_Device_Library/Core/Src/usbd_ctlreq.c ****       break;
 244:/home/smartth/STM32Cube/Repository/STM32Cube_FW_F1_V1.8.4//Middlewares/ST/STM32_USB_Device_Library/Core/Src/usbd_ctlreq.c **** 
 245:/home/smartth/STM32Cube/Repository/STM32Cube_FW_F1_V1.8.4//Middlewares/ST/STM32_USB_Device_Library/Core/Src/usbd_ctlreq.c ****     case USB_REQ_TYPE_STANDARD:
 246:/home/smartth/STM32Cube/Repository/STM32Cube_FW_F1_V1.8.4//Middlewares/ST/STM32_USB_Device_Library/Core/Src/usbd_ctlreq.c ****       /* Check if it is a class request */
 247:/home/smartth/STM32Cube/Repository/STM32Cube_FW_F1_V1.8.4//Middlewares/ST/STM32_USB_Device_Library/Core/Src/usbd_ctlreq.c ****       if ((req->bmRequest & 0x60U) == 0x20U)
 248:/home/smartth/STM32Cube/Repository/STM32Cube_FW_F1_V1.8.4//Middlewares/ST/STM32_USB_Device_Library/Core/Src/usbd_ctlreq.c ****       {
 249:/home/smartth/STM32Cube/Repository/STM32Cube_FW_F1_V1.8.4//Middlewares/ST/STM32_USB_Device_Library/Core/Src/usbd_ctlreq.c ****         ret = (USBD_StatusTypeDef)pdev->pClass->Setup(pdev, req);
 250:/home/smartth/STM32Cube/Repository/STM32Cube_FW_F1_V1.8.4//Middlewares/ST/STM32_USB_Device_Library/Core/Src/usbd_ctlreq.c **** 
 251:/home/smartth/STM32Cube/Repository/STM32Cube_FW_F1_V1.8.4//Middlewares/ST/STM32_USB_Device_Library/Core/Src/usbd_ctlreq.c ****         return ret;
 252:/home/smartth/STM32Cube/Repository/STM32Cube_FW_F1_V1.8.4//Middlewares/ST/STM32_USB_Device_Library/Core/Src/usbd_ctlreq.c ****       }
 253:/home/smartth/STM32Cube/Repository/STM32Cube_FW_F1_V1.8.4//Middlewares/ST/STM32_USB_Device_Library/Core/Src/usbd_ctlreq.c **** 
 254:/home/smartth/STM32Cube/Repository/STM32Cube_FW_F1_V1.8.4//Middlewares/ST/STM32_USB_Device_Library/Core/Src/usbd_ctlreq.c ****       switch (req->bRequest)
 255:/home/smartth/STM32Cube/Repository/STM32Cube_FW_F1_V1.8.4//Middlewares/ST/STM32_USB_Device_Library/Core/Src/usbd_ctlreq.c ****       {
 256:/home/smartth/STM32Cube/Repository/STM32Cube_FW_F1_V1.8.4//Middlewares/ST/STM32_USB_Device_Library/Core/Src/usbd_ctlreq.c ****         case USB_REQ_SET_FEATURE:
 257:/home/smartth/STM32Cube/Repository/STM32Cube_FW_F1_V1.8.4//Middlewares/ST/STM32_USB_Device_Library/Core/Src/usbd_ctlreq.c ****           switch (pdev->dev_state)
 258:/home/smartth/STM32Cube/Repository/STM32Cube_FW_F1_V1.8.4//Middlewares/ST/STM32_USB_Device_Library/Core/Src/usbd_ctlreq.c ****           {
 259:/home/smartth/STM32Cube/Repository/STM32Cube_FW_F1_V1.8.4//Middlewares/ST/STM32_USB_Device_Library/Core/Src/usbd_ctlreq.c ****             case USBD_STATE_ADDRESSED:
 260:/home/smartth/STM32Cube/Repository/STM32Cube_FW_F1_V1.8.4//Middlewares/ST/STM32_USB_Device_Library/Core/Src/usbd_ctlreq.c ****               if ((ep_addr != 0x00U) && (ep_addr != 0x80U))
ARM GAS  /tmp/ccVKyOYc.s 			page 6


 261:/home/smartth/STM32Cube/Repository/STM32Cube_FW_F1_V1.8.4//Middlewares/ST/STM32_USB_Device_Library/Core/Src/usbd_ctlreq.c ****               {
 262:/home/smartth/STM32Cube/Repository/STM32Cube_FW_F1_V1.8.4//Middlewares/ST/STM32_USB_Device_Library/Core/Src/usbd_ctlreq.c ****                 USBD_LL_StallEP(pdev, ep_addr);
 263:/home/smartth/STM32Cube/Repository/STM32Cube_FW_F1_V1.8.4//Middlewares/ST/STM32_USB_Device_Library/Core/Src/usbd_ctlreq.c ****                 USBD_LL_StallEP(pdev, 0x80U);
 264:/home/smartth/STM32Cube/Repository/STM32Cube_FW_F1_V1.8.4//Middlewares/ST/STM32_USB_Device_Library/Core/Src/usbd_ctlreq.c ****               }
 265:/home/smartth/STM32Cube/Repository/STM32Cube_FW_F1_V1.8.4//Middlewares/ST/STM32_USB_Device_Library/Core/Src/usbd_ctlreq.c ****               else
 266:/home/smartth/STM32Cube/Repository/STM32Cube_FW_F1_V1.8.4//Middlewares/ST/STM32_USB_Device_Library/Core/Src/usbd_ctlreq.c ****               {
 267:/home/smartth/STM32Cube/Repository/STM32Cube_FW_F1_V1.8.4//Middlewares/ST/STM32_USB_Device_Library/Core/Src/usbd_ctlreq.c ****                 USBD_CtlError(pdev, req);
 268:/home/smartth/STM32Cube/Repository/STM32Cube_FW_F1_V1.8.4//Middlewares/ST/STM32_USB_Device_Library/Core/Src/usbd_ctlreq.c ****               }
 269:/home/smartth/STM32Cube/Repository/STM32Cube_FW_F1_V1.8.4//Middlewares/ST/STM32_USB_Device_Library/Core/Src/usbd_ctlreq.c ****               break;
 270:/home/smartth/STM32Cube/Repository/STM32Cube_FW_F1_V1.8.4//Middlewares/ST/STM32_USB_Device_Library/Core/Src/usbd_ctlreq.c **** 
 271:/home/smartth/STM32Cube/Repository/STM32Cube_FW_F1_V1.8.4//Middlewares/ST/STM32_USB_Device_Library/Core/Src/usbd_ctlreq.c ****             case USBD_STATE_CONFIGURED:
 272:/home/smartth/STM32Cube/Repository/STM32Cube_FW_F1_V1.8.4//Middlewares/ST/STM32_USB_Device_Library/Core/Src/usbd_ctlreq.c ****               if (req->wValue == USB_FEATURE_EP_HALT)
 273:/home/smartth/STM32Cube/Repository/STM32Cube_FW_F1_V1.8.4//Middlewares/ST/STM32_USB_Device_Library/Core/Src/usbd_ctlreq.c ****               {
 274:/home/smartth/STM32Cube/Repository/STM32Cube_FW_F1_V1.8.4//Middlewares/ST/STM32_USB_Device_Library/Core/Src/usbd_ctlreq.c ****                 if ((ep_addr != 0x00U) &&
 275:/home/smartth/STM32Cube/Repository/STM32Cube_FW_F1_V1.8.4//Middlewares/ST/STM32_USB_Device_Library/Core/Src/usbd_ctlreq.c ****                     (ep_addr != 0x80U) && (req->wLength == 0x00U))
 276:/home/smartth/STM32Cube/Repository/STM32Cube_FW_F1_V1.8.4//Middlewares/ST/STM32_USB_Device_Library/Core/Src/usbd_ctlreq.c ****                 {
 277:/home/smartth/STM32Cube/Repository/STM32Cube_FW_F1_V1.8.4//Middlewares/ST/STM32_USB_Device_Library/Core/Src/usbd_ctlreq.c ****                   USBD_LL_StallEP(pdev, ep_addr);
 278:/home/smartth/STM32Cube/Repository/STM32Cube_FW_F1_V1.8.4//Middlewares/ST/STM32_USB_Device_Library/Core/Src/usbd_ctlreq.c ****                 }
 279:/home/smartth/STM32Cube/Repository/STM32Cube_FW_F1_V1.8.4//Middlewares/ST/STM32_USB_Device_Library/Core/Src/usbd_ctlreq.c ****               }
 280:/home/smartth/STM32Cube/Repository/STM32Cube_FW_F1_V1.8.4//Middlewares/ST/STM32_USB_Device_Library/Core/Src/usbd_ctlreq.c ****               USBD_CtlSendStatus(pdev);
 281:/home/smartth/STM32Cube/Repository/STM32Cube_FW_F1_V1.8.4//Middlewares/ST/STM32_USB_Device_Library/Core/Src/usbd_ctlreq.c **** 
 282:/home/smartth/STM32Cube/Repository/STM32Cube_FW_F1_V1.8.4//Middlewares/ST/STM32_USB_Device_Library/Core/Src/usbd_ctlreq.c ****               break;
 283:/home/smartth/STM32Cube/Repository/STM32Cube_FW_F1_V1.8.4//Middlewares/ST/STM32_USB_Device_Library/Core/Src/usbd_ctlreq.c **** 
 284:/home/smartth/STM32Cube/Repository/STM32Cube_FW_F1_V1.8.4//Middlewares/ST/STM32_USB_Device_Library/Core/Src/usbd_ctlreq.c ****             default:
 285:/home/smartth/STM32Cube/Repository/STM32Cube_FW_F1_V1.8.4//Middlewares/ST/STM32_USB_Device_Library/Core/Src/usbd_ctlreq.c ****               USBD_CtlError(pdev, req);
 286:/home/smartth/STM32Cube/Repository/STM32Cube_FW_F1_V1.8.4//Middlewares/ST/STM32_USB_Device_Library/Core/Src/usbd_ctlreq.c ****               break;
 287:/home/smartth/STM32Cube/Repository/STM32Cube_FW_F1_V1.8.4//Middlewares/ST/STM32_USB_Device_Library/Core/Src/usbd_ctlreq.c ****           }
 288:/home/smartth/STM32Cube/Repository/STM32Cube_FW_F1_V1.8.4//Middlewares/ST/STM32_USB_Device_Library/Core/Src/usbd_ctlreq.c ****           break;
 289:/home/smartth/STM32Cube/Repository/STM32Cube_FW_F1_V1.8.4//Middlewares/ST/STM32_USB_Device_Library/Core/Src/usbd_ctlreq.c **** 
 290:/home/smartth/STM32Cube/Repository/STM32Cube_FW_F1_V1.8.4//Middlewares/ST/STM32_USB_Device_Library/Core/Src/usbd_ctlreq.c ****         case USB_REQ_CLEAR_FEATURE:
 291:/home/smartth/STM32Cube/Repository/STM32Cube_FW_F1_V1.8.4//Middlewares/ST/STM32_USB_Device_Library/Core/Src/usbd_ctlreq.c **** 
 292:/home/smartth/STM32Cube/Repository/STM32Cube_FW_F1_V1.8.4//Middlewares/ST/STM32_USB_Device_Library/Core/Src/usbd_ctlreq.c ****           switch (pdev->dev_state)
 293:/home/smartth/STM32Cube/Repository/STM32Cube_FW_F1_V1.8.4//Middlewares/ST/STM32_USB_Device_Library/Core/Src/usbd_ctlreq.c ****           {
 294:/home/smartth/STM32Cube/Repository/STM32Cube_FW_F1_V1.8.4//Middlewares/ST/STM32_USB_Device_Library/Core/Src/usbd_ctlreq.c ****             case USBD_STATE_ADDRESSED:
 295:/home/smartth/STM32Cube/Repository/STM32Cube_FW_F1_V1.8.4//Middlewares/ST/STM32_USB_Device_Library/Core/Src/usbd_ctlreq.c ****               if ((ep_addr != 0x00U) && (ep_addr != 0x80U))
 296:/home/smartth/STM32Cube/Repository/STM32Cube_FW_F1_V1.8.4//Middlewares/ST/STM32_USB_Device_Library/Core/Src/usbd_ctlreq.c ****               {
 297:/home/smartth/STM32Cube/Repository/STM32Cube_FW_F1_V1.8.4//Middlewares/ST/STM32_USB_Device_Library/Core/Src/usbd_ctlreq.c ****                 USBD_LL_StallEP(pdev, ep_addr);
 298:/home/smartth/STM32Cube/Repository/STM32Cube_FW_F1_V1.8.4//Middlewares/ST/STM32_USB_Device_Library/Core/Src/usbd_ctlreq.c ****                 USBD_LL_StallEP(pdev, 0x80U);
 299:/home/smartth/STM32Cube/Repository/STM32Cube_FW_F1_V1.8.4//Middlewares/ST/STM32_USB_Device_Library/Core/Src/usbd_ctlreq.c ****               }
 300:/home/smartth/STM32Cube/Repository/STM32Cube_FW_F1_V1.8.4//Middlewares/ST/STM32_USB_Device_Library/Core/Src/usbd_ctlreq.c ****               else
 301:/home/smartth/STM32Cube/Repository/STM32Cube_FW_F1_V1.8.4//Middlewares/ST/STM32_USB_Device_Library/Core/Src/usbd_ctlreq.c ****               {
 302:/home/smartth/STM32Cube/Repository/STM32Cube_FW_F1_V1.8.4//Middlewares/ST/STM32_USB_Device_Library/Core/Src/usbd_ctlreq.c ****                 USBD_CtlError(pdev, req);
 303:/home/smartth/STM32Cube/Repository/STM32Cube_FW_F1_V1.8.4//Middlewares/ST/STM32_USB_Device_Library/Core/Src/usbd_ctlreq.c ****               }
 304:/home/smartth/STM32Cube/Repository/STM32Cube_FW_F1_V1.8.4//Middlewares/ST/STM32_USB_Device_Library/Core/Src/usbd_ctlreq.c ****               break;
 305:/home/smartth/STM32Cube/Repository/STM32Cube_FW_F1_V1.8.4//Middlewares/ST/STM32_USB_Device_Library/Core/Src/usbd_ctlreq.c **** 
 306:/home/smartth/STM32Cube/Repository/STM32Cube_FW_F1_V1.8.4//Middlewares/ST/STM32_USB_Device_Library/Core/Src/usbd_ctlreq.c ****             case USBD_STATE_CONFIGURED:
 307:/home/smartth/STM32Cube/Repository/STM32Cube_FW_F1_V1.8.4//Middlewares/ST/STM32_USB_Device_Library/Core/Src/usbd_ctlreq.c ****               if (req->wValue == USB_FEATURE_EP_HALT)
 308:/home/smartth/STM32Cube/Repository/STM32Cube_FW_F1_V1.8.4//Middlewares/ST/STM32_USB_Device_Library/Core/Src/usbd_ctlreq.c ****               {
 309:/home/smartth/STM32Cube/Repository/STM32Cube_FW_F1_V1.8.4//Middlewares/ST/STM32_USB_Device_Library/Core/Src/usbd_ctlreq.c ****                 if ((ep_addr & 0x7FU) != 0x00U)
 310:/home/smartth/STM32Cube/Repository/STM32Cube_FW_F1_V1.8.4//Middlewares/ST/STM32_USB_Device_Library/Core/Src/usbd_ctlreq.c ****                 {
 311:/home/smartth/STM32Cube/Repository/STM32Cube_FW_F1_V1.8.4//Middlewares/ST/STM32_USB_Device_Library/Core/Src/usbd_ctlreq.c ****                   USBD_LL_ClearStallEP(pdev, ep_addr);
 312:/home/smartth/STM32Cube/Repository/STM32Cube_FW_F1_V1.8.4//Middlewares/ST/STM32_USB_Device_Library/Core/Src/usbd_ctlreq.c ****                 }
 313:/home/smartth/STM32Cube/Repository/STM32Cube_FW_F1_V1.8.4//Middlewares/ST/STM32_USB_Device_Library/Core/Src/usbd_ctlreq.c ****                 USBD_CtlSendStatus(pdev);
 314:/home/smartth/STM32Cube/Repository/STM32Cube_FW_F1_V1.8.4//Middlewares/ST/STM32_USB_Device_Library/Core/Src/usbd_ctlreq.c ****               }
 315:/home/smartth/STM32Cube/Repository/STM32Cube_FW_F1_V1.8.4//Middlewares/ST/STM32_USB_Device_Library/Core/Src/usbd_ctlreq.c ****               break;
 316:/home/smartth/STM32Cube/Repository/STM32Cube_FW_F1_V1.8.4//Middlewares/ST/STM32_USB_Device_Library/Core/Src/usbd_ctlreq.c **** 
 317:/home/smartth/STM32Cube/Repository/STM32Cube_FW_F1_V1.8.4//Middlewares/ST/STM32_USB_Device_Library/Core/Src/usbd_ctlreq.c ****             default:
ARM GAS  /tmp/ccVKyOYc.s 			page 7


 318:/home/smartth/STM32Cube/Repository/STM32Cube_FW_F1_V1.8.4//Middlewares/ST/STM32_USB_Device_Library/Core/Src/usbd_ctlreq.c ****               USBD_CtlError(pdev, req);
 319:/home/smartth/STM32Cube/Repository/STM32Cube_FW_F1_V1.8.4//Middlewares/ST/STM32_USB_Device_Library/Core/Src/usbd_ctlreq.c ****               break;
 320:/home/smartth/STM32Cube/Repository/STM32Cube_FW_F1_V1.8.4//Middlewares/ST/STM32_USB_Device_Library/Core/Src/usbd_ctlreq.c ****           }
 321:/home/smartth/STM32Cube/Repository/STM32Cube_FW_F1_V1.8.4//Middlewares/ST/STM32_USB_Device_Library/Core/Src/usbd_ctlreq.c ****           break;
 322:/home/smartth/STM32Cube/Repository/STM32Cube_FW_F1_V1.8.4//Middlewares/ST/STM32_USB_Device_Library/Core/Src/usbd_ctlreq.c **** 
 323:/home/smartth/STM32Cube/Repository/STM32Cube_FW_F1_V1.8.4//Middlewares/ST/STM32_USB_Device_Library/Core/Src/usbd_ctlreq.c ****         case USB_REQ_GET_STATUS:
 324:/home/smartth/STM32Cube/Repository/STM32Cube_FW_F1_V1.8.4//Middlewares/ST/STM32_USB_Device_Library/Core/Src/usbd_ctlreq.c ****           switch (pdev->dev_state)
 325:/home/smartth/STM32Cube/Repository/STM32Cube_FW_F1_V1.8.4//Middlewares/ST/STM32_USB_Device_Library/Core/Src/usbd_ctlreq.c ****           {
 326:/home/smartth/STM32Cube/Repository/STM32Cube_FW_F1_V1.8.4//Middlewares/ST/STM32_USB_Device_Library/Core/Src/usbd_ctlreq.c ****             case USBD_STATE_ADDRESSED:
 327:/home/smartth/STM32Cube/Repository/STM32Cube_FW_F1_V1.8.4//Middlewares/ST/STM32_USB_Device_Library/Core/Src/usbd_ctlreq.c ****               if ((ep_addr != 0x00U) && (ep_addr != 0x80U))
 328:/home/smartth/STM32Cube/Repository/STM32Cube_FW_F1_V1.8.4//Middlewares/ST/STM32_USB_Device_Library/Core/Src/usbd_ctlreq.c ****               {
 329:/home/smartth/STM32Cube/Repository/STM32Cube_FW_F1_V1.8.4//Middlewares/ST/STM32_USB_Device_Library/Core/Src/usbd_ctlreq.c ****                 USBD_CtlError(pdev, req);
 330:/home/smartth/STM32Cube/Repository/STM32Cube_FW_F1_V1.8.4//Middlewares/ST/STM32_USB_Device_Library/Core/Src/usbd_ctlreq.c ****                 break;
 331:/home/smartth/STM32Cube/Repository/STM32Cube_FW_F1_V1.8.4//Middlewares/ST/STM32_USB_Device_Library/Core/Src/usbd_ctlreq.c ****               }
 332:/home/smartth/STM32Cube/Repository/STM32Cube_FW_F1_V1.8.4//Middlewares/ST/STM32_USB_Device_Library/Core/Src/usbd_ctlreq.c ****               pep = ((ep_addr & 0x80U) == 0x80U) ? &pdev->ep_in[ep_addr & 0x7FU] : \
 333:/home/smartth/STM32Cube/Repository/STM32Cube_FW_F1_V1.8.4//Middlewares/ST/STM32_USB_Device_Library/Core/Src/usbd_ctlreq.c ****                     &pdev->ep_out[ep_addr & 0x7FU];
 334:/home/smartth/STM32Cube/Repository/STM32Cube_FW_F1_V1.8.4//Middlewares/ST/STM32_USB_Device_Library/Core/Src/usbd_ctlreq.c **** 
 335:/home/smartth/STM32Cube/Repository/STM32Cube_FW_F1_V1.8.4//Middlewares/ST/STM32_USB_Device_Library/Core/Src/usbd_ctlreq.c ****               pep->status = 0x0000U;
 336:/home/smartth/STM32Cube/Repository/STM32Cube_FW_F1_V1.8.4//Middlewares/ST/STM32_USB_Device_Library/Core/Src/usbd_ctlreq.c **** 
 337:/home/smartth/STM32Cube/Repository/STM32Cube_FW_F1_V1.8.4//Middlewares/ST/STM32_USB_Device_Library/Core/Src/usbd_ctlreq.c ****               USBD_CtlSendData(pdev, (uint8_t *)(void *)&pep->status, 2U);
 338:/home/smartth/STM32Cube/Repository/STM32Cube_FW_F1_V1.8.4//Middlewares/ST/STM32_USB_Device_Library/Core/Src/usbd_ctlreq.c ****               break;
 339:/home/smartth/STM32Cube/Repository/STM32Cube_FW_F1_V1.8.4//Middlewares/ST/STM32_USB_Device_Library/Core/Src/usbd_ctlreq.c **** 
 340:/home/smartth/STM32Cube/Repository/STM32Cube_FW_F1_V1.8.4//Middlewares/ST/STM32_USB_Device_Library/Core/Src/usbd_ctlreq.c ****             case USBD_STATE_CONFIGURED:
 341:/home/smartth/STM32Cube/Repository/STM32Cube_FW_F1_V1.8.4//Middlewares/ST/STM32_USB_Device_Library/Core/Src/usbd_ctlreq.c ****               if ((ep_addr & 0x80U) == 0x80U)
 342:/home/smartth/STM32Cube/Repository/STM32Cube_FW_F1_V1.8.4//Middlewares/ST/STM32_USB_Device_Library/Core/Src/usbd_ctlreq.c ****               {
 343:/home/smartth/STM32Cube/Repository/STM32Cube_FW_F1_V1.8.4//Middlewares/ST/STM32_USB_Device_Library/Core/Src/usbd_ctlreq.c ****                 if (pdev->ep_in[ep_addr & 0xFU].is_used == 0U)
 344:/home/smartth/STM32Cube/Repository/STM32Cube_FW_F1_V1.8.4//Middlewares/ST/STM32_USB_Device_Library/Core/Src/usbd_ctlreq.c ****                 {
 345:/home/smartth/STM32Cube/Repository/STM32Cube_FW_F1_V1.8.4//Middlewares/ST/STM32_USB_Device_Library/Core/Src/usbd_ctlreq.c ****                   USBD_CtlError(pdev, req);
 346:/home/smartth/STM32Cube/Repository/STM32Cube_FW_F1_V1.8.4//Middlewares/ST/STM32_USB_Device_Library/Core/Src/usbd_ctlreq.c ****                   break;
 347:/home/smartth/STM32Cube/Repository/STM32Cube_FW_F1_V1.8.4//Middlewares/ST/STM32_USB_Device_Library/Core/Src/usbd_ctlreq.c ****                 }
 348:/home/smartth/STM32Cube/Repository/STM32Cube_FW_F1_V1.8.4//Middlewares/ST/STM32_USB_Device_Library/Core/Src/usbd_ctlreq.c ****               }
 349:/home/smartth/STM32Cube/Repository/STM32Cube_FW_F1_V1.8.4//Middlewares/ST/STM32_USB_Device_Library/Core/Src/usbd_ctlreq.c ****               else
 350:/home/smartth/STM32Cube/Repository/STM32Cube_FW_F1_V1.8.4//Middlewares/ST/STM32_USB_Device_Library/Core/Src/usbd_ctlreq.c ****               {
 351:/home/smartth/STM32Cube/Repository/STM32Cube_FW_F1_V1.8.4//Middlewares/ST/STM32_USB_Device_Library/Core/Src/usbd_ctlreq.c ****                 if (pdev->ep_out[ep_addr & 0xFU].is_used == 0U)
 352:/home/smartth/STM32Cube/Repository/STM32Cube_FW_F1_V1.8.4//Middlewares/ST/STM32_USB_Device_Library/Core/Src/usbd_ctlreq.c ****                 {
 353:/home/smartth/STM32Cube/Repository/STM32Cube_FW_F1_V1.8.4//Middlewares/ST/STM32_USB_Device_Library/Core/Src/usbd_ctlreq.c ****                   USBD_CtlError(pdev, req);
 354:/home/smartth/STM32Cube/Repository/STM32Cube_FW_F1_V1.8.4//Middlewares/ST/STM32_USB_Device_Library/Core/Src/usbd_ctlreq.c ****                   break;
 355:/home/smartth/STM32Cube/Repository/STM32Cube_FW_F1_V1.8.4//Middlewares/ST/STM32_USB_Device_Library/Core/Src/usbd_ctlreq.c ****                 }
 356:/home/smartth/STM32Cube/Repository/STM32Cube_FW_F1_V1.8.4//Middlewares/ST/STM32_USB_Device_Library/Core/Src/usbd_ctlreq.c ****               }
 357:/home/smartth/STM32Cube/Repository/STM32Cube_FW_F1_V1.8.4//Middlewares/ST/STM32_USB_Device_Library/Core/Src/usbd_ctlreq.c **** 
 358:/home/smartth/STM32Cube/Repository/STM32Cube_FW_F1_V1.8.4//Middlewares/ST/STM32_USB_Device_Library/Core/Src/usbd_ctlreq.c ****               pep = ((ep_addr & 0x80U) == 0x80U) ? &pdev->ep_in[ep_addr & 0x7FU] : \
 359:/home/smartth/STM32Cube/Repository/STM32Cube_FW_F1_V1.8.4//Middlewares/ST/STM32_USB_Device_Library/Core/Src/usbd_ctlreq.c ****                     &pdev->ep_out[ep_addr & 0x7FU];
 360:/home/smartth/STM32Cube/Repository/STM32Cube_FW_F1_V1.8.4//Middlewares/ST/STM32_USB_Device_Library/Core/Src/usbd_ctlreq.c **** 
 361:/home/smartth/STM32Cube/Repository/STM32Cube_FW_F1_V1.8.4//Middlewares/ST/STM32_USB_Device_Library/Core/Src/usbd_ctlreq.c ****               if ((ep_addr == 0x00U) || (ep_addr == 0x80U))
 362:/home/smartth/STM32Cube/Repository/STM32Cube_FW_F1_V1.8.4//Middlewares/ST/STM32_USB_Device_Library/Core/Src/usbd_ctlreq.c ****               {
 363:/home/smartth/STM32Cube/Repository/STM32Cube_FW_F1_V1.8.4//Middlewares/ST/STM32_USB_Device_Library/Core/Src/usbd_ctlreq.c ****                 pep->status = 0x0000U;
 364:/home/smartth/STM32Cube/Repository/STM32Cube_FW_F1_V1.8.4//Middlewares/ST/STM32_USB_Device_Library/Core/Src/usbd_ctlreq.c ****               }
 365:/home/smartth/STM32Cube/Repository/STM32Cube_FW_F1_V1.8.4//Middlewares/ST/STM32_USB_Device_Library/Core/Src/usbd_ctlreq.c ****               else if (USBD_LL_IsStallEP(pdev, ep_addr))
 366:/home/smartth/STM32Cube/Repository/STM32Cube_FW_F1_V1.8.4//Middlewares/ST/STM32_USB_Device_Library/Core/Src/usbd_ctlreq.c ****               {
 367:/home/smartth/STM32Cube/Repository/STM32Cube_FW_F1_V1.8.4//Middlewares/ST/STM32_USB_Device_Library/Core/Src/usbd_ctlreq.c ****                 pep->status = 0x0001U;
 368:/home/smartth/STM32Cube/Repository/STM32Cube_FW_F1_V1.8.4//Middlewares/ST/STM32_USB_Device_Library/Core/Src/usbd_ctlreq.c ****               }
 369:/home/smartth/STM32Cube/Repository/STM32Cube_FW_F1_V1.8.4//Middlewares/ST/STM32_USB_Device_Library/Core/Src/usbd_ctlreq.c ****               else
 370:/home/smartth/STM32Cube/Repository/STM32Cube_FW_F1_V1.8.4//Middlewares/ST/STM32_USB_Device_Library/Core/Src/usbd_ctlreq.c ****               {
 371:/home/smartth/STM32Cube/Repository/STM32Cube_FW_F1_V1.8.4//Middlewares/ST/STM32_USB_Device_Library/Core/Src/usbd_ctlreq.c ****                 pep->status = 0x0000U;
 372:/home/smartth/STM32Cube/Repository/STM32Cube_FW_F1_V1.8.4//Middlewares/ST/STM32_USB_Device_Library/Core/Src/usbd_ctlreq.c ****               }
 373:/home/smartth/STM32Cube/Repository/STM32Cube_FW_F1_V1.8.4//Middlewares/ST/STM32_USB_Device_Library/Core/Src/usbd_ctlreq.c **** 
 374:/home/smartth/STM32Cube/Repository/STM32Cube_FW_F1_V1.8.4//Middlewares/ST/STM32_USB_Device_Library/Core/Src/usbd_ctlreq.c ****               USBD_CtlSendData(pdev, (uint8_t *)(void *)&pep->status, 2U);
ARM GAS  /tmp/ccVKyOYc.s 			page 8


 375:/home/smartth/STM32Cube/Repository/STM32Cube_FW_F1_V1.8.4//Middlewares/ST/STM32_USB_Device_Library/Core/Src/usbd_ctlreq.c ****               break;
 376:/home/smartth/STM32Cube/Repository/STM32Cube_FW_F1_V1.8.4//Middlewares/ST/STM32_USB_Device_Library/Core/Src/usbd_ctlreq.c **** 
 377:/home/smartth/STM32Cube/Repository/STM32Cube_FW_F1_V1.8.4//Middlewares/ST/STM32_USB_Device_Library/Core/Src/usbd_ctlreq.c ****             default:
 378:/home/smartth/STM32Cube/Repository/STM32Cube_FW_F1_V1.8.4//Middlewares/ST/STM32_USB_Device_Library/Core/Src/usbd_ctlreq.c ****               USBD_CtlError(pdev, req);
 379:/home/smartth/STM32Cube/Repository/STM32Cube_FW_F1_V1.8.4//Middlewares/ST/STM32_USB_Device_Library/Core/Src/usbd_ctlreq.c ****               break;
 380:/home/smartth/STM32Cube/Repository/STM32Cube_FW_F1_V1.8.4//Middlewares/ST/STM32_USB_Device_Library/Core/Src/usbd_ctlreq.c ****           }
 381:/home/smartth/STM32Cube/Repository/STM32Cube_FW_F1_V1.8.4//Middlewares/ST/STM32_USB_Device_Library/Core/Src/usbd_ctlreq.c ****           break;
 382:/home/smartth/STM32Cube/Repository/STM32Cube_FW_F1_V1.8.4//Middlewares/ST/STM32_USB_Device_Library/Core/Src/usbd_ctlreq.c **** 
 383:/home/smartth/STM32Cube/Repository/STM32Cube_FW_F1_V1.8.4//Middlewares/ST/STM32_USB_Device_Library/Core/Src/usbd_ctlreq.c ****         default:
 384:/home/smartth/STM32Cube/Repository/STM32Cube_FW_F1_V1.8.4//Middlewares/ST/STM32_USB_Device_Library/Core/Src/usbd_ctlreq.c ****           USBD_CtlError(pdev, req);
 385:/home/smartth/STM32Cube/Repository/STM32Cube_FW_F1_V1.8.4//Middlewares/ST/STM32_USB_Device_Library/Core/Src/usbd_ctlreq.c ****           break;
 386:/home/smartth/STM32Cube/Repository/STM32Cube_FW_F1_V1.8.4//Middlewares/ST/STM32_USB_Device_Library/Core/Src/usbd_ctlreq.c ****       }
 387:/home/smartth/STM32Cube/Repository/STM32Cube_FW_F1_V1.8.4//Middlewares/ST/STM32_USB_Device_Library/Core/Src/usbd_ctlreq.c ****       break;
 388:/home/smartth/STM32Cube/Repository/STM32Cube_FW_F1_V1.8.4//Middlewares/ST/STM32_USB_Device_Library/Core/Src/usbd_ctlreq.c **** 
 389:/home/smartth/STM32Cube/Repository/STM32Cube_FW_F1_V1.8.4//Middlewares/ST/STM32_USB_Device_Library/Core/Src/usbd_ctlreq.c ****     default:
 390:/home/smartth/STM32Cube/Repository/STM32Cube_FW_F1_V1.8.4//Middlewares/ST/STM32_USB_Device_Library/Core/Src/usbd_ctlreq.c ****       USBD_CtlError(pdev, req);
 391:/home/smartth/STM32Cube/Repository/STM32Cube_FW_F1_V1.8.4//Middlewares/ST/STM32_USB_Device_Library/Core/Src/usbd_ctlreq.c ****       break;
 392:/home/smartth/STM32Cube/Repository/STM32Cube_FW_F1_V1.8.4//Middlewares/ST/STM32_USB_Device_Library/Core/Src/usbd_ctlreq.c ****   }
 393:/home/smartth/STM32Cube/Repository/STM32Cube_FW_F1_V1.8.4//Middlewares/ST/STM32_USB_Device_Library/Core/Src/usbd_ctlreq.c **** 
 394:/home/smartth/STM32Cube/Repository/STM32Cube_FW_F1_V1.8.4//Middlewares/ST/STM32_USB_Device_Library/Core/Src/usbd_ctlreq.c ****   return ret;
 395:/home/smartth/STM32Cube/Repository/STM32Cube_FW_F1_V1.8.4//Middlewares/ST/STM32_USB_Device_Library/Core/Src/usbd_ctlreq.c **** }
 396:/home/smartth/STM32Cube/Repository/STM32Cube_FW_F1_V1.8.4//Middlewares/ST/STM32_USB_Device_Library/Core/Src/usbd_ctlreq.c **** 
 397:/home/smartth/STM32Cube/Repository/STM32Cube_FW_F1_V1.8.4//Middlewares/ST/STM32_USB_Device_Library/Core/Src/usbd_ctlreq.c **** 
 398:/home/smartth/STM32Cube/Repository/STM32Cube_FW_F1_V1.8.4//Middlewares/ST/STM32_USB_Device_Library/Core/Src/usbd_ctlreq.c **** /**
 399:/home/smartth/STM32Cube/Repository/STM32Cube_FW_F1_V1.8.4//Middlewares/ST/STM32_USB_Device_Library/Core/Src/usbd_ctlreq.c **** * @brief  USBD_GetDescriptor
 400:/home/smartth/STM32Cube/Repository/STM32Cube_FW_F1_V1.8.4//Middlewares/ST/STM32_USB_Device_Library/Core/Src/usbd_ctlreq.c **** *         Handle Get Descriptor requests
 401:/home/smartth/STM32Cube/Repository/STM32Cube_FW_F1_V1.8.4//Middlewares/ST/STM32_USB_Device_Library/Core/Src/usbd_ctlreq.c **** * @param  pdev: device instance
 402:/home/smartth/STM32Cube/Repository/STM32Cube_FW_F1_V1.8.4//Middlewares/ST/STM32_USB_Device_Library/Core/Src/usbd_ctlreq.c **** * @param  req: usb request
 403:/home/smartth/STM32Cube/Repository/STM32Cube_FW_F1_V1.8.4//Middlewares/ST/STM32_USB_Device_Library/Core/Src/usbd_ctlreq.c **** * @retval status
 404:/home/smartth/STM32Cube/Repository/STM32Cube_FW_F1_V1.8.4//Middlewares/ST/STM32_USB_Device_Library/Core/Src/usbd_ctlreq.c **** */
 405:/home/smartth/STM32Cube/Repository/STM32Cube_FW_F1_V1.8.4//Middlewares/ST/STM32_USB_Device_Library/Core/Src/usbd_ctlreq.c **** static void USBD_GetDescriptor(USBD_HandleTypeDef *pdev,
 406:/home/smartth/STM32Cube/Repository/STM32Cube_FW_F1_V1.8.4//Middlewares/ST/STM32_USB_Device_Library/Core/Src/usbd_ctlreq.c ****                                USBD_SetupReqTypedef *req)
 407:/home/smartth/STM32Cube/Repository/STM32Cube_FW_F1_V1.8.4//Middlewares/ST/STM32_USB_Device_Library/Core/Src/usbd_ctlreq.c **** {
 408:/home/smartth/STM32Cube/Repository/STM32Cube_FW_F1_V1.8.4//Middlewares/ST/STM32_USB_Device_Library/Core/Src/usbd_ctlreq.c ****   uint16_t len = 0U;
 409:/home/smartth/STM32Cube/Repository/STM32Cube_FW_F1_V1.8.4//Middlewares/ST/STM32_USB_Device_Library/Core/Src/usbd_ctlreq.c ****   uint8_t *pbuf = NULL;
 410:/home/smartth/STM32Cube/Repository/STM32Cube_FW_F1_V1.8.4//Middlewares/ST/STM32_USB_Device_Library/Core/Src/usbd_ctlreq.c ****   uint8_t err = 0U;
 411:/home/smartth/STM32Cube/Repository/STM32Cube_FW_F1_V1.8.4//Middlewares/ST/STM32_USB_Device_Library/Core/Src/usbd_ctlreq.c **** 
 412:/home/smartth/STM32Cube/Repository/STM32Cube_FW_F1_V1.8.4//Middlewares/ST/STM32_USB_Device_Library/Core/Src/usbd_ctlreq.c ****   switch (req->wValue >> 8)
 413:/home/smartth/STM32Cube/Repository/STM32Cube_FW_F1_V1.8.4//Middlewares/ST/STM32_USB_Device_Library/Core/Src/usbd_ctlreq.c ****   {
 414:/home/smartth/STM32Cube/Repository/STM32Cube_FW_F1_V1.8.4//Middlewares/ST/STM32_USB_Device_Library/Core/Src/usbd_ctlreq.c **** #if (USBD_LPM_ENABLED == 1U)
 415:/home/smartth/STM32Cube/Repository/STM32Cube_FW_F1_V1.8.4//Middlewares/ST/STM32_USB_Device_Library/Core/Src/usbd_ctlreq.c ****     case USB_DESC_TYPE_BOS:
 416:/home/smartth/STM32Cube/Repository/STM32Cube_FW_F1_V1.8.4//Middlewares/ST/STM32_USB_Device_Library/Core/Src/usbd_ctlreq.c ****       if (pdev->pDesc->GetBOSDescriptor != NULL)
 417:/home/smartth/STM32Cube/Repository/STM32Cube_FW_F1_V1.8.4//Middlewares/ST/STM32_USB_Device_Library/Core/Src/usbd_ctlreq.c ****       {
 418:/home/smartth/STM32Cube/Repository/STM32Cube_FW_F1_V1.8.4//Middlewares/ST/STM32_USB_Device_Library/Core/Src/usbd_ctlreq.c ****         pbuf = pdev->pDesc->GetBOSDescriptor(pdev->dev_speed, &len);
 419:/home/smartth/STM32Cube/Repository/STM32Cube_FW_F1_V1.8.4//Middlewares/ST/STM32_USB_Device_Library/Core/Src/usbd_ctlreq.c ****       }
 420:/home/smartth/STM32Cube/Repository/STM32Cube_FW_F1_V1.8.4//Middlewares/ST/STM32_USB_Device_Library/Core/Src/usbd_ctlreq.c ****       else
 421:/home/smartth/STM32Cube/Repository/STM32Cube_FW_F1_V1.8.4//Middlewares/ST/STM32_USB_Device_Library/Core/Src/usbd_ctlreq.c ****       {
 422:/home/smartth/STM32Cube/Repository/STM32Cube_FW_F1_V1.8.4//Middlewares/ST/STM32_USB_Device_Library/Core/Src/usbd_ctlreq.c ****         USBD_CtlError(pdev, req);
 423:/home/smartth/STM32Cube/Repository/STM32Cube_FW_F1_V1.8.4//Middlewares/ST/STM32_USB_Device_Library/Core/Src/usbd_ctlreq.c ****         err++;
 424:/home/smartth/STM32Cube/Repository/STM32Cube_FW_F1_V1.8.4//Middlewares/ST/STM32_USB_Device_Library/Core/Src/usbd_ctlreq.c ****       }
 425:/home/smartth/STM32Cube/Repository/STM32Cube_FW_F1_V1.8.4//Middlewares/ST/STM32_USB_Device_Library/Core/Src/usbd_ctlreq.c ****       break;
 426:/home/smartth/STM32Cube/Repository/STM32Cube_FW_F1_V1.8.4//Middlewares/ST/STM32_USB_Device_Library/Core/Src/usbd_ctlreq.c **** #endif
 427:/home/smartth/STM32Cube/Repository/STM32Cube_FW_F1_V1.8.4//Middlewares/ST/STM32_USB_Device_Library/Core/Src/usbd_ctlreq.c ****     case USB_DESC_TYPE_DEVICE:
 428:/home/smartth/STM32Cube/Repository/STM32Cube_FW_F1_V1.8.4//Middlewares/ST/STM32_USB_Device_Library/Core/Src/usbd_ctlreq.c ****       pbuf = pdev->pDesc->GetDeviceDescriptor(pdev->dev_speed, &len);
 429:/home/smartth/STM32Cube/Repository/STM32Cube_FW_F1_V1.8.4//Middlewares/ST/STM32_USB_Device_Library/Core/Src/usbd_ctlreq.c ****       break;
 430:/home/smartth/STM32Cube/Repository/STM32Cube_FW_F1_V1.8.4//Middlewares/ST/STM32_USB_Device_Library/Core/Src/usbd_ctlreq.c **** 
 431:/home/smartth/STM32Cube/Repository/STM32Cube_FW_F1_V1.8.4//Middlewares/ST/STM32_USB_Device_Library/Core/Src/usbd_ctlreq.c ****     case USB_DESC_TYPE_CONFIGURATION:
ARM GAS  /tmp/ccVKyOYc.s 			page 9


 432:/home/smartth/STM32Cube/Repository/STM32Cube_FW_F1_V1.8.4//Middlewares/ST/STM32_USB_Device_Library/Core/Src/usbd_ctlreq.c ****       if (pdev->dev_speed == USBD_SPEED_HIGH)
 433:/home/smartth/STM32Cube/Repository/STM32Cube_FW_F1_V1.8.4//Middlewares/ST/STM32_USB_Device_Library/Core/Src/usbd_ctlreq.c ****       {
 434:/home/smartth/STM32Cube/Repository/STM32Cube_FW_F1_V1.8.4//Middlewares/ST/STM32_USB_Device_Library/Core/Src/usbd_ctlreq.c ****         pbuf = pdev->pClass->GetHSConfigDescriptor(&len);
 435:/home/smartth/STM32Cube/Repository/STM32Cube_FW_F1_V1.8.4//Middlewares/ST/STM32_USB_Device_Library/Core/Src/usbd_ctlreq.c ****         pbuf[1] = USB_DESC_TYPE_CONFIGURATION;
 436:/home/smartth/STM32Cube/Repository/STM32Cube_FW_F1_V1.8.4//Middlewares/ST/STM32_USB_Device_Library/Core/Src/usbd_ctlreq.c ****       }
 437:/home/smartth/STM32Cube/Repository/STM32Cube_FW_F1_V1.8.4//Middlewares/ST/STM32_USB_Device_Library/Core/Src/usbd_ctlreq.c ****       else
 438:/home/smartth/STM32Cube/Repository/STM32Cube_FW_F1_V1.8.4//Middlewares/ST/STM32_USB_Device_Library/Core/Src/usbd_ctlreq.c ****       {
 439:/home/smartth/STM32Cube/Repository/STM32Cube_FW_F1_V1.8.4//Middlewares/ST/STM32_USB_Device_Library/Core/Src/usbd_ctlreq.c ****         pbuf = pdev->pClass->GetFSConfigDescriptor(&len);
 440:/home/smartth/STM32Cube/Repository/STM32Cube_FW_F1_V1.8.4//Middlewares/ST/STM32_USB_Device_Library/Core/Src/usbd_ctlreq.c ****         pbuf[1] = USB_DESC_TYPE_CONFIGURATION;
 441:/home/smartth/STM32Cube/Repository/STM32Cube_FW_F1_V1.8.4//Middlewares/ST/STM32_USB_Device_Library/Core/Src/usbd_ctlreq.c ****       }
 442:/home/smartth/STM32Cube/Repository/STM32Cube_FW_F1_V1.8.4//Middlewares/ST/STM32_USB_Device_Library/Core/Src/usbd_ctlreq.c ****       break;
 443:/home/smartth/STM32Cube/Repository/STM32Cube_FW_F1_V1.8.4//Middlewares/ST/STM32_USB_Device_Library/Core/Src/usbd_ctlreq.c **** 
 444:/home/smartth/STM32Cube/Repository/STM32Cube_FW_F1_V1.8.4//Middlewares/ST/STM32_USB_Device_Library/Core/Src/usbd_ctlreq.c ****     case USB_DESC_TYPE_STRING:
 445:/home/smartth/STM32Cube/Repository/STM32Cube_FW_F1_V1.8.4//Middlewares/ST/STM32_USB_Device_Library/Core/Src/usbd_ctlreq.c ****       switch ((uint8_t)(req->wValue))
 446:/home/smartth/STM32Cube/Repository/STM32Cube_FW_F1_V1.8.4//Middlewares/ST/STM32_USB_Device_Library/Core/Src/usbd_ctlreq.c ****       {
 447:/home/smartth/STM32Cube/Repository/STM32Cube_FW_F1_V1.8.4//Middlewares/ST/STM32_USB_Device_Library/Core/Src/usbd_ctlreq.c ****         case USBD_IDX_LANGID_STR:
 448:/home/smartth/STM32Cube/Repository/STM32Cube_FW_F1_V1.8.4//Middlewares/ST/STM32_USB_Device_Library/Core/Src/usbd_ctlreq.c ****           if (pdev->pDesc->GetLangIDStrDescriptor != NULL)
 449:/home/smartth/STM32Cube/Repository/STM32Cube_FW_F1_V1.8.4//Middlewares/ST/STM32_USB_Device_Library/Core/Src/usbd_ctlreq.c ****           {
 450:/home/smartth/STM32Cube/Repository/STM32Cube_FW_F1_V1.8.4//Middlewares/ST/STM32_USB_Device_Library/Core/Src/usbd_ctlreq.c ****             pbuf = pdev->pDesc->GetLangIDStrDescriptor(pdev->dev_speed, &len);
 451:/home/smartth/STM32Cube/Repository/STM32Cube_FW_F1_V1.8.4//Middlewares/ST/STM32_USB_Device_Library/Core/Src/usbd_ctlreq.c ****           }
 452:/home/smartth/STM32Cube/Repository/STM32Cube_FW_F1_V1.8.4//Middlewares/ST/STM32_USB_Device_Library/Core/Src/usbd_ctlreq.c ****           else
 453:/home/smartth/STM32Cube/Repository/STM32Cube_FW_F1_V1.8.4//Middlewares/ST/STM32_USB_Device_Library/Core/Src/usbd_ctlreq.c ****           {
 454:/home/smartth/STM32Cube/Repository/STM32Cube_FW_F1_V1.8.4//Middlewares/ST/STM32_USB_Device_Library/Core/Src/usbd_ctlreq.c ****             USBD_CtlError(pdev, req);
 455:/home/smartth/STM32Cube/Repository/STM32Cube_FW_F1_V1.8.4//Middlewares/ST/STM32_USB_Device_Library/Core/Src/usbd_ctlreq.c ****             err++;
 456:/home/smartth/STM32Cube/Repository/STM32Cube_FW_F1_V1.8.4//Middlewares/ST/STM32_USB_Device_Library/Core/Src/usbd_ctlreq.c ****           }
 457:/home/smartth/STM32Cube/Repository/STM32Cube_FW_F1_V1.8.4//Middlewares/ST/STM32_USB_Device_Library/Core/Src/usbd_ctlreq.c ****           break;
 458:/home/smartth/STM32Cube/Repository/STM32Cube_FW_F1_V1.8.4//Middlewares/ST/STM32_USB_Device_Library/Core/Src/usbd_ctlreq.c **** 
 459:/home/smartth/STM32Cube/Repository/STM32Cube_FW_F1_V1.8.4//Middlewares/ST/STM32_USB_Device_Library/Core/Src/usbd_ctlreq.c ****         case USBD_IDX_MFC_STR:
 460:/home/smartth/STM32Cube/Repository/STM32Cube_FW_F1_V1.8.4//Middlewares/ST/STM32_USB_Device_Library/Core/Src/usbd_ctlreq.c ****           if (pdev->pDesc->GetManufacturerStrDescriptor != NULL)
 461:/home/smartth/STM32Cube/Repository/STM32Cube_FW_F1_V1.8.4//Middlewares/ST/STM32_USB_Device_Library/Core/Src/usbd_ctlreq.c ****           {
 462:/home/smartth/STM32Cube/Repository/STM32Cube_FW_F1_V1.8.4//Middlewares/ST/STM32_USB_Device_Library/Core/Src/usbd_ctlreq.c ****             pbuf = pdev->pDesc->GetManufacturerStrDescriptor(pdev->dev_speed, &len);
 463:/home/smartth/STM32Cube/Repository/STM32Cube_FW_F1_V1.8.4//Middlewares/ST/STM32_USB_Device_Library/Core/Src/usbd_ctlreq.c ****           }
 464:/home/smartth/STM32Cube/Repository/STM32Cube_FW_F1_V1.8.4//Middlewares/ST/STM32_USB_Device_Library/Core/Src/usbd_ctlreq.c ****           else
 465:/home/smartth/STM32Cube/Repository/STM32Cube_FW_F1_V1.8.4//Middlewares/ST/STM32_USB_Device_Library/Core/Src/usbd_ctlreq.c ****           {
 466:/home/smartth/STM32Cube/Repository/STM32Cube_FW_F1_V1.8.4//Middlewares/ST/STM32_USB_Device_Library/Core/Src/usbd_ctlreq.c ****             USBD_CtlError(pdev, req);
 467:/home/smartth/STM32Cube/Repository/STM32Cube_FW_F1_V1.8.4//Middlewares/ST/STM32_USB_Device_Library/Core/Src/usbd_ctlreq.c ****             err++;
 468:/home/smartth/STM32Cube/Repository/STM32Cube_FW_F1_V1.8.4//Middlewares/ST/STM32_USB_Device_Library/Core/Src/usbd_ctlreq.c ****           }
 469:/home/smartth/STM32Cube/Repository/STM32Cube_FW_F1_V1.8.4//Middlewares/ST/STM32_USB_Device_Library/Core/Src/usbd_ctlreq.c ****           break;
 470:/home/smartth/STM32Cube/Repository/STM32Cube_FW_F1_V1.8.4//Middlewares/ST/STM32_USB_Device_Library/Core/Src/usbd_ctlreq.c **** 
 471:/home/smartth/STM32Cube/Repository/STM32Cube_FW_F1_V1.8.4//Middlewares/ST/STM32_USB_Device_Library/Core/Src/usbd_ctlreq.c ****         case USBD_IDX_PRODUCT_STR:
 472:/home/smartth/STM32Cube/Repository/STM32Cube_FW_F1_V1.8.4//Middlewares/ST/STM32_USB_Device_Library/Core/Src/usbd_ctlreq.c ****           if (pdev->pDesc->GetProductStrDescriptor != NULL)
 473:/home/smartth/STM32Cube/Repository/STM32Cube_FW_F1_V1.8.4//Middlewares/ST/STM32_USB_Device_Library/Core/Src/usbd_ctlreq.c ****           {
 474:/home/smartth/STM32Cube/Repository/STM32Cube_FW_F1_V1.8.4//Middlewares/ST/STM32_USB_Device_Library/Core/Src/usbd_ctlreq.c ****             pbuf = pdev->pDesc->GetProductStrDescriptor(pdev->dev_speed, &len);
 475:/home/smartth/STM32Cube/Repository/STM32Cube_FW_F1_V1.8.4//Middlewares/ST/STM32_USB_Device_Library/Core/Src/usbd_ctlreq.c ****           }
 476:/home/smartth/STM32Cube/Repository/STM32Cube_FW_F1_V1.8.4//Middlewares/ST/STM32_USB_Device_Library/Core/Src/usbd_ctlreq.c ****           else
 477:/home/smartth/STM32Cube/Repository/STM32Cube_FW_F1_V1.8.4//Middlewares/ST/STM32_USB_Device_Library/Core/Src/usbd_ctlreq.c ****           {
 478:/home/smartth/STM32Cube/Repository/STM32Cube_FW_F1_V1.8.4//Middlewares/ST/STM32_USB_Device_Library/Core/Src/usbd_ctlreq.c ****             USBD_CtlError(pdev, req);
 479:/home/smartth/STM32Cube/Repository/STM32Cube_FW_F1_V1.8.4//Middlewares/ST/STM32_USB_Device_Library/Core/Src/usbd_ctlreq.c ****             err++;
 480:/home/smartth/STM32Cube/Repository/STM32Cube_FW_F1_V1.8.4//Middlewares/ST/STM32_USB_Device_Library/Core/Src/usbd_ctlreq.c ****           }
 481:/home/smartth/STM32Cube/Repository/STM32Cube_FW_F1_V1.8.4//Middlewares/ST/STM32_USB_Device_Library/Core/Src/usbd_ctlreq.c ****           break;
 482:/home/smartth/STM32Cube/Repository/STM32Cube_FW_F1_V1.8.4//Middlewares/ST/STM32_USB_Device_Library/Core/Src/usbd_ctlreq.c **** 
 483:/home/smartth/STM32Cube/Repository/STM32Cube_FW_F1_V1.8.4//Middlewares/ST/STM32_USB_Device_Library/Core/Src/usbd_ctlreq.c ****         case USBD_IDX_SERIAL_STR:
 484:/home/smartth/STM32Cube/Repository/STM32Cube_FW_F1_V1.8.4//Middlewares/ST/STM32_USB_Device_Library/Core/Src/usbd_ctlreq.c ****           if (pdev->pDesc->GetSerialStrDescriptor != NULL)
 485:/home/smartth/STM32Cube/Repository/STM32Cube_FW_F1_V1.8.4//Middlewares/ST/STM32_USB_Device_Library/Core/Src/usbd_ctlreq.c ****           {
 486:/home/smartth/STM32Cube/Repository/STM32Cube_FW_F1_V1.8.4//Middlewares/ST/STM32_USB_Device_Library/Core/Src/usbd_ctlreq.c ****             pbuf = pdev->pDesc->GetSerialStrDescriptor(pdev->dev_speed, &len);
 487:/home/smartth/STM32Cube/Repository/STM32Cube_FW_F1_V1.8.4//Middlewares/ST/STM32_USB_Device_Library/Core/Src/usbd_ctlreq.c ****           }
 488:/home/smartth/STM32Cube/Repository/STM32Cube_FW_F1_V1.8.4//Middlewares/ST/STM32_USB_Device_Library/Core/Src/usbd_ctlreq.c ****           else
ARM GAS  /tmp/ccVKyOYc.s 			page 10


 489:/home/smartth/STM32Cube/Repository/STM32Cube_FW_F1_V1.8.4//Middlewares/ST/STM32_USB_Device_Library/Core/Src/usbd_ctlreq.c ****           {
 490:/home/smartth/STM32Cube/Repository/STM32Cube_FW_F1_V1.8.4//Middlewares/ST/STM32_USB_Device_Library/Core/Src/usbd_ctlreq.c ****             USBD_CtlError(pdev, req);
 491:/home/smartth/STM32Cube/Repository/STM32Cube_FW_F1_V1.8.4//Middlewares/ST/STM32_USB_Device_Library/Core/Src/usbd_ctlreq.c ****             err++;
 492:/home/smartth/STM32Cube/Repository/STM32Cube_FW_F1_V1.8.4//Middlewares/ST/STM32_USB_Device_Library/Core/Src/usbd_ctlreq.c ****           }
 493:/home/smartth/STM32Cube/Repository/STM32Cube_FW_F1_V1.8.4//Middlewares/ST/STM32_USB_Device_Library/Core/Src/usbd_ctlreq.c ****           break;
 494:/home/smartth/STM32Cube/Repository/STM32Cube_FW_F1_V1.8.4//Middlewares/ST/STM32_USB_Device_Library/Core/Src/usbd_ctlreq.c **** 
 495:/home/smartth/STM32Cube/Repository/STM32Cube_FW_F1_V1.8.4//Middlewares/ST/STM32_USB_Device_Library/Core/Src/usbd_ctlreq.c ****         case USBD_IDX_CONFIG_STR:
 496:/home/smartth/STM32Cube/Repository/STM32Cube_FW_F1_V1.8.4//Middlewares/ST/STM32_USB_Device_Library/Core/Src/usbd_ctlreq.c ****           if (pdev->pDesc->GetConfigurationStrDescriptor != NULL)
 497:/home/smartth/STM32Cube/Repository/STM32Cube_FW_F1_V1.8.4//Middlewares/ST/STM32_USB_Device_Library/Core/Src/usbd_ctlreq.c ****           {
 498:/home/smartth/STM32Cube/Repository/STM32Cube_FW_F1_V1.8.4//Middlewares/ST/STM32_USB_Device_Library/Core/Src/usbd_ctlreq.c ****             pbuf = pdev->pDesc->GetConfigurationStrDescriptor(pdev->dev_speed, &len);
 499:/home/smartth/STM32Cube/Repository/STM32Cube_FW_F1_V1.8.4//Middlewares/ST/STM32_USB_Device_Library/Core/Src/usbd_ctlreq.c ****           }
 500:/home/smartth/STM32Cube/Repository/STM32Cube_FW_F1_V1.8.4//Middlewares/ST/STM32_USB_Device_Library/Core/Src/usbd_ctlreq.c ****           else
 501:/home/smartth/STM32Cube/Repository/STM32Cube_FW_F1_V1.8.4//Middlewares/ST/STM32_USB_Device_Library/Core/Src/usbd_ctlreq.c ****           {
 502:/home/smartth/STM32Cube/Repository/STM32Cube_FW_F1_V1.8.4//Middlewares/ST/STM32_USB_Device_Library/Core/Src/usbd_ctlreq.c ****             USBD_CtlError(pdev, req);
 503:/home/smartth/STM32Cube/Repository/STM32Cube_FW_F1_V1.8.4//Middlewares/ST/STM32_USB_Device_Library/Core/Src/usbd_ctlreq.c ****             err++;
 504:/home/smartth/STM32Cube/Repository/STM32Cube_FW_F1_V1.8.4//Middlewares/ST/STM32_USB_Device_Library/Core/Src/usbd_ctlreq.c ****           }
 505:/home/smartth/STM32Cube/Repository/STM32Cube_FW_F1_V1.8.4//Middlewares/ST/STM32_USB_Device_Library/Core/Src/usbd_ctlreq.c ****           break;
 506:/home/smartth/STM32Cube/Repository/STM32Cube_FW_F1_V1.8.4//Middlewares/ST/STM32_USB_Device_Library/Core/Src/usbd_ctlreq.c **** 
 507:/home/smartth/STM32Cube/Repository/STM32Cube_FW_F1_V1.8.4//Middlewares/ST/STM32_USB_Device_Library/Core/Src/usbd_ctlreq.c ****         case USBD_IDX_INTERFACE_STR:
 508:/home/smartth/STM32Cube/Repository/STM32Cube_FW_F1_V1.8.4//Middlewares/ST/STM32_USB_Device_Library/Core/Src/usbd_ctlreq.c ****           if (pdev->pDesc->GetInterfaceStrDescriptor != NULL)
 509:/home/smartth/STM32Cube/Repository/STM32Cube_FW_F1_V1.8.4//Middlewares/ST/STM32_USB_Device_Library/Core/Src/usbd_ctlreq.c ****           {
 510:/home/smartth/STM32Cube/Repository/STM32Cube_FW_F1_V1.8.4//Middlewares/ST/STM32_USB_Device_Library/Core/Src/usbd_ctlreq.c ****             pbuf = pdev->pDesc->GetInterfaceStrDescriptor(pdev->dev_speed, &len);
 511:/home/smartth/STM32Cube/Repository/STM32Cube_FW_F1_V1.8.4//Middlewares/ST/STM32_USB_Device_Library/Core/Src/usbd_ctlreq.c ****           }
 512:/home/smartth/STM32Cube/Repository/STM32Cube_FW_F1_V1.8.4//Middlewares/ST/STM32_USB_Device_Library/Core/Src/usbd_ctlreq.c ****           else
 513:/home/smartth/STM32Cube/Repository/STM32Cube_FW_F1_V1.8.4//Middlewares/ST/STM32_USB_Device_Library/Core/Src/usbd_ctlreq.c ****           {
 514:/home/smartth/STM32Cube/Repository/STM32Cube_FW_F1_V1.8.4//Middlewares/ST/STM32_USB_Device_Library/Core/Src/usbd_ctlreq.c ****             USBD_CtlError(pdev, req);
 515:/home/smartth/STM32Cube/Repository/STM32Cube_FW_F1_V1.8.4//Middlewares/ST/STM32_USB_Device_Library/Core/Src/usbd_ctlreq.c ****             err++;
 516:/home/smartth/STM32Cube/Repository/STM32Cube_FW_F1_V1.8.4//Middlewares/ST/STM32_USB_Device_Library/Core/Src/usbd_ctlreq.c ****           }
 517:/home/smartth/STM32Cube/Repository/STM32Cube_FW_F1_V1.8.4//Middlewares/ST/STM32_USB_Device_Library/Core/Src/usbd_ctlreq.c ****           break;
 518:/home/smartth/STM32Cube/Repository/STM32Cube_FW_F1_V1.8.4//Middlewares/ST/STM32_USB_Device_Library/Core/Src/usbd_ctlreq.c **** 
 519:/home/smartth/STM32Cube/Repository/STM32Cube_FW_F1_V1.8.4//Middlewares/ST/STM32_USB_Device_Library/Core/Src/usbd_ctlreq.c ****         default:
 520:/home/smartth/STM32Cube/Repository/STM32Cube_FW_F1_V1.8.4//Middlewares/ST/STM32_USB_Device_Library/Core/Src/usbd_ctlreq.c **** #if (USBD_SUPPORT_USER_STRING_DESC == 1U)
 521:/home/smartth/STM32Cube/Repository/STM32Cube_FW_F1_V1.8.4//Middlewares/ST/STM32_USB_Device_Library/Core/Src/usbd_ctlreq.c ****           if (pdev->pClass->GetUsrStrDescriptor != NULL)
 522:/home/smartth/STM32Cube/Repository/STM32Cube_FW_F1_V1.8.4//Middlewares/ST/STM32_USB_Device_Library/Core/Src/usbd_ctlreq.c ****           {
 523:/home/smartth/STM32Cube/Repository/STM32Cube_FW_F1_V1.8.4//Middlewares/ST/STM32_USB_Device_Library/Core/Src/usbd_ctlreq.c ****             pbuf = pdev->pClass->GetUsrStrDescriptor(pdev, (req->wValue), &len);
 524:/home/smartth/STM32Cube/Repository/STM32Cube_FW_F1_V1.8.4//Middlewares/ST/STM32_USB_Device_Library/Core/Src/usbd_ctlreq.c ****           }
 525:/home/smartth/STM32Cube/Repository/STM32Cube_FW_F1_V1.8.4//Middlewares/ST/STM32_USB_Device_Library/Core/Src/usbd_ctlreq.c ****           else
 526:/home/smartth/STM32Cube/Repository/STM32Cube_FW_F1_V1.8.4//Middlewares/ST/STM32_USB_Device_Library/Core/Src/usbd_ctlreq.c ****           {
 527:/home/smartth/STM32Cube/Repository/STM32Cube_FW_F1_V1.8.4//Middlewares/ST/STM32_USB_Device_Library/Core/Src/usbd_ctlreq.c ****             USBD_CtlError(pdev, req);
 528:/home/smartth/STM32Cube/Repository/STM32Cube_FW_F1_V1.8.4//Middlewares/ST/STM32_USB_Device_Library/Core/Src/usbd_ctlreq.c ****             err++;
 529:/home/smartth/STM32Cube/Repository/STM32Cube_FW_F1_V1.8.4//Middlewares/ST/STM32_USB_Device_Library/Core/Src/usbd_ctlreq.c ****           }
 530:/home/smartth/STM32Cube/Repository/STM32Cube_FW_F1_V1.8.4//Middlewares/ST/STM32_USB_Device_Library/Core/Src/usbd_ctlreq.c ****           break;
 531:/home/smartth/STM32Cube/Repository/STM32Cube_FW_F1_V1.8.4//Middlewares/ST/STM32_USB_Device_Library/Core/Src/usbd_ctlreq.c **** #else
 532:/home/smartth/STM32Cube/Repository/STM32Cube_FW_F1_V1.8.4//Middlewares/ST/STM32_USB_Device_Library/Core/Src/usbd_ctlreq.c ****           USBD_CtlError(pdev, req);
 533:/home/smartth/STM32Cube/Repository/STM32Cube_FW_F1_V1.8.4//Middlewares/ST/STM32_USB_Device_Library/Core/Src/usbd_ctlreq.c ****           err++;
 534:/home/smartth/STM32Cube/Repository/STM32Cube_FW_F1_V1.8.4//Middlewares/ST/STM32_USB_Device_Library/Core/Src/usbd_ctlreq.c **** #endif
 535:/home/smartth/STM32Cube/Repository/STM32Cube_FW_F1_V1.8.4//Middlewares/ST/STM32_USB_Device_Library/Core/Src/usbd_ctlreq.c ****       }
 536:/home/smartth/STM32Cube/Repository/STM32Cube_FW_F1_V1.8.4//Middlewares/ST/STM32_USB_Device_Library/Core/Src/usbd_ctlreq.c ****       break;
 537:/home/smartth/STM32Cube/Repository/STM32Cube_FW_F1_V1.8.4//Middlewares/ST/STM32_USB_Device_Library/Core/Src/usbd_ctlreq.c **** 
 538:/home/smartth/STM32Cube/Repository/STM32Cube_FW_F1_V1.8.4//Middlewares/ST/STM32_USB_Device_Library/Core/Src/usbd_ctlreq.c ****     case USB_DESC_TYPE_DEVICE_QUALIFIER:
 539:/home/smartth/STM32Cube/Repository/STM32Cube_FW_F1_V1.8.4//Middlewares/ST/STM32_USB_Device_Library/Core/Src/usbd_ctlreq.c ****       if (pdev->dev_speed == USBD_SPEED_HIGH)
 540:/home/smartth/STM32Cube/Repository/STM32Cube_FW_F1_V1.8.4//Middlewares/ST/STM32_USB_Device_Library/Core/Src/usbd_ctlreq.c ****       {
 541:/home/smartth/STM32Cube/Repository/STM32Cube_FW_F1_V1.8.4//Middlewares/ST/STM32_USB_Device_Library/Core/Src/usbd_ctlreq.c ****         pbuf = pdev->pClass->GetDeviceQualifierDescriptor(&len);
 542:/home/smartth/STM32Cube/Repository/STM32Cube_FW_F1_V1.8.4//Middlewares/ST/STM32_USB_Device_Library/Core/Src/usbd_ctlreq.c ****       }
 543:/home/smartth/STM32Cube/Repository/STM32Cube_FW_F1_V1.8.4//Middlewares/ST/STM32_USB_Device_Library/Core/Src/usbd_ctlreq.c ****       else
 544:/home/smartth/STM32Cube/Repository/STM32Cube_FW_F1_V1.8.4//Middlewares/ST/STM32_USB_Device_Library/Core/Src/usbd_ctlreq.c ****       {
 545:/home/smartth/STM32Cube/Repository/STM32Cube_FW_F1_V1.8.4//Middlewares/ST/STM32_USB_Device_Library/Core/Src/usbd_ctlreq.c ****         USBD_CtlError(pdev, req);
ARM GAS  /tmp/ccVKyOYc.s 			page 11


 546:/home/smartth/STM32Cube/Repository/STM32Cube_FW_F1_V1.8.4//Middlewares/ST/STM32_USB_Device_Library/Core/Src/usbd_ctlreq.c ****         err++;
 547:/home/smartth/STM32Cube/Repository/STM32Cube_FW_F1_V1.8.4//Middlewares/ST/STM32_USB_Device_Library/Core/Src/usbd_ctlreq.c ****       }
 548:/home/smartth/STM32Cube/Repository/STM32Cube_FW_F1_V1.8.4//Middlewares/ST/STM32_USB_Device_Library/Core/Src/usbd_ctlreq.c ****       break;
 549:/home/smartth/STM32Cube/Repository/STM32Cube_FW_F1_V1.8.4//Middlewares/ST/STM32_USB_Device_Library/Core/Src/usbd_ctlreq.c **** 
 550:/home/smartth/STM32Cube/Repository/STM32Cube_FW_F1_V1.8.4//Middlewares/ST/STM32_USB_Device_Library/Core/Src/usbd_ctlreq.c ****     case USB_DESC_TYPE_OTHER_SPEED_CONFIGURATION:
 551:/home/smartth/STM32Cube/Repository/STM32Cube_FW_F1_V1.8.4//Middlewares/ST/STM32_USB_Device_Library/Core/Src/usbd_ctlreq.c ****       if (pdev->dev_speed == USBD_SPEED_HIGH)
 552:/home/smartth/STM32Cube/Repository/STM32Cube_FW_F1_V1.8.4//Middlewares/ST/STM32_USB_Device_Library/Core/Src/usbd_ctlreq.c ****       {
 553:/home/smartth/STM32Cube/Repository/STM32Cube_FW_F1_V1.8.4//Middlewares/ST/STM32_USB_Device_Library/Core/Src/usbd_ctlreq.c ****         pbuf = pdev->pClass->GetOtherSpeedConfigDescriptor(&len);
 554:/home/smartth/STM32Cube/Repository/STM32Cube_FW_F1_V1.8.4//Middlewares/ST/STM32_USB_Device_Library/Core/Src/usbd_ctlreq.c ****         pbuf[1] = USB_DESC_TYPE_OTHER_SPEED_CONFIGURATION;
 555:/home/smartth/STM32Cube/Repository/STM32Cube_FW_F1_V1.8.4//Middlewares/ST/STM32_USB_Device_Library/Core/Src/usbd_ctlreq.c ****       }
 556:/home/smartth/STM32Cube/Repository/STM32Cube_FW_F1_V1.8.4//Middlewares/ST/STM32_USB_Device_Library/Core/Src/usbd_ctlreq.c ****       else
 557:/home/smartth/STM32Cube/Repository/STM32Cube_FW_F1_V1.8.4//Middlewares/ST/STM32_USB_Device_Library/Core/Src/usbd_ctlreq.c ****       {
 558:/home/smartth/STM32Cube/Repository/STM32Cube_FW_F1_V1.8.4//Middlewares/ST/STM32_USB_Device_Library/Core/Src/usbd_ctlreq.c ****         USBD_CtlError(pdev, req);
 559:/home/smartth/STM32Cube/Repository/STM32Cube_FW_F1_V1.8.4//Middlewares/ST/STM32_USB_Device_Library/Core/Src/usbd_ctlreq.c ****         err++;
 560:/home/smartth/STM32Cube/Repository/STM32Cube_FW_F1_V1.8.4//Middlewares/ST/STM32_USB_Device_Library/Core/Src/usbd_ctlreq.c ****       }
 561:/home/smartth/STM32Cube/Repository/STM32Cube_FW_F1_V1.8.4//Middlewares/ST/STM32_USB_Device_Library/Core/Src/usbd_ctlreq.c ****       break;
 562:/home/smartth/STM32Cube/Repository/STM32Cube_FW_F1_V1.8.4//Middlewares/ST/STM32_USB_Device_Library/Core/Src/usbd_ctlreq.c **** 
 563:/home/smartth/STM32Cube/Repository/STM32Cube_FW_F1_V1.8.4//Middlewares/ST/STM32_USB_Device_Library/Core/Src/usbd_ctlreq.c ****     default:
 564:/home/smartth/STM32Cube/Repository/STM32Cube_FW_F1_V1.8.4//Middlewares/ST/STM32_USB_Device_Library/Core/Src/usbd_ctlreq.c ****       USBD_CtlError(pdev, req);
 565:/home/smartth/STM32Cube/Repository/STM32Cube_FW_F1_V1.8.4//Middlewares/ST/STM32_USB_Device_Library/Core/Src/usbd_ctlreq.c ****       err++;
 566:/home/smartth/STM32Cube/Repository/STM32Cube_FW_F1_V1.8.4//Middlewares/ST/STM32_USB_Device_Library/Core/Src/usbd_ctlreq.c ****       break;
 567:/home/smartth/STM32Cube/Repository/STM32Cube_FW_F1_V1.8.4//Middlewares/ST/STM32_USB_Device_Library/Core/Src/usbd_ctlreq.c ****   }
 568:/home/smartth/STM32Cube/Repository/STM32Cube_FW_F1_V1.8.4//Middlewares/ST/STM32_USB_Device_Library/Core/Src/usbd_ctlreq.c **** 
 569:/home/smartth/STM32Cube/Repository/STM32Cube_FW_F1_V1.8.4//Middlewares/ST/STM32_USB_Device_Library/Core/Src/usbd_ctlreq.c ****   if (err != 0U)
 570:/home/smartth/STM32Cube/Repository/STM32Cube_FW_F1_V1.8.4//Middlewares/ST/STM32_USB_Device_Library/Core/Src/usbd_ctlreq.c ****   {
 571:/home/smartth/STM32Cube/Repository/STM32Cube_FW_F1_V1.8.4//Middlewares/ST/STM32_USB_Device_Library/Core/Src/usbd_ctlreq.c ****     return;
 572:/home/smartth/STM32Cube/Repository/STM32Cube_FW_F1_V1.8.4//Middlewares/ST/STM32_USB_Device_Library/Core/Src/usbd_ctlreq.c ****   }
 573:/home/smartth/STM32Cube/Repository/STM32Cube_FW_F1_V1.8.4//Middlewares/ST/STM32_USB_Device_Library/Core/Src/usbd_ctlreq.c ****   else
 574:/home/smartth/STM32Cube/Repository/STM32Cube_FW_F1_V1.8.4//Middlewares/ST/STM32_USB_Device_Library/Core/Src/usbd_ctlreq.c ****   {
 575:/home/smartth/STM32Cube/Repository/STM32Cube_FW_F1_V1.8.4//Middlewares/ST/STM32_USB_Device_Library/Core/Src/usbd_ctlreq.c ****     if ((len != 0U) && (req->wLength != 0U))
 576:/home/smartth/STM32Cube/Repository/STM32Cube_FW_F1_V1.8.4//Middlewares/ST/STM32_USB_Device_Library/Core/Src/usbd_ctlreq.c ****     {
 577:/home/smartth/STM32Cube/Repository/STM32Cube_FW_F1_V1.8.4//Middlewares/ST/STM32_USB_Device_Library/Core/Src/usbd_ctlreq.c ****       len = MIN(len, req->wLength);
 578:/home/smartth/STM32Cube/Repository/STM32Cube_FW_F1_V1.8.4//Middlewares/ST/STM32_USB_Device_Library/Core/Src/usbd_ctlreq.c ****       (void)USBD_CtlSendData(pdev, pbuf, len);
 579:/home/smartth/STM32Cube/Repository/STM32Cube_FW_F1_V1.8.4//Middlewares/ST/STM32_USB_Device_Library/Core/Src/usbd_ctlreq.c ****     }
 580:/home/smartth/STM32Cube/Repository/STM32Cube_FW_F1_V1.8.4//Middlewares/ST/STM32_USB_Device_Library/Core/Src/usbd_ctlreq.c **** 
 581:/home/smartth/STM32Cube/Repository/STM32Cube_FW_F1_V1.8.4//Middlewares/ST/STM32_USB_Device_Library/Core/Src/usbd_ctlreq.c ****     if (req->wLength == 0U)
 582:/home/smartth/STM32Cube/Repository/STM32Cube_FW_F1_V1.8.4//Middlewares/ST/STM32_USB_Device_Library/Core/Src/usbd_ctlreq.c ****     {
 583:/home/smartth/STM32Cube/Repository/STM32Cube_FW_F1_V1.8.4//Middlewares/ST/STM32_USB_Device_Library/Core/Src/usbd_ctlreq.c ****       (void)USBD_CtlSendStatus(pdev);
 584:/home/smartth/STM32Cube/Repository/STM32Cube_FW_F1_V1.8.4//Middlewares/ST/STM32_USB_Device_Library/Core/Src/usbd_ctlreq.c ****     }
 585:/home/smartth/STM32Cube/Repository/STM32Cube_FW_F1_V1.8.4//Middlewares/ST/STM32_USB_Device_Library/Core/Src/usbd_ctlreq.c ****   }
 586:/home/smartth/STM32Cube/Repository/STM32Cube_FW_F1_V1.8.4//Middlewares/ST/STM32_USB_Device_Library/Core/Src/usbd_ctlreq.c **** }
 587:/home/smartth/STM32Cube/Repository/STM32Cube_FW_F1_V1.8.4//Middlewares/ST/STM32_USB_Device_Library/Core/Src/usbd_ctlreq.c **** 
 588:/home/smartth/STM32Cube/Repository/STM32Cube_FW_F1_V1.8.4//Middlewares/ST/STM32_USB_Device_Library/Core/Src/usbd_ctlreq.c **** /**
 589:/home/smartth/STM32Cube/Repository/STM32Cube_FW_F1_V1.8.4//Middlewares/ST/STM32_USB_Device_Library/Core/Src/usbd_ctlreq.c **** * @brief  USBD_SetAddress
 590:/home/smartth/STM32Cube/Repository/STM32Cube_FW_F1_V1.8.4//Middlewares/ST/STM32_USB_Device_Library/Core/Src/usbd_ctlreq.c **** *         Set device address
 591:/home/smartth/STM32Cube/Repository/STM32Cube_FW_F1_V1.8.4//Middlewares/ST/STM32_USB_Device_Library/Core/Src/usbd_ctlreq.c **** * @param  pdev: device instance
 592:/home/smartth/STM32Cube/Repository/STM32Cube_FW_F1_V1.8.4//Middlewares/ST/STM32_USB_Device_Library/Core/Src/usbd_ctlreq.c **** * @param  req: usb request
 593:/home/smartth/STM32Cube/Repository/STM32Cube_FW_F1_V1.8.4//Middlewares/ST/STM32_USB_Device_Library/Core/Src/usbd_ctlreq.c **** * @retval status
 594:/home/smartth/STM32Cube/Repository/STM32Cube_FW_F1_V1.8.4//Middlewares/ST/STM32_USB_Device_Library/Core/Src/usbd_ctlreq.c **** */
 595:/home/smartth/STM32Cube/Repository/STM32Cube_FW_F1_V1.8.4//Middlewares/ST/STM32_USB_Device_Library/Core/Src/usbd_ctlreq.c **** static void USBD_SetAddress(USBD_HandleTypeDef *pdev,
 596:/home/smartth/STM32Cube/Repository/STM32Cube_FW_F1_V1.8.4//Middlewares/ST/STM32_USB_Device_Library/Core/Src/usbd_ctlreq.c ****                             USBD_SetupReqTypedef *req)
 597:/home/smartth/STM32Cube/Repository/STM32Cube_FW_F1_V1.8.4//Middlewares/ST/STM32_USB_Device_Library/Core/Src/usbd_ctlreq.c **** {
 598:/home/smartth/STM32Cube/Repository/STM32Cube_FW_F1_V1.8.4//Middlewares/ST/STM32_USB_Device_Library/Core/Src/usbd_ctlreq.c ****   uint8_t  dev_addr;
 599:/home/smartth/STM32Cube/Repository/STM32Cube_FW_F1_V1.8.4//Middlewares/ST/STM32_USB_Device_Library/Core/Src/usbd_ctlreq.c **** 
 600:/home/smartth/STM32Cube/Repository/STM32Cube_FW_F1_V1.8.4//Middlewares/ST/STM32_USB_Device_Library/Core/Src/usbd_ctlreq.c ****   if ((req->wIndex == 0U) && (req->wLength == 0U) && (req->wValue < 128U))
 601:/home/smartth/STM32Cube/Repository/STM32Cube_FW_F1_V1.8.4//Middlewares/ST/STM32_USB_Device_Library/Core/Src/usbd_ctlreq.c ****   {
 602:/home/smartth/STM32Cube/Repository/STM32Cube_FW_F1_V1.8.4//Middlewares/ST/STM32_USB_Device_Library/Core/Src/usbd_ctlreq.c ****     dev_addr = (uint8_t)(req->wValue) & 0x7FU;
ARM GAS  /tmp/ccVKyOYc.s 			page 12


 603:/home/smartth/STM32Cube/Repository/STM32Cube_FW_F1_V1.8.4//Middlewares/ST/STM32_USB_Device_Library/Core/Src/usbd_ctlreq.c **** 
 604:/home/smartth/STM32Cube/Repository/STM32Cube_FW_F1_V1.8.4//Middlewares/ST/STM32_USB_Device_Library/Core/Src/usbd_ctlreq.c ****     if (pdev->dev_state == USBD_STATE_CONFIGURED)
 605:/home/smartth/STM32Cube/Repository/STM32Cube_FW_F1_V1.8.4//Middlewares/ST/STM32_USB_Device_Library/Core/Src/usbd_ctlreq.c ****     {
 606:/home/smartth/STM32Cube/Repository/STM32Cube_FW_F1_V1.8.4//Middlewares/ST/STM32_USB_Device_Library/Core/Src/usbd_ctlreq.c ****       USBD_CtlError(pdev, req);
 607:/home/smartth/STM32Cube/Repository/STM32Cube_FW_F1_V1.8.4//Middlewares/ST/STM32_USB_Device_Library/Core/Src/usbd_ctlreq.c ****     }
 608:/home/smartth/STM32Cube/Repository/STM32Cube_FW_F1_V1.8.4//Middlewares/ST/STM32_USB_Device_Library/Core/Src/usbd_ctlreq.c ****     else
 609:/home/smartth/STM32Cube/Repository/STM32Cube_FW_F1_V1.8.4//Middlewares/ST/STM32_USB_Device_Library/Core/Src/usbd_ctlreq.c ****     {
 610:/home/smartth/STM32Cube/Repository/STM32Cube_FW_F1_V1.8.4//Middlewares/ST/STM32_USB_Device_Library/Core/Src/usbd_ctlreq.c ****       pdev->dev_address = dev_addr;
 611:/home/smartth/STM32Cube/Repository/STM32Cube_FW_F1_V1.8.4//Middlewares/ST/STM32_USB_Device_Library/Core/Src/usbd_ctlreq.c ****       USBD_LL_SetUSBAddress(pdev, dev_addr);
 612:/home/smartth/STM32Cube/Repository/STM32Cube_FW_F1_V1.8.4//Middlewares/ST/STM32_USB_Device_Library/Core/Src/usbd_ctlreq.c ****       USBD_CtlSendStatus(pdev);
 613:/home/smartth/STM32Cube/Repository/STM32Cube_FW_F1_V1.8.4//Middlewares/ST/STM32_USB_Device_Library/Core/Src/usbd_ctlreq.c **** 
 614:/home/smartth/STM32Cube/Repository/STM32Cube_FW_F1_V1.8.4//Middlewares/ST/STM32_USB_Device_Library/Core/Src/usbd_ctlreq.c ****       if (dev_addr != 0U)
 615:/home/smartth/STM32Cube/Repository/STM32Cube_FW_F1_V1.8.4//Middlewares/ST/STM32_USB_Device_Library/Core/Src/usbd_ctlreq.c ****       {
 616:/home/smartth/STM32Cube/Repository/STM32Cube_FW_F1_V1.8.4//Middlewares/ST/STM32_USB_Device_Library/Core/Src/usbd_ctlreq.c ****         pdev->dev_state = USBD_STATE_ADDRESSED;
 617:/home/smartth/STM32Cube/Repository/STM32Cube_FW_F1_V1.8.4//Middlewares/ST/STM32_USB_Device_Library/Core/Src/usbd_ctlreq.c ****       }
 618:/home/smartth/STM32Cube/Repository/STM32Cube_FW_F1_V1.8.4//Middlewares/ST/STM32_USB_Device_Library/Core/Src/usbd_ctlreq.c ****       else
 619:/home/smartth/STM32Cube/Repository/STM32Cube_FW_F1_V1.8.4//Middlewares/ST/STM32_USB_Device_Library/Core/Src/usbd_ctlreq.c ****       {
 620:/home/smartth/STM32Cube/Repository/STM32Cube_FW_F1_V1.8.4//Middlewares/ST/STM32_USB_Device_Library/Core/Src/usbd_ctlreq.c ****         pdev->dev_state = USBD_STATE_DEFAULT;
 621:/home/smartth/STM32Cube/Repository/STM32Cube_FW_F1_V1.8.4//Middlewares/ST/STM32_USB_Device_Library/Core/Src/usbd_ctlreq.c ****       }
 622:/home/smartth/STM32Cube/Repository/STM32Cube_FW_F1_V1.8.4//Middlewares/ST/STM32_USB_Device_Library/Core/Src/usbd_ctlreq.c ****     }
 623:/home/smartth/STM32Cube/Repository/STM32Cube_FW_F1_V1.8.4//Middlewares/ST/STM32_USB_Device_Library/Core/Src/usbd_ctlreq.c ****   }
 624:/home/smartth/STM32Cube/Repository/STM32Cube_FW_F1_V1.8.4//Middlewares/ST/STM32_USB_Device_Library/Core/Src/usbd_ctlreq.c ****   else
 625:/home/smartth/STM32Cube/Repository/STM32Cube_FW_F1_V1.8.4//Middlewares/ST/STM32_USB_Device_Library/Core/Src/usbd_ctlreq.c ****   {
 626:/home/smartth/STM32Cube/Repository/STM32Cube_FW_F1_V1.8.4//Middlewares/ST/STM32_USB_Device_Library/Core/Src/usbd_ctlreq.c ****     USBD_CtlError(pdev, req);
 627:/home/smartth/STM32Cube/Repository/STM32Cube_FW_F1_V1.8.4//Middlewares/ST/STM32_USB_Device_Library/Core/Src/usbd_ctlreq.c ****   }
 628:/home/smartth/STM32Cube/Repository/STM32Cube_FW_F1_V1.8.4//Middlewares/ST/STM32_USB_Device_Library/Core/Src/usbd_ctlreq.c **** }
 629:/home/smartth/STM32Cube/Repository/STM32Cube_FW_F1_V1.8.4//Middlewares/ST/STM32_USB_Device_Library/Core/Src/usbd_ctlreq.c **** 
 630:/home/smartth/STM32Cube/Repository/STM32Cube_FW_F1_V1.8.4//Middlewares/ST/STM32_USB_Device_Library/Core/Src/usbd_ctlreq.c **** /**
 631:/home/smartth/STM32Cube/Repository/STM32Cube_FW_F1_V1.8.4//Middlewares/ST/STM32_USB_Device_Library/Core/Src/usbd_ctlreq.c **** * @brief  USBD_SetConfig
 632:/home/smartth/STM32Cube/Repository/STM32Cube_FW_F1_V1.8.4//Middlewares/ST/STM32_USB_Device_Library/Core/Src/usbd_ctlreq.c **** *         Handle Set device configuration request
 633:/home/smartth/STM32Cube/Repository/STM32Cube_FW_F1_V1.8.4//Middlewares/ST/STM32_USB_Device_Library/Core/Src/usbd_ctlreq.c **** * @param  pdev: device instance
 634:/home/smartth/STM32Cube/Repository/STM32Cube_FW_F1_V1.8.4//Middlewares/ST/STM32_USB_Device_Library/Core/Src/usbd_ctlreq.c **** * @param  req: usb request
 635:/home/smartth/STM32Cube/Repository/STM32Cube_FW_F1_V1.8.4//Middlewares/ST/STM32_USB_Device_Library/Core/Src/usbd_ctlreq.c **** * @retval status
 636:/home/smartth/STM32Cube/Repository/STM32Cube_FW_F1_V1.8.4//Middlewares/ST/STM32_USB_Device_Library/Core/Src/usbd_ctlreq.c **** */
 637:/home/smartth/STM32Cube/Repository/STM32Cube_FW_F1_V1.8.4//Middlewares/ST/STM32_USB_Device_Library/Core/Src/usbd_ctlreq.c **** static void USBD_SetConfig(USBD_HandleTypeDef *pdev, USBD_SetupReqTypedef *req)
 638:/home/smartth/STM32Cube/Repository/STM32Cube_FW_F1_V1.8.4//Middlewares/ST/STM32_USB_Device_Library/Core/Src/usbd_ctlreq.c **** {
 639:/home/smartth/STM32Cube/Repository/STM32Cube_FW_F1_V1.8.4//Middlewares/ST/STM32_USB_Device_Library/Core/Src/usbd_ctlreq.c ****   static uint8_t cfgidx;
 640:/home/smartth/STM32Cube/Repository/STM32Cube_FW_F1_V1.8.4//Middlewares/ST/STM32_USB_Device_Library/Core/Src/usbd_ctlreq.c **** 
 641:/home/smartth/STM32Cube/Repository/STM32Cube_FW_F1_V1.8.4//Middlewares/ST/STM32_USB_Device_Library/Core/Src/usbd_ctlreq.c ****   cfgidx = (uint8_t)(req->wValue);
 642:/home/smartth/STM32Cube/Repository/STM32Cube_FW_F1_V1.8.4//Middlewares/ST/STM32_USB_Device_Library/Core/Src/usbd_ctlreq.c **** 
 643:/home/smartth/STM32Cube/Repository/STM32Cube_FW_F1_V1.8.4//Middlewares/ST/STM32_USB_Device_Library/Core/Src/usbd_ctlreq.c ****   if (cfgidx > USBD_MAX_NUM_CONFIGURATION)
 644:/home/smartth/STM32Cube/Repository/STM32Cube_FW_F1_V1.8.4//Middlewares/ST/STM32_USB_Device_Library/Core/Src/usbd_ctlreq.c ****   {
 645:/home/smartth/STM32Cube/Repository/STM32Cube_FW_F1_V1.8.4//Middlewares/ST/STM32_USB_Device_Library/Core/Src/usbd_ctlreq.c ****     USBD_CtlError(pdev, req);
 646:/home/smartth/STM32Cube/Repository/STM32Cube_FW_F1_V1.8.4//Middlewares/ST/STM32_USB_Device_Library/Core/Src/usbd_ctlreq.c ****   }
 647:/home/smartth/STM32Cube/Repository/STM32Cube_FW_F1_V1.8.4//Middlewares/ST/STM32_USB_Device_Library/Core/Src/usbd_ctlreq.c ****   else
 648:/home/smartth/STM32Cube/Repository/STM32Cube_FW_F1_V1.8.4//Middlewares/ST/STM32_USB_Device_Library/Core/Src/usbd_ctlreq.c ****   {
 649:/home/smartth/STM32Cube/Repository/STM32Cube_FW_F1_V1.8.4//Middlewares/ST/STM32_USB_Device_Library/Core/Src/usbd_ctlreq.c ****     switch (pdev->dev_state)
 650:/home/smartth/STM32Cube/Repository/STM32Cube_FW_F1_V1.8.4//Middlewares/ST/STM32_USB_Device_Library/Core/Src/usbd_ctlreq.c ****     {
 651:/home/smartth/STM32Cube/Repository/STM32Cube_FW_F1_V1.8.4//Middlewares/ST/STM32_USB_Device_Library/Core/Src/usbd_ctlreq.c ****       case USBD_STATE_ADDRESSED:
 652:/home/smartth/STM32Cube/Repository/STM32Cube_FW_F1_V1.8.4//Middlewares/ST/STM32_USB_Device_Library/Core/Src/usbd_ctlreq.c ****         if (cfgidx)
 653:/home/smartth/STM32Cube/Repository/STM32Cube_FW_F1_V1.8.4//Middlewares/ST/STM32_USB_Device_Library/Core/Src/usbd_ctlreq.c ****         {
 654:/home/smartth/STM32Cube/Repository/STM32Cube_FW_F1_V1.8.4//Middlewares/ST/STM32_USB_Device_Library/Core/Src/usbd_ctlreq.c ****           pdev->dev_config = cfgidx;
 655:/home/smartth/STM32Cube/Repository/STM32Cube_FW_F1_V1.8.4//Middlewares/ST/STM32_USB_Device_Library/Core/Src/usbd_ctlreq.c ****           pdev->dev_state = USBD_STATE_CONFIGURED;
 656:/home/smartth/STM32Cube/Repository/STM32Cube_FW_F1_V1.8.4//Middlewares/ST/STM32_USB_Device_Library/Core/Src/usbd_ctlreq.c ****           if (USBD_SetClassConfig(pdev, cfgidx) == USBD_FAIL)
 657:/home/smartth/STM32Cube/Repository/STM32Cube_FW_F1_V1.8.4//Middlewares/ST/STM32_USB_Device_Library/Core/Src/usbd_ctlreq.c ****           {
 658:/home/smartth/STM32Cube/Repository/STM32Cube_FW_F1_V1.8.4//Middlewares/ST/STM32_USB_Device_Library/Core/Src/usbd_ctlreq.c ****             USBD_CtlError(pdev, req);
 659:/home/smartth/STM32Cube/Repository/STM32Cube_FW_F1_V1.8.4//Middlewares/ST/STM32_USB_Device_Library/Core/Src/usbd_ctlreq.c ****             return;
ARM GAS  /tmp/ccVKyOYc.s 			page 13


 660:/home/smartth/STM32Cube/Repository/STM32Cube_FW_F1_V1.8.4//Middlewares/ST/STM32_USB_Device_Library/Core/Src/usbd_ctlreq.c ****           }
 661:/home/smartth/STM32Cube/Repository/STM32Cube_FW_F1_V1.8.4//Middlewares/ST/STM32_USB_Device_Library/Core/Src/usbd_ctlreq.c ****           USBD_CtlSendStatus(pdev);
 662:/home/smartth/STM32Cube/Repository/STM32Cube_FW_F1_V1.8.4//Middlewares/ST/STM32_USB_Device_Library/Core/Src/usbd_ctlreq.c ****         }
 663:/home/smartth/STM32Cube/Repository/STM32Cube_FW_F1_V1.8.4//Middlewares/ST/STM32_USB_Device_Library/Core/Src/usbd_ctlreq.c ****         else
 664:/home/smartth/STM32Cube/Repository/STM32Cube_FW_F1_V1.8.4//Middlewares/ST/STM32_USB_Device_Library/Core/Src/usbd_ctlreq.c ****         {
 665:/home/smartth/STM32Cube/Repository/STM32Cube_FW_F1_V1.8.4//Middlewares/ST/STM32_USB_Device_Library/Core/Src/usbd_ctlreq.c ****           USBD_CtlSendStatus(pdev);
 666:/home/smartth/STM32Cube/Repository/STM32Cube_FW_F1_V1.8.4//Middlewares/ST/STM32_USB_Device_Library/Core/Src/usbd_ctlreq.c ****         }
 667:/home/smartth/STM32Cube/Repository/STM32Cube_FW_F1_V1.8.4//Middlewares/ST/STM32_USB_Device_Library/Core/Src/usbd_ctlreq.c ****         break;
 668:/home/smartth/STM32Cube/Repository/STM32Cube_FW_F1_V1.8.4//Middlewares/ST/STM32_USB_Device_Library/Core/Src/usbd_ctlreq.c **** 
 669:/home/smartth/STM32Cube/Repository/STM32Cube_FW_F1_V1.8.4//Middlewares/ST/STM32_USB_Device_Library/Core/Src/usbd_ctlreq.c ****       case USBD_STATE_CONFIGURED:
 670:/home/smartth/STM32Cube/Repository/STM32Cube_FW_F1_V1.8.4//Middlewares/ST/STM32_USB_Device_Library/Core/Src/usbd_ctlreq.c ****         if (cfgidx == 0U)
 671:/home/smartth/STM32Cube/Repository/STM32Cube_FW_F1_V1.8.4//Middlewares/ST/STM32_USB_Device_Library/Core/Src/usbd_ctlreq.c ****         {
 672:/home/smartth/STM32Cube/Repository/STM32Cube_FW_F1_V1.8.4//Middlewares/ST/STM32_USB_Device_Library/Core/Src/usbd_ctlreq.c ****           pdev->dev_state = USBD_STATE_ADDRESSED;
 673:/home/smartth/STM32Cube/Repository/STM32Cube_FW_F1_V1.8.4//Middlewares/ST/STM32_USB_Device_Library/Core/Src/usbd_ctlreq.c ****           pdev->dev_config = cfgidx;
 674:/home/smartth/STM32Cube/Repository/STM32Cube_FW_F1_V1.8.4//Middlewares/ST/STM32_USB_Device_Library/Core/Src/usbd_ctlreq.c ****           USBD_ClrClassConfig(pdev, cfgidx);
 675:/home/smartth/STM32Cube/Repository/STM32Cube_FW_F1_V1.8.4//Middlewares/ST/STM32_USB_Device_Library/Core/Src/usbd_ctlreq.c ****           USBD_CtlSendStatus(pdev);
 676:/home/smartth/STM32Cube/Repository/STM32Cube_FW_F1_V1.8.4//Middlewares/ST/STM32_USB_Device_Library/Core/Src/usbd_ctlreq.c ****         }
 677:/home/smartth/STM32Cube/Repository/STM32Cube_FW_F1_V1.8.4//Middlewares/ST/STM32_USB_Device_Library/Core/Src/usbd_ctlreq.c ****         else if (cfgidx != pdev->dev_config)
 678:/home/smartth/STM32Cube/Repository/STM32Cube_FW_F1_V1.8.4//Middlewares/ST/STM32_USB_Device_Library/Core/Src/usbd_ctlreq.c ****         {
 679:/home/smartth/STM32Cube/Repository/STM32Cube_FW_F1_V1.8.4//Middlewares/ST/STM32_USB_Device_Library/Core/Src/usbd_ctlreq.c ****           /* Clear old configuration */
 680:/home/smartth/STM32Cube/Repository/STM32Cube_FW_F1_V1.8.4//Middlewares/ST/STM32_USB_Device_Library/Core/Src/usbd_ctlreq.c ****           USBD_ClrClassConfig(pdev, (uint8_t)pdev->dev_config);
 681:/home/smartth/STM32Cube/Repository/STM32Cube_FW_F1_V1.8.4//Middlewares/ST/STM32_USB_Device_Library/Core/Src/usbd_ctlreq.c **** 
 682:/home/smartth/STM32Cube/Repository/STM32Cube_FW_F1_V1.8.4//Middlewares/ST/STM32_USB_Device_Library/Core/Src/usbd_ctlreq.c ****           /* set new configuration */
 683:/home/smartth/STM32Cube/Repository/STM32Cube_FW_F1_V1.8.4//Middlewares/ST/STM32_USB_Device_Library/Core/Src/usbd_ctlreq.c ****           pdev->dev_config = cfgidx;
 684:/home/smartth/STM32Cube/Repository/STM32Cube_FW_F1_V1.8.4//Middlewares/ST/STM32_USB_Device_Library/Core/Src/usbd_ctlreq.c ****           if (USBD_SetClassConfig(pdev, cfgidx) == USBD_FAIL)
 685:/home/smartth/STM32Cube/Repository/STM32Cube_FW_F1_V1.8.4//Middlewares/ST/STM32_USB_Device_Library/Core/Src/usbd_ctlreq.c ****           {
 686:/home/smartth/STM32Cube/Repository/STM32Cube_FW_F1_V1.8.4//Middlewares/ST/STM32_USB_Device_Library/Core/Src/usbd_ctlreq.c ****             USBD_CtlError(pdev, req);
 687:/home/smartth/STM32Cube/Repository/STM32Cube_FW_F1_V1.8.4//Middlewares/ST/STM32_USB_Device_Library/Core/Src/usbd_ctlreq.c ****             return;
 688:/home/smartth/STM32Cube/Repository/STM32Cube_FW_F1_V1.8.4//Middlewares/ST/STM32_USB_Device_Library/Core/Src/usbd_ctlreq.c ****           }
 689:/home/smartth/STM32Cube/Repository/STM32Cube_FW_F1_V1.8.4//Middlewares/ST/STM32_USB_Device_Library/Core/Src/usbd_ctlreq.c ****           USBD_CtlSendStatus(pdev);
 690:/home/smartth/STM32Cube/Repository/STM32Cube_FW_F1_V1.8.4//Middlewares/ST/STM32_USB_Device_Library/Core/Src/usbd_ctlreq.c ****         }
 691:/home/smartth/STM32Cube/Repository/STM32Cube_FW_F1_V1.8.4//Middlewares/ST/STM32_USB_Device_Library/Core/Src/usbd_ctlreq.c ****         else
 692:/home/smartth/STM32Cube/Repository/STM32Cube_FW_F1_V1.8.4//Middlewares/ST/STM32_USB_Device_Library/Core/Src/usbd_ctlreq.c ****         {
 693:/home/smartth/STM32Cube/Repository/STM32Cube_FW_F1_V1.8.4//Middlewares/ST/STM32_USB_Device_Library/Core/Src/usbd_ctlreq.c ****           USBD_CtlSendStatus(pdev);
 694:/home/smartth/STM32Cube/Repository/STM32Cube_FW_F1_V1.8.4//Middlewares/ST/STM32_USB_Device_Library/Core/Src/usbd_ctlreq.c ****         }
 695:/home/smartth/STM32Cube/Repository/STM32Cube_FW_F1_V1.8.4//Middlewares/ST/STM32_USB_Device_Library/Core/Src/usbd_ctlreq.c ****         break;
 696:/home/smartth/STM32Cube/Repository/STM32Cube_FW_F1_V1.8.4//Middlewares/ST/STM32_USB_Device_Library/Core/Src/usbd_ctlreq.c **** 
 697:/home/smartth/STM32Cube/Repository/STM32Cube_FW_F1_V1.8.4//Middlewares/ST/STM32_USB_Device_Library/Core/Src/usbd_ctlreq.c ****       default:
 698:/home/smartth/STM32Cube/Repository/STM32Cube_FW_F1_V1.8.4//Middlewares/ST/STM32_USB_Device_Library/Core/Src/usbd_ctlreq.c ****         USBD_CtlError(pdev, req);
 699:/home/smartth/STM32Cube/Repository/STM32Cube_FW_F1_V1.8.4//Middlewares/ST/STM32_USB_Device_Library/Core/Src/usbd_ctlreq.c ****         USBD_ClrClassConfig(pdev, cfgidx);
 700:/home/smartth/STM32Cube/Repository/STM32Cube_FW_F1_V1.8.4//Middlewares/ST/STM32_USB_Device_Library/Core/Src/usbd_ctlreq.c ****         break;
 701:/home/smartth/STM32Cube/Repository/STM32Cube_FW_F1_V1.8.4//Middlewares/ST/STM32_USB_Device_Library/Core/Src/usbd_ctlreq.c ****     }
 702:/home/smartth/STM32Cube/Repository/STM32Cube_FW_F1_V1.8.4//Middlewares/ST/STM32_USB_Device_Library/Core/Src/usbd_ctlreq.c ****   }
 703:/home/smartth/STM32Cube/Repository/STM32Cube_FW_F1_V1.8.4//Middlewares/ST/STM32_USB_Device_Library/Core/Src/usbd_ctlreq.c **** }
 704:/home/smartth/STM32Cube/Repository/STM32Cube_FW_F1_V1.8.4//Middlewares/ST/STM32_USB_Device_Library/Core/Src/usbd_ctlreq.c **** 
 705:/home/smartth/STM32Cube/Repository/STM32Cube_FW_F1_V1.8.4//Middlewares/ST/STM32_USB_Device_Library/Core/Src/usbd_ctlreq.c **** /**
 706:/home/smartth/STM32Cube/Repository/STM32Cube_FW_F1_V1.8.4//Middlewares/ST/STM32_USB_Device_Library/Core/Src/usbd_ctlreq.c **** * @brief  USBD_GetConfig
 707:/home/smartth/STM32Cube/Repository/STM32Cube_FW_F1_V1.8.4//Middlewares/ST/STM32_USB_Device_Library/Core/Src/usbd_ctlreq.c **** *         Handle Get device configuration request
 708:/home/smartth/STM32Cube/Repository/STM32Cube_FW_F1_V1.8.4//Middlewares/ST/STM32_USB_Device_Library/Core/Src/usbd_ctlreq.c **** * @param  pdev: device instance
 709:/home/smartth/STM32Cube/Repository/STM32Cube_FW_F1_V1.8.4//Middlewares/ST/STM32_USB_Device_Library/Core/Src/usbd_ctlreq.c **** * @param  req: usb request
 710:/home/smartth/STM32Cube/Repository/STM32Cube_FW_F1_V1.8.4//Middlewares/ST/STM32_USB_Device_Library/Core/Src/usbd_ctlreq.c **** * @retval status
 711:/home/smartth/STM32Cube/Repository/STM32Cube_FW_F1_V1.8.4//Middlewares/ST/STM32_USB_Device_Library/Core/Src/usbd_ctlreq.c **** */
 712:/home/smartth/STM32Cube/Repository/STM32Cube_FW_F1_V1.8.4//Middlewares/ST/STM32_USB_Device_Library/Core/Src/usbd_ctlreq.c **** static void USBD_GetConfig(USBD_HandleTypeDef *pdev, USBD_SetupReqTypedef *req)
 713:/home/smartth/STM32Cube/Repository/STM32Cube_FW_F1_V1.8.4//Middlewares/ST/STM32_USB_Device_Library/Core/Src/usbd_ctlreq.c **** {
 714:/home/smartth/STM32Cube/Repository/STM32Cube_FW_F1_V1.8.4//Middlewares/ST/STM32_USB_Device_Library/Core/Src/usbd_ctlreq.c ****   if (req->wLength != 1U)
 715:/home/smartth/STM32Cube/Repository/STM32Cube_FW_F1_V1.8.4//Middlewares/ST/STM32_USB_Device_Library/Core/Src/usbd_ctlreq.c ****   {
 716:/home/smartth/STM32Cube/Repository/STM32Cube_FW_F1_V1.8.4//Middlewares/ST/STM32_USB_Device_Library/Core/Src/usbd_ctlreq.c ****     USBD_CtlError(pdev, req);
ARM GAS  /tmp/ccVKyOYc.s 			page 14


 717:/home/smartth/STM32Cube/Repository/STM32Cube_FW_F1_V1.8.4//Middlewares/ST/STM32_USB_Device_Library/Core/Src/usbd_ctlreq.c ****   }
 718:/home/smartth/STM32Cube/Repository/STM32Cube_FW_F1_V1.8.4//Middlewares/ST/STM32_USB_Device_Library/Core/Src/usbd_ctlreq.c ****   else
 719:/home/smartth/STM32Cube/Repository/STM32Cube_FW_F1_V1.8.4//Middlewares/ST/STM32_USB_Device_Library/Core/Src/usbd_ctlreq.c ****   {
 720:/home/smartth/STM32Cube/Repository/STM32Cube_FW_F1_V1.8.4//Middlewares/ST/STM32_USB_Device_Library/Core/Src/usbd_ctlreq.c ****     switch (pdev->dev_state)
 721:/home/smartth/STM32Cube/Repository/STM32Cube_FW_F1_V1.8.4//Middlewares/ST/STM32_USB_Device_Library/Core/Src/usbd_ctlreq.c ****     {
 722:/home/smartth/STM32Cube/Repository/STM32Cube_FW_F1_V1.8.4//Middlewares/ST/STM32_USB_Device_Library/Core/Src/usbd_ctlreq.c ****       case USBD_STATE_DEFAULT:
 723:/home/smartth/STM32Cube/Repository/STM32Cube_FW_F1_V1.8.4//Middlewares/ST/STM32_USB_Device_Library/Core/Src/usbd_ctlreq.c ****       case USBD_STATE_ADDRESSED:
 724:/home/smartth/STM32Cube/Repository/STM32Cube_FW_F1_V1.8.4//Middlewares/ST/STM32_USB_Device_Library/Core/Src/usbd_ctlreq.c ****         pdev->dev_default_config = 0U;
 725:/home/smartth/STM32Cube/Repository/STM32Cube_FW_F1_V1.8.4//Middlewares/ST/STM32_USB_Device_Library/Core/Src/usbd_ctlreq.c ****         USBD_CtlSendData(pdev, (uint8_t *)(void *)&pdev->dev_default_config, 1U);
 726:/home/smartth/STM32Cube/Repository/STM32Cube_FW_F1_V1.8.4//Middlewares/ST/STM32_USB_Device_Library/Core/Src/usbd_ctlreq.c ****         break;
 727:/home/smartth/STM32Cube/Repository/STM32Cube_FW_F1_V1.8.4//Middlewares/ST/STM32_USB_Device_Library/Core/Src/usbd_ctlreq.c **** 
 728:/home/smartth/STM32Cube/Repository/STM32Cube_FW_F1_V1.8.4//Middlewares/ST/STM32_USB_Device_Library/Core/Src/usbd_ctlreq.c ****       case USBD_STATE_CONFIGURED:
 729:/home/smartth/STM32Cube/Repository/STM32Cube_FW_F1_V1.8.4//Middlewares/ST/STM32_USB_Device_Library/Core/Src/usbd_ctlreq.c ****         USBD_CtlSendData(pdev, (uint8_t *)(void *)&pdev->dev_config, 1U);
 730:/home/smartth/STM32Cube/Repository/STM32Cube_FW_F1_V1.8.4//Middlewares/ST/STM32_USB_Device_Library/Core/Src/usbd_ctlreq.c ****         break;
 731:/home/smartth/STM32Cube/Repository/STM32Cube_FW_F1_V1.8.4//Middlewares/ST/STM32_USB_Device_Library/Core/Src/usbd_ctlreq.c **** 
 732:/home/smartth/STM32Cube/Repository/STM32Cube_FW_F1_V1.8.4//Middlewares/ST/STM32_USB_Device_Library/Core/Src/usbd_ctlreq.c ****       default:
 733:/home/smartth/STM32Cube/Repository/STM32Cube_FW_F1_V1.8.4//Middlewares/ST/STM32_USB_Device_Library/Core/Src/usbd_ctlreq.c ****         USBD_CtlError(pdev, req);
 734:/home/smartth/STM32Cube/Repository/STM32Cube_FW_F1_V1.8.4//Middlewares/ST/STM32_USB_Device_Library/Core/Src/usbd_ctlreq.c ****         break;
 735:/home/smartth/STM32Cube/Repository/STM32Cube_FW_F1_V1.8.4//Middlewares/ST/STM32_USB_Device_Library/Core/Src/usbd_ctlreq.c ****     }
 736:/home/smartth/STM32Cube/Repository/STM32Cube_FW_F1_V1.8.4//Middlewares/ST/STM32_USB_Device_Library/Core/Src/usbd_ctlreq.c ****   }
 737:/home/smartth/STM32Cube/Repository/STM32Cube_FW_F1_V1.8.4//Middlewares/ST/STM32_USB_Device_Library/Core/Src/usbd_ctlreq.c **** }
 738:/home/smartth/STM32Cube/Repository/STM32Cube_FW_F1_V1.8.4//Middlewares/ST/STM32_USB_Device_Library/Core/Src/usbd_ctlreq.c **** 
 739:/home/smartth/STM32Cube/Repository/STM32Cube_FW_F1_V1.8.4//Middlewares/ST/STM32_USB_Device_Library/Core/Src/usbd_ctlreq.c **** /**
 740:/home/smartth/STM32Cube/Repository/STM32Cube_FW_F1_V1.8.4//Middlewares/ST/STM32_USB_Device_Library/Core/Src/usbd_ctlreq.c **** * @brief  USBD_GetStatus
 741:/home/smartth/STM32Cube/Repository/STM32Cube_FW_F1_V1.8.4//Middlewares/ST/STM32_USB_Device_Library/Core/Src/usbd_ctlreq.c **** *         Handle Get Status request
 742:/home/smartth/STM32Cube/Repository/STM32Cube_FW_F1_V1.8.4//Middlewares/ST/STM32_USB_Device_Library/Core/Src/usbd_ctlreq.c **** * @param  pdev: device instance
 743:/home/smartth/STM32Cube/Repository/STM32Cube_FW_F1_V1.8.4//Middlewares/ST/STM32_USB_Device_Library/Core/Src/usbd_ctlreq.c **** * @param  req: usb request
 744:/home/smartth/STM32Cube/Repository/STM32Cube_FW_F1_V1.8.4//Middlewares/ST/STM32_USB_Device_Library/Core/Src/usbd_ctlreq.c **** * @retval status
 745:/home/smartth/STM32Cube/Repository/STM32Cube_FW_F1_V1.8.4//Middlewares/ST/STM32_USB_Device_Library/Core/Src/usbd_ctlreq.c **** */
 746:/home/smartth/STM32Cube/Repository/STM32Cube_FW_F1_V1.8.4//Middlewares/ST/STM32_USB_Device_Library/Core/Src/usbd_ctlreq.c **** static void USBD_GetStatus(USBD_HandleTypeDef *pdev, USBD_SetupReqTypedef *req)
 747:/home/smartth/STM32Cube/Repository/STM32Cube_FW_F1_V1.8.4//Middlewares/ST/STM32_USB_Device_Library/Core/Src/usbd_ctlreq.c **** {
 748:/home/smartth/STM32Cube/Repository/STM32Cube_FW_F1_V1.8.4//Middlewares/ST/STM32_USB_Device_Library/Core/Src/usbd_ctlreq.c ****   switch (pdev->dev_state)
 749:/home/smartth/STM32Cube/Repository/STM32Cube_FW_F1_V1.8.4//Middlewares/ST/STM32_USB_Device_Library/Core/Src/usbd_ctlreq.c ****   {
 750:/home/smartth/STM32Cube/Repository/STM32Cube_FW_F1_V1.8.4//Middlewares/ST/STM32_USB_Device_Library/Core/Src/usbd_ctlreq.c ****     case USBD_STATE_DEFAULT:
 751:/home/smartth/STM32Cube/Repository/STM32Cube_FW_F1_V1.8.4//Middlewares/ST/STM32_USB_Device_Library/Core/Src/usbd_ctlreq.c ****     case USBD_STATE_ADDRESSED:
 752:/home/smartth/STM32Cube/Repository/STM32Cube_FW_F1_V1.8.4//Middlewares/ST/STM32_USB_Device_Library/Core/Src/usbd_ctlreq.c ****     case USBD_STATE_CONFIGURED:
 753:/home/smartth/STM32Cube/Repository/STM32Cube_FW_F1_V1.8.4//Middlewares/ST/STM32_USB_Device_Library/Core/Src/usbd_ctlreq.c ****       if (req->wLength != 0x2U)
 754:/home/smartth/STM32Cube/Repository/STM32Cube_FW_F1_V1.8.4//Middlewares/ST/STM32_USB_Device_Library/Core/Src/usbd_ctlreq.c ****       {
 755:/home/smartth/STM32Cube/Repository/STM32Cube_FW_F1_V1.8.4//Middlewares/ST/STM32_USB_Device_Library/Core/Src/usbd_ctlreq.c ****         USBD_CtlError(pdev, req);
 756:/home/smartth/STM32Cube/Repository/STM32Cube_FW_F1_V1.8.4//Middlewares/ST/STM32_USB_Device_Library/Core/Src/usbd_ctlreq.c ****         break;
 757:/home/smartth/STM32Cube/Repository/STM32Cube_FW_F1_V1.8.4//Middlewares/ST/STM32_USB_Device_Library/Core/Src/usbd_ctlreq.c ****       }
 758:/home/smartth/STM32Cube/Repository/STM32Cube_FW_F1_V1.8.4//Middlewares/ST/STM32_USB_Device_Library/Core/Src/usbd_ctlreq.c **** 
 759:/home/smartth/STM32Cube/Repository/STM32Cube_FW_F1_V1.8.4//Middlewares/ST/STM32_USB_Device_Library/Core/Src/usbd_ctlreq.c **** #if (USBD_SELF_POWERED == 1U)
 760:/home/smartth/STM32Cube/Repository/STM32Cube_FW_F1_V1.8.4//Middlewares/ST/STM32_USB_Device_Library/Core/Src/usbd_ctlreq.c ****       pdev->dev_config_status = USB_CONFIG_SELF_POWERED;
 761:/home/smartth/STM32Cube/Repository/STM32Cube_FW_F1_V1.8.4//Middlewares/ST/STM32_USB_Device_Library/Core/Src/usbd_ctlreq.c **** #else
 762:/home/smartth/STM32Cube/Repository/STM32Cube_FW_F1_V1.8.4//Middlewares/ST/STM32_USB_Device_Library/Core/Src/usbd_ctlreq.c ****       pdev->dev_config_status = 0U;
 763:/home/smartth/STM32Cube/Repository/STM32Cube_FW_F1_V1.8.4//Middlewares/ST/STM32_USB_Device_Library/Core/Src/usbd_ctlreq.c **** #endif
 764:/home/smartth/STM32Cube/Repository/STM32Cube_FW_F1_V1.8.4//Middlewares/ST/STM32_USB_Device_Library/Core/Src/usbd_ctlreq.c **** 
 765:/home/smartth/STM32Cube/Repository/STM32Cube_FW_F1_V1.8.4//Middlewares/ST/STM32_USB_Device_Library/Core/Src/usbd_ctlreq.c ****       if (pdev->dev_remote_wakeup)
 766:/home/smartth/STM32Cube/Repository/STM32Cube_FW_F1_V1.8.4//Middlewares/ST/STM32_USB_Device_Library/Core/Src/usbd_ctlreq.c ****       {
 767:/home/smartth/STM32Cube/Repository/STM32Cube_FW_F1_V1.8.4//Middlewares/ST/STM32_USB_Device_Library/Core/Src/usbd_ctlreq.c ****         pdev->dev_config_status |= USB_CONFIG_REMOTE_WAKEUP;
 768:/home/smartth/STM32Cube/Repository/STM32Cube_FW_F1_V1.8.4//Middlewares/ST/STM32_USB_Device_Library/Core/Src/usbd_ctlreq.c ****       }
 769:/home/smartth/STM32Cube/Repository/STM32Cube_FW_F1_V1.8.4//Middlewares/ST/STM32_USB_Device_Library/Core/Src/usbd_ctlreq.c **** 
 770:/home/smartth/STM32Cube/Repository/STM32Cube_FW_F1_V1.8.4//Middlewares/ST/STM32_USB_Device_Library/Core/Src/usbd_ctlreq.c ****       USBD_CtlSendData(pdev, (uint8_t *)(void *)&pdev->dev_config_status, 2U);
 771:/home/smartth/STM32Cube/Repository/STM32Cube_FW_F1_V1.8.4//Middlewares/ST/STM32_USB_Device_Library/Core/Src/usbd_ctlreq.c ****       break;
 772:/home/smartth/STM32Cube/Repository/STM32Cube_FW_F1_V1.8.4//Middlewares/ST/STM32_USB_Device_Library/Core/Src/usbd_ctlreq.c **** 
 773:/home/smartth/STM32Cube/Repository/STM32Cube_FW_F1_V1.8.4//Middlewares/ST/STM32_USB_Device_Library/Core/Src/usbd_ctlreq.c ****     default:
ARM GAS  /tmp/ccVKyOYc.s 			page 15


 774:/home/smartth/STM32Cube/Repository/STM32Cube_FW_F1_V1.8.4//Middlewares/ST/STM32_USB_Device_Library/Core/Src/usbd_ctlreq.c ****       USBD_CtlError(pdev, req);
 775:/home/smartth/STM32Cube/Repository/STM32Cube_FW_F1_V1.8.4//Middlewares/ST/STM32_USB_Device_Library/Core/Src/usbd_ctlreq.c ****       break;
 776:/home/smartth/STM32Cube/Repository/STM32Cube_FW_F1_V1.8.4//Middlewares/ST/STM32_USB_Device_Library/Core/Src/usbd_ctlreq.c ****   }
 777:/home/smartth/STM32Cube/Repository/STM32Cube_FW_F1_V1.8.4//Middlewares/ST/STM32_USB_Device_Library/Core/Src/usbd_ctlreq.c **** }
 778:/home/smartth/STM32Cube/Repository/STM32Cube_FW_F1_V1.8.4//Middlewares/ST/STM32_USB_Device_Library/Core/Src/usbd_ctlreq.c **** 
 779:/home/smartth/STM32Cube/Repository/STM32Cube_FW_F1_V1.8.4//Middlewares/ST/STM32_USB_Device_Library/Core/Src/usbd_ctlreq.c **** 
 780:/home/smartth/STM32Cube/Repository/STM32Cube_FW_F1_V1.8.4//Middlewares/ST/STM32_USB_Device_Library/Core/Src/usbd_ctlreq.c **** /**
 781:/home/smartth/STM32Cube/Repository/STM32Cube_FW_F1_V1.8.4//Middlewares/ST/STM32_USB_Device_Library/Core/Src/usbd_ctlreq.c **** * @brief  USBD_SetFeature
 782:/home/smartth/STM32Cube/Repository/STM32Cube_FW_F1_V1.8.4//Middlewares/ST/STM32_USB_Device_Library/Core/Src/usbd_ctlreq.c **** *         Handle Set device feature request
 783:/home/smartth/STM32Cube/Repository/STM32Cube_FW_F1_V1.8.4//Middlewares/ST/STM32_USB_Device_Library/Core/Src/usbd_ctlreq.c **** * @param  pdev: device instance
 784:/home/smartth/STM32Cube/Repository/STM32Cube_FW_F1_V1.8.4//Middlewares/ST/STM32_USB_Device_Library/Core/Src/usbd_ctlreq.c **** * @param  req: usb request
 785:/home/smartth/STM32Cube/Repository/STM32Cube_FW_F1_V1.8.4//Middlewares/ST/STM32_USB_Device_Library/Core/Src/usbd_ctlreq.c **** * @retval status
 786:/home/smartth/STM32Cube/Repository/STM32Cube_FW_F1_V1.8.4//Middlewares/ST/STM32_USB_Device_Library/Core/Src/usbd_ctlreq.c **** */
 787:/home/smartth/STM32Cube/Repository/STM32Cube_FW_F1_V1.8.4//Middlewares/ST/STM32_USB_Device_Library/Core/Src/usbd_ctlreq.c **** static void USBD_SetFeature(USBD_HandleTypeDef *pdev,
 788:/home/smartth/STM32Cube/Repository/STM32Cube_FW_F1_V1.8.4//Middlewares/ST/STM32_USB_Device_Library/Core/Src/usbd_ctlreq.c ****                             USBD_SetupReqTypedef *req)
 789:/home/smartth/STM32Cube/Repository/STM32Cube_FW_F1_V1.8.4//Middlewares/ST/STM32_USB_Device_Library/Core/Src/usbd_ctlreq.c **** {
 790:/home/smartth/STM32Cube/Repository/STM32Cube_FW_F1_V1.8.4//Middlewares/ST/STM32_USB_Device_Library/Core/Src/usbd_ctlreq.c ****   if (req->wValue == USB_FEATURE_REMOTE_WAKEUP)
 791:/home/smartth/STM32Cube/Repository/STM32Cube_FW_F1_V1.8.4//Middlewares/ST/STM32_USB_Device_Library/Core/Src/usbd_ctlreq.c ****   {
 792:/home/smartth/STM32Cube/Repository/STM32Cube_FW_F1_V1.8.4//Middlewares/ST/STM32_USB_Device_Library/Core/Src/usbd_ctlreq.c ****     pdev->dev_remote_wakeup = 1U;
 793:/home/smartth/STM32Cube/Repository/STM32Cube_FW_F1_V1.8.4//Middlewares/ST/STM32_USB_Device_Library/Core/Src/usbd_ctlreq.c ****     USBD_CtlSendStatus(pdev);
 794:/home/smartth/STM32Cube/Repository/STM32Cube_FW_F1_V1.8.4//Middlewares/ST/STM32_USB_Device_Library/Core/Src/usbd_ctlreq.c ****   }
 795:/home/smartth/STM32Cube/Repository/STM32Cube_FW_F1_V1.8.4//Middlewares/ST/STM32_USB_Device_Library/Core/Src/usbd_ctlreq.c **** }
 796:/home/smartth/STM32Cube/Repository/STM32Cube_FW_F1_V1.8.4//Middlewares/ST/STM32_USB_Device_Library/Core/Src/usbd_ctlreq.c **** 
 797:/home/smartth/STM32Cube/Repository/STM32Cube_FW_F1_V1.8.4//Middlewares/ST/STM32_USB_Device_Library/Core/Src/usbd_ctlreq.c **** 
 798:/home/smartth/STM32Cube/Repository/STM32Cube_FW_F1_V1.8.4//Middlewares/ST/STM32_USB_Device_Library/Core/Src/usbd_ctlreq.c **** /**
 799:/home/smartth/STM32Cube/Repository/STM32Cube_FW_F1_V1.8.4//Middlewares/ST/STM32_USB_Device_Library/Core/Src/usbd_ctlreq.c **** * @brief  USBD_ClrFeature
 800:/home/smartth/STM32Cube/Repository/STM32Cube_FW_F1_V1.8.4//Middlewares/ST/STM32_USB_Device_Library/Core/Src/usbd_ctlreq.c **** *         Handle clear device feature request
 801:/home/smartth/STM32Cube/Repository/STM32Cube_FW_F1_V1.8.4//Middlewares/ST/STM32_USB_Device_Library/Core/Src/usbd_ctlreq.c **** * @param  pdev: device instance
 802:/home/smartth/STM32Cube/Repository/STM32Cube_FW_F1_V1.8.4//Middlewares/ST/STM32_USB_Device_Library/Core/Src/usbd_ctlreq.c **** * @param  req: usb request
 803:/home/smartth/STM32Cube/Repository/STM32Cube_FW_F1_V1.8.4//Middlewares/ST/STM32_USB_Device_Library/Core/Src/usbd_ctlreq.c **** * @retval status
 804:/home/smartth/STM32Cube/Repository/STM32Cube_FW_F1_V1.8.4//Middlewares/ST/STM32_USB_Device_Library/Core/Src/usbd_ctlreq.c **** */
 805:/home/smartth/STM32Cube/Repository/STM32Cube_FW_F1_V1.8.4//Middlewares/ST/STM32_USB_Device_Library/Core/Src/usbd_ctlreq.c **** static void USBD_ClrFeature(USBD_HandleTypeDef *pdev,
 806:/home/smartth/STM32Cube/Repository/STM32Cube_FW_F1_V1.8.4//Middlewares/ST/STM32_USB_Device_Library/Core/Src/usbd_ctlreq.c ****                             USBD_SetupReqTypedef *req)
 807:/home/smartth/STM32Cube/Repository/STM32Cube_FW_F1_V1.8.4//Middlewares/ST/STM32_USB_Device_Library/Core/Src/usbd_ctlreq.c **** {
 808:/home/smartth/STM32Cube/Repository/STM32Cube_FW_F1_V1.8.4//Middlewares/ST/STM32_USB_Device_Library/Core/Src/usbd_ctlreq.c ****   switch (pdev->dev_state)
 809:/home/smartth/STM32Cube/Repository/STM32Cube_FW_F1_V1.8.4//Middlewares/ST/STM32_USB_Device_Library/Core/Src/usbd_ctlreq.c ****   {
 810:/home/smartth/STM32Cube/Repository/STM32Cube_FW_F1_V1.8.4//Middlewares/ST/STM32_USB_Device_Library/Core/Src/usbd_ctlreq.c ****     case USBD_STATE_DEFAULT:
 811:/home/smartth/STM32Cube/Repository/STM32Cube_FW_F1_V1.8.4//Middlewares/ST/STM32_USB_Device_Library/Core/Src/usbd_ctlreq.c ****     case USBD_STATE_ADDRESSED:
 812:/home/smartth/STM32Cube/Repository/STM32Cube_FW_F1_V1.8.4//Middlewares/ST/STM32_USB_Device_Library/Core/Src/usbd_ctlreq.c ****     case USBD_STATE_CONFIGURED:
 813:/home/smartth/STM32Cube/Repository/STM32Cube_FW_F1_V1.8.4//Middlewares/ST/STM32_USB_Device_Library/Core/Src/usbd_ctlreq.c ****       if (req->wValue == USB_FEATURE_REMOTE_WAKEUP)
 814:/home/smartth/STM32Cube/Repository/STM32Cube_FW_F1_V1.8.4//Middlewares/ST/STM32_USB_Device_Library/Core/Src/usbd_ctlreq.c ****       {
 815:/home/smartth/STM32Cube/Repository/STM32Cube_FW_F1_V1.8.4//Middlewares/ST/STM32_USB_Device_Library/Core/Src/usbd_ctlreq.c ****         pdev->dev_remote_wakeup = 0U;
 816:/home/smartth/STM32Cube/Repository/STM32Cube_FW_F1_V1.8.4//Middlewares/ST/STM32_USB_Device_Library/Core/Src/usbd_ctlreq.c ****         USBD_CtlSendStatus(pdev);
 817:/home/smartth/STM32Cube/Repository/STM32Cube_FW_F1_V1.8.4//Middlewares/ST/STM32_USB_Device_Library/Core/Src/usbd_ctlreq.c ****       }
 818:/home/smartth/STM32Cube/Repository/STM32Cube_FW_F1_V1.8.4//Middlewares/ST/STM32_USB_Device_Library/Core/Src/usbd_ctlreq.c ****       break;
 819:/home/smartth/STM32Cube/Repository/STM32Cube_FW_F1_V1.8.4//Middlewares/ST/STM32_USB_Device_Library/Core/Src/usbd_ctlreq.c **** 
 820:/home/smartth/STM32Cube/Repository/STM32Cube_FW_F1_V1.8.4//Middlewares/ST/STM32_USB_Device_Library/Core/Src/usbd_ctlreq.c ****     default:
 821:/home/smartth/STM32Cube/Repository/STM32Cube_FW_F1_V1.8.4//Middlewares/ST/STM32_USB_Device_Library/Core/Src/usbd_ctlreq.c ****       USBD_CtlError(pdev, req);
 822:/home/smartth/STM32Cube/Repository/STM32Cube_FW_F1_V1.8.4//Middlewares/ST/STM32_USB_Device_Library/Core/Src/usbd_ctlreq.c ****       break;
 823:/home/smartth/STM32Cube/Repository/STM32Cube_FW_F1_V1.8.4//Middlewares/ST/STM32_USB_Device_Library/Core/Src/usbd_ctlreq.c ****   }
 824:/home/smartth/STM32Cube/Repository/STM32Cube_FW_F1_V1.8.4//Middlewares/ST/STM32_USB_Device_Library/Core/Src/usbd_ctlreq.c **** }
 825:/home/smartth/STM32Cube/Repository/STM32Cube_FW_F1_V1.8.4//Middlewares/ST/STM32_USB_Device_Library/Core/Src/usbd_ctlreq.c **** 
 826:/home/smartth/STM32Cube/Repository/STM32Cube_FW_F1_V1.8.4//Middlewares/ST/STM32_USB_Device_Library/Core/Src/usbd_ctlreq.c **** /**
 827:/home/smartth/STM32Cube/Repository/STM32Cube_FW_F1_V1.8.4//Middlewares/ST/STM32_USB_Device_Library/Core/Src/usbd_ctlreq.c **** * @brief  USBD_ParseSetupRequest
 828:/home/smartth/STM32Cube/Repository/STM32Cube_FW_F1_V1.8.4//Middlewares/ST/STM32_USB_Device_Library/Core/Src/usbd_ctlreq.c **** *         Copy buffer into setup structure
 829:/home/smartth/STM32Cube/Repository/STM32Cube_FW_F1_V1.8.4//Middlewares/ST/STM32_USB_Device_Library/Core/Src/usbd_ctlreq.c **** * @param  pdev: device instance
 830:/home/smartth/STM32Cube/Repository/STM32Cube_FW_F1_V1.8.4//Middlewares/ST/STM32_USB_Device_Library/Core/Src/usbd_ctlreq.c **** * @param  req: usb request
ARM GAS  /tmp/ccVKyOYc.s 			page 16


 831:/home/smartth/STM32Cube/Repository/STM32Cube_FW_F1_V1.8.4//Middlewares/ST/STM32_USB_Device_Library/Core/Src/usbd_ctlreq.c **** * @retval None
 832:/home/smartth/STM32Cube/Repository/STM32Cube_FW_F1_V1.8.4//Middlewares/ST/STM32_USB_Device_Library/Core/Src/usbd_ctlreq.c **** */
 833:/home/smartth/STM32Cube/Repository/STM32Cube_FW_F1_V1.8.4//Middlewares/ST/STM32_USB_Device_Library/Core/Src/usbd_ctlreq.c **** 
 834:/home/smartth/STM32Cube/Repository/STM32Cube_FW_F1_V1.8.4//Middlewares/ST/STM32_USB_Device_Library/Core/Src/usbd_ctlreq.c **** void USBD_ParseSetupRequest(USBD_SetupReqTypedef *req, uint8_t *pdata)
 835:/home/smartth/STM32Cube/Repository/STM32Cube_FW_F1_V1.8.4//Middlewares/ST/STM32_USB_Device_Library/Core/Src/usbd_ctlreq.c **** {
 836:/home/smartth/STM32Cube/Repository/STM32Cube_FW_F1_V1.8.4//Middlewares/ST/STM32_USB_Device_Library/Core/Src/usbd_ctlreq.c ****   req->bmRequest = *(uint8_t *)(pdata);
 837:/home/smartth/STM32Cube/Repository/STM32Cube_FW_F1_V1.8.4//Middlewares/ST/STM32_USB_Device_Library/Core/Src/usbd_ctlreq.c ****   req->bRequest = *(uint8_t *)(pdata + 1U);
 838:/home/smartth/STM32Cube/Repository/STM32Cube_FW_F1_V1.8.4//Middlewares/ST/STM32_USB_Device_Library/Core/Src/usbd_ctlreq.c ****   req->wValue = SWAPBYTE(pdata + 2U);
 839:/home/smartth/STM32Cube/Repository/STM32Cube_FW_F1_V1.8.4//Middlewares/ST/STM32_USB_Device_Library/Core/Src/usbd_ctlreq.c ****   req->wIndex = SWAPBYTE(pdata + 4U);
 840:/home/smartth/STM32Cube/Repository/STM32Cube_FW_F1_V1.8.4//Middlewares/ST/STM32_USB_Device_Library/Core/Src/usbd_ctlreq.c ****   req->wLength = SWAPBYTE(pdata + 6U);
 841:/home/smartth/STM32Cube/Repository/STM32Cube_FW_F1_V1.8.4//Middlewares/ST/STM32_USB_Device_Library/Core/Src/usbd_ctlreq.c **** 
 842:/home/smartth/STM32Cube/Repository/STM32Cube_FW_F1_V1.8.4//Middlewares/ST/STM32_USB_Device_Library/Core/Src/usbd_ctlreq.c **** }
 843:/home/smartth/STM32Cube/Repository/STM32Cube_FW_F1_V1.8.4//Middlewares/ST/STM32_USB_Device_Library/Core/Src/usbd_ctlreq.c **** 
 844:/home/smartth/STM32Cube/Repository/STM32Cube_FW_F1_V1.8.4//Middlewares/ST/STM32_USB_Device_Library/Core/Src/usbd_ctlreq.c **** /**
 845:/home/smartth/STM32Cube/Repository/STM32Cube_FW_F1_V1.8.4//Middlewares/ST/STM32_USB_Device_Library/Core/Src/usbd_ctlreq.c **** * @brief  USBD_CtlError
 846:/home/smartth/STM32Cube/Repository/STM32Cube_FW_F1_V1.8.4//Middlewares/ST/STM32_USB_Device_Library/Core/Src/usbd_ctlreq.c **** *         Handle USB low level Error
 847:/home/smartth/STM32Cube/Repository/STM32Cube_FW_F1_V1.8.4//Middlewares/ST/STM32_USB_Device_Library/Core/Src/usbd_ctlreq.c **** * @param  pdev: device instance
 848:/home/smartth/STM32Cube/Repository/STM32Cube_FW_F1_V1.8.4//Middlewares/ST/STM32_USB_Device_Library/Core/Src/usbd_ctlreq.c **** * @param  req: usb request
 849:/home/smartth/STM32Cube/Repository/STM32Cube_FW_F1_V1.8.4//Middlewares/ST/STM32_USB_Device_Library/Core/Src/usbd_ctlreq.c **** * @retval None
 850:/home/smartth/STM32Cube/Repository/STM32Cube_FW_F1_V1.8.4//Middlewares/ST/STM32_USB_Device_Library/Core/Src/usbd_ctlreq.c **** */
 851:/home/smartth/STM32Cube/Repository/STM32Cube_FW_F1_V1.8.4//Middlewares/ST/STM32_USB_Device_Library/Core/Src/usbd_ctlreq.c **** 
 852:/home/smartth/STM32Cube/Repository/STM32Cube_FW_F1_V1.8.4//Middlewares/ST/STM32_USB_Device_Library/Core/Src/usbd_ctlreq.c **** void USBD_CtlError(USBD_HandleTypeDef *pdev,
 853:/home/smartth/STM32Cube/Repository/STM32Cube_FW_F1_V1.8.4//Middlewares/ST/STM32_USB_Device_Library/Core/Src/usbd_ctlreq.c ****                    USBD_SetupReqTypedef *req)
 854:/home/smartth/STM32Cube/Repository/STM32Cube_FW_F1_V1.8.4//Middlewares/ST/STM32_USB_Device_Library/Core/Src/usbd_ctlreq.c **** {
 855:/home/smartth/STM32Cube/Repository/STM32Cube_FW_F1_V1.8.4//Middlewares/ST/STM32_USB_Device_Library/Core/Src/usbd_ctlreq.c ****   USBD_LL_StallEP(pdev, 0x80U);
 856:/home/smartth/STM32Cube/Repository/STM32Cube_FW_F1_V1.8.4//Middlewares/ST/STM32_USB_Device_Library/Core/Src/usbd_ctlreq.c ****   USBD_LL_StallEP(pdev, 0U);
 857:/home/smartth/STM32Cube/Repository/STM32Cube_FW_F1_V1.8.4//Middlewares/ST/STM32_USB_Device_Library/Core/Src/usbd_ctlreq.c **** }
 858:/home/smartth/STM32Cube/Repository/STM32Cube_FW_F1_V1.8.4//Middlewares/ST/STM32_USB_Device_Library/Core/Src/usbd_ctlreq.c **** 
 859:/home/smartth/STM32Cube/Repository/STM32Cube_FW_F1_V1.8.4//Middlewares/ST/STM32_USB_Device_Library/Core/Src/usbd_ctlreq.c **** 
 860:/home/smartth/STM32Cube/Repository/STM32Cube_FW_F1_V1.8.4//Middlewares/ST/STM32_USB_Device_Library/Core/Src/usbd_ctlreq.c **** /**
 861:/home/smartth/STM32Cube/Repository/STM32Cube_FW_F1_V1.8.4//Middlewares/ST/STM32_USB_Device_Library/Core/Src/usbd_ctlreq.c ****   * @brief  USBD_GetString
 862:/home/smartth/STM32Cube/Repository/STM32Cube_FW_F1_V1.8.4//Middlewares/ST/STM32_USB_Device_Library/Core/Src/usbd_ctlreq.c ****   *         Convert Ascii string into unicode one
 863:/home/smartth/STM32Cube/Repository/STM32Cube_FW_F1_V1.8.4//Middlewares/ST/STM32_USB_Device_Library/Core/Src/usbd_ctlreq.c ****   * @param  desc : descriptor buffer
 864:/home/smartth/STM32Cube/Repository/STM32Cube_FW_F1_V1.8.4//Middlewares/ST/STM32_USB_Device_Library/Core/Src/usbd_ctlreq.c ****   * @param  unicode : Formatted string buffer (unicode)
 865:/home/smartth/STM32Cube/Repository/STM32Cube_FW_F1_V1.8.4//Middlewares/ST/STM32_USB_Device_Library/Core/Src/usbd_ctlreq.c ****   * @param  len : descriptor length
 866:/home/smartth/STM32Cube/Repository/STM32Cube_FW_F1_V1.8.4//Middlewares/ST/STM32_USB_Device_Library/Core/Src/usbd_ctlreq.c ****   * @retval None
 867:/home/smartth/STM32Cube/Repository/STM32Cube_FW_F1_V1.8.4//Middlewares/ST/STM32_USB_Device_Library/Core/Src/usbd_ctlreq.c ****   */
 868:/home/smartth/STM32Cube/Repository/STM32Cube_FW_F1_V1.8.4//Middlewares/ST/STM32_USB_Device_Library/Core/Src/usbd_ctlreq.c **** void USBD_GetString(uint8_t *desc, uint8_t *unicode, uint16_t *len)
 869:/home/smartth/STM32Cube/Repository/STM32Cube_FW_F1_V1.8.4//Middlewares/ST/STM32_USB_Device_Library/Core/Src/usbd_ctlreq.c **** {
 870:/home/smartth/STM32Cube/Repository/STM32Cube_FW_F1_V1.8.4//Middlewares/ST/STM32_USB_Device_Library/Core/Src/usbd_ctlreq.c ****   uint8_t idx = 0U;
 871:/home/smartth/STM32Cube/Repository/STM32Cube_FW_F1_V1.8.4//Middlewares/ST/STM32_USB_Device_Library/Core/Src/usbd_ctlreq.c **** 
 872:/home/smartth/STM32Cube/Repository/STM32Cube_FW_F1_V1.8.4//Middlewares/ST/STM32_USB_Device_Library/Core/Src/usbd_ctlreq.c ****   if (desc != NULL)
 873:/home/smartth/STM32Cube/Repository/STM32Cube_FW_F1_V1.8.4//Middlewares/ST/STM32_USB_Device_Library/Core/Src/usbd_ctlreq.c ****   {
 874:/home/smartth/STM32Cube/Repository/STM32Cube_FW_F1_V1.8.4//Middlewares/ST/STM32_USB_Device_Library/Core/Src/usbd_ctlreq.c ****     *len = (uint16_t)USBD_GetLen(desc) * 2U + 2U;
 875:/home/smartth/STM32Cube/Repository/STM32Cube_FW_F1_V1.8.4//Middlewares/ST/STM32_USB_Device_Library/Core/Src/usbd_ctlreq.c ****     unicode[idx++] = *(uint8_t *)(void *)len;
 876:/home/smartth/STM32Cube/Repository/STM32Cube_FW_F1_V1.8.4//Middlewares/ST/STM32_USB_Device_Library/Core/Src/usbd_ctlreq.c ****     unicode[idx++] = USB_DESC_TYPE_STRING;
 877:/home/smartth/STM32Cube/Repository/STM32Cube_FW_F1_V1.8.4//Middlewares/ST/STM32_USB_Device_Library/Core/Src/usbd_ctlreq.c **** 
 878:/home/smartth/STM32Cube/Repository/STM32Cube_FW_F1_V1.8.4//Middlewares/ST/STM32_USB_Device_Library/Core/Src/usbd_ctlreq.c ****     while (*desc != '\0')
 879:/home/smartth/STM32Cube/Repository/STM32Cube_FW_F1_V1.8.4//Middlewares/ST/STM32_USB_Device_Library/Core/Src/usbd_ctlreq.c ****     {
 880:/home/smartth/STM32Cube/Repository/STM32Cube_FW_F1_V1.8.4//Middlewares/ST/STM32_USB_Device_Library/Core/Src/usbd_ctlreq.c ****       unicode[idx++] = *desc++;
 881:/home/smartth/STM32Cube/Repository/STM32Cube_FW_F1_V1.8.4//Middlewares/ST/STM32_USB_Device_Library/Core/Src/usbd_ctlreq.c ****       unicode[idx++] =  0U;
 882:/home/smartth/STM32Cube/Repository/STM32Cube_FW_F1_V1.8.4//Middlewares/ST/STM32_USB_Device_Library/Core/Src/usbd_ctlreq.c ****     }
 883:/home/smartth/STM32Cube/Repository/STM32Cube_FW_F1_V1.8.4//Middlewares/ST/STM32_USB_Device_Library/Core/Src/usbd_ctlreq.c ****   }
 884:/home/smartth/STM32Cube/Repository/STM32Cube_FW_F1_V1.8.4//Middlewares/ST/STM32_USB_Device_Library/Core/Src/usbd_ctlreq.c **** }
 885:/home/smartth/STM32Cube/Repository/STM32Cube_FW_F1_V1.8.4//Middlewares/ST/STM32_USB_Device_Library/Core/Src/usbd_ctlreq.c **** 
 886:/home/smartth/STM32Cube/Repository/STM32Cube_FW_F1_V1.8.4//Middlewares/ST/STM32_USB_Device_Library/Core/Src/usbd_ctlreq.c **** /**
 887:/home/smartth/STM32Cube/Repository/STM32Cube_FW_F1_V1.8.4//Middlewares/ST/STM32_USB_Device_Library/Core/Src/usbd_ctlreq.c ****   * @brief  USBD_GetLen
ARM GAS  /tmp/ccVKyOYc.s 			page 17


 888:/home/smartth/STM32Cube/Repository/STM32Cube_FW_F1_V1.8.4//Middlewares/ST/STM32_USB_Device_Library/Core/Src/usbd_ctlreq.c ****   *         return the string length
 889:/home/smartth/STM32Cube/Repository/STM32Cube_FW_F1_V1.8.4//Middlewares/ST/STM32_USB_Device_Library/Core/Src/usbd_ctlreq.c ****    * @param  buf : pointer to the ascii string buffer
 890:/home/smartth/STM32Cube/Repository/STM32Cube_FW_F1_V1.8.4//Middlewares/ST/STM32_USB_Device_Library/Core/Src/usbd_ctlreq.c ****   * @retval string length
 891:/home/smartth/STM32Cube/Repository/STM32Cube_FW_F1_V1.8.4//Middlewares/ST/STM32_USB_Device_Library/Core/Src/usbd_ctlreq.c ****   */
 892:/home/smartth/STM32Cube/Repository/STM32Cube_FW_F1_V1.8.4//Middlewares/ST/STM32_USB_Device_Library/Core/Src/usbd_ctlreq.c **** static uint8_t USBD_GetLen(uint8_t *buf)
 893:/home/smartth/STM32Cube/Repository/STM32Cube_FW_F1_V1.8.4//Middlewares/ST/STM32_USB_Device_Library/Core/Src/usbd_ctlreq.c **** {
  27              		.loc 1 893 1 view -0
  28              		.cfi_startproc
  29              		@ args = 0, pretend = 0, frame = 0
  30              		@ frame_needed = 0, uses_anonymous_args = 0
  31              		@ link register save eliminated.
  32              		.loc 1 893 1 is_stmt 0 view .LVU1
  33 0000 0346     		mov	r3, r0
 894:/home/smartth/STM32Cube/Repository/STM32Cube_FW_F1_V1.8.4//Middlewares/ST/STM32_USB_Device_Library/Core/Src/usbd_ctlreq.c ****   uint8_t  len = 0U;
  34              		.loc 1 894 3 is_stmt 1 view .LVU2
  35              	.LVL1:
 895:/home/smartth/STM32Cube/Repository/STM32Cube_FW_F1_V1.8.4//Middlewares/ST/STM32_USB_Device_Library/Core/Src/usbd_ctlreq.c **** 
 896:/home/smartth/STM32Cube/Repository/STM32Cube_FW_F1_V1.8.4//Middlewares/ST/STM32_USB_Device_Library/Core/Src/usbd_ctlreq.c ****   while (*buf != '\0')
  36              		.loc 1 896 3 view .LVU3
 894:/home/smartth/STM32Cube/Repository/STM32Cube_FW_F1_V1.8.4//Middlewares/ST/STM32_USB_Device_Library/Core/Src/usbd_ctlreq.c ****   uint8_t  len = 0U;
  37              		.loc 1 894 12 is_stmt 0 view .LVU4
  38 0002 0020     		movs	r0, #0
  39              	.LVL2:
  40              		.loc 1 896 9 view .LVU5
  41 0004 02E0     		b	.L2
  42              	.LVL3:
  43              	.L3:
 897:/home/smartth/STM32Cube/Repository/STM32Cube_FW_F1_V1.8.4//Middlewares/ST/STM32_USB_Device_Library/Core/Src/usbd_ctlreq.c ****   {
 898:/home/smartth/STM32Cube/Repository/STM32Cube_FW_F1_V1.8.4//Middlewares/ST/STM32_USB_Device_Library/Core/Src/usbd_ctlreq.c ****     len++;
  44              		.loc 1 898 5 is_stmt 1 view .LVU6
  45              		.loc 1 898 8 is_stmt 0 view .LVU7
  46 0006 0130     		adds	r0, r0, #1
  47              	.LVL4:
  48              		.loc 1 898 8 view .LVU8
  49 0008 C0B2     		uxtb	r0, r0
  50              	.LVL5:
 899:/home/smartth/STM32Cube/Repository/STM32Cube_FW_F1_V1.8.4//Middlewares/ST/STM32_USB_Device_Library/Core/Src/usbd_ctlreq.c ****     buf++;
  51              		.loc 1 899 5 is_stmt 1 view .LVU9
  52              		.loc 1 899 8 is_stmt 0 view .LVU10
  53 000a 0133     		adds	r3, r3, #1
  54              	.LVL6:
  55              	.L2:
 896:/home/smartth/STM32Cube/Repository/STM32Cube_FW_F1_V1.8.4//Middlewares/ST/STM32_USB_Device_Library/Core/Src/usbd_ctlreq.c ****   {
  56              		.loc 1 896 9 is_stmt 1 view .LVU11
 896:/home/smartth/STM32Cube/Repository/STM32Cube_FW_F1_V1.8.4//Middlewares/ST/STM32_USB_Device_Library/Core/Src/usbd_ctlreq.c ****   {
  57              		.loc 1 896 10 is_stmt 0 view .LVU12
  58 000c 1A78     		ldrb	r2, [r3]	@ zero_extendqisi2
 896:/home/smartth/STM32Cube/Repository/STM32Cube_FW_F1_V1.8.4//Middlewares/ST/STM32_USB_Device_Library/Core/Src/usbd_ctlreq.c ****   {
  59              		.loc 1 896 9 view .LVU13
  60 000e 002A     		cmp	r2, #0
  61 0010 F9D1     		bne	.L3
 900:/home/smartth/STM32Cube/Repository/STM32Cube_FW_F1_V1.8.4//Middlewares/ST/STM32_USB_Device_Library/Core/Src/usbd_ctlreq.c ****   }
 901:/home/smartth/STM32Cube/Repository/STM32Cube_FW_F1_V1.8.4//Middlewares/ST/STM32_USB_Device_Library/Core/Src/usbd_ctlreq.c **** 
 902:/home/smartth/STM32Cube/Repository/STM32Cube_FW_F1_V1.8.4//Middlewares/ST/STM32_USB_Device_Library/Core/Src/usbd_ctlreq.c ****   return len;
  62              		.loc 1 902 3 is_stmt 1 view .LVU14
 903:/home/smartth/STM32Cube/Repository/STM32Cube_FW_F1_V1.8.4//Middlewares/ST/STM32_USB_Device_Library/Core/Src/usbd_ctlreq.c **** }
  63              		.loc 1 903 1 is_stmt 0 view .LVU15
ARM GAS  /tmp/ccVKyOYc.s 			page 18


  64 0012 7047     		bx	lr
  65              		.cfi_endproc
  66              	.LFE210:
  68              		.section	.text.USBD_SetFeature,"ax",%progbits
  69              		.align	1
  70              		.syntax unified
  71              		.thumb
  72              		.thumb_func
  73              		.fpu softvfp
  75              	USBD_SetFeature:
  76              	.LVL7:
  77              	.LFB205:
 789:/home/smartth/STM32Cube/Repository/STM32Cube_FW_F1_V1.8.4//Middlewares/ST/STM32_USB_Device_Library/Core/Src/usbd_ctlreq.c ****   if (req->wValue == USB_FEATURE_REMOTE_WAKEUP)
  78              		.loc 1 789 1 is_stmt 1 view -0
  79              		.cfi_startproc
  80              		@ args = 0, pretend = 0, frame = 0
  81              		@ frame_needed = 0, uses_anonymous_args = 0
 789:/home/smartth/STM32Cube/Repository/STM32Cube_FW_F1_V1.8.4//Middlewares/ST/STM32_USB_Device_Library/Core/Src/usbd_ctlreq.c ****   if (req->wValue == USB_FEATURE_REMOTE_WAKEUP)
  82              		.loc 1 789 1 is_stmt 0 view .LVU17
  83 0000 08B5     		push	{r3, lr}
  84              	.LCFI0:
  85              		.cfi_def_cfa_offset 8
  86              		.cfi_offset 3, -8
  87              		.cfi_offset 14, -4
 790:/home/smartth/STM32Cube/Repository/STM32Cube_FW_F1_V1.8.4//Middlewares/ST/STM32_USB_Device_Library/Core/Src/usbd_ctlreq.c ****   {
  88              		.loc 1 790 3 is_stmt 1 view .LVU18
 790:/home/smartth/STM32Cube/Repository/STM32Cube_FW_F1_V1.8.4//Middlewares/ST/STM32_USB_Device_Library/Core/Src/usbd_ctlreq.c ****   {
  89              		.loc 1 790 10 is_stmt 0 view .LVU19
  90 0002 4B88     		ldrh	r3, [r1, #2]
 790:/home/smartth/STM32Cube/Repository/STM32Cube_FW_F1_V1.8.4//Middlewares/ST/STM32_USB_Device_Library/Core/Src/usbd_ctlreq.c ****   {
  91              		.loc 1 790 6 view .LVU20
  92 0004 012B     		cmp	r3, #1
  93 0006 00D0     		beq	.L7
  94              	.LVL8:
  95              	.L4:
 795:/home/smartth/STM32Cube/Repository/STM32Cube_FW_F1_V1.8.4//Middlewares/ST/STM32_USB_Device_Library/Core/Src/usbd_ctlreq.c **** 
  96              		.loc 1 795 1 view .LVU21
  97 0008 08BD     		pop	{r3, pc}
  98              	.LVL9:
  99              	.L7:
 792:/home/smartth/STM32Cube/Repository/STM32Cube_FW_F1_V1.8.4//Middlewares/ST/STM32_USB_Device_Library/Core/Src/usbd_ctlreq.c ****     USBD_CtlSendStatus(pdev);
 100              		.loc 1 792 5 is_stmt 1 view .LVU22
 792:/home/smartth/STM32Cube/Repository/STM32Cube_FW_F1_V1.8.4//Middlewares/ST/STM32_USB_Device_Library/Core/Src/usbd_ctlreq.c ****     USBD_CtlSendStatus(pdev);
 101              		.loc 1 792 29 is_stmt 0 view .LVU23
 102 000a C0F8A432 		str	r3, [r0, #676]
 793:/home/smartth/STM32Cube/Repository/STM32Cube_FW_F1_V1.8.4//Middlewares/ST/STM32_USB_Device_Library/Core/Src/usbd_ctlreq.c ****   }
 103              		.loc 1 793 5 is_stmt 1 view .LVU24
 104 000e FFF7FEFF 		bl	USBD_CtlSendStatus
 105              	.LVL10:
 795:/home/smartth/STM32Cube/Repository/STM32Cube_FW_F1_V1.8.4//Middlewares/ST/STM32_USB_Device_Library/Core/Src/usbd_ctlreq.c **** 
 106              		.loc 1 795 1 is_stmt 0 view .LVU25
 107 0012 F9E7     		b	.L4
 108              		.cfi_endproc
 109              	.LFE205:
 111              		.section	.text.USBD_ParseSetupRequest,"ax",%progbits
 112              		.align	1
 113              		.global	USBD_ParseSetupRequest
ARM GAS  /tmp/ccVKyOYc.s 			page 19


 114              		.syntax unified
 115              		.thumb
 116              		.thumb_func
 117              		.fpu softvfp
 119              	USBD_ParseSetupRequest:
 120              	.LVL11:
 121              	.LFB207:
 835:/home/smartth/STM32Cube/Repository/STM32Cube_FW_F1_V1.8.4//Middlewares/ST/STM32_USB_Device_Library/Core/Src/usbd_ctlreq.c ****   req->bmRequest = *(uint8_t *)(pdata);
 122              		.loc 1 835 1 is_stmt 1 view -0
 123              		.cfi_startproc
 124              		@ args = 0, pretend = 0, frame = 0
 125              		@ frame_needed = 0, uses_anonymous_args = 0
 126              		@ link register save eliminated.
 836:/home/smartth/STM32Cube/Repository/STM32Cube_FW_F1_V1.8.4//Middlewares/ST/STM32_USB_Device_Library/Core/Src/usbd_ctlreq.c ****   req->bRequest = *(uint8_t *)(pdata + 1U);
 127              		.loc 1 836 3 view .LVU27
 836:/home/smartth/STM32Cube/Repository/STM32Cube_FW_F1_V1.8.4//Middlewares/ST/STM32_USB_Device_Library/Core/Src/usbd_ctlreq.c ****   req->bRequest = *(uint8_t *)(pdata + 1U);
 128              		.loc 1 836 20 is_stmt 0 view .LVU28
 129 0000 0B78     		ldrb	r3, [r1]	@ zero_extendqisi2
 836:/home/smartth/STM32Cube/Repository/STM32Cube_FW_F1_V1.8.4//Middlewares/ST/STM32_USB_Device_Library/Core/Src/usbd_ctlreq.c ****   req->bRequest = *(uint8_t *)(pdata + 1U);
 130              		.loc 1 836 18 view .LVU29
 131 0002 0370     		strb	r3, [r0]
 837:/home/smartth/STM32Cube/Repository/STM32Cube_FW_F1_V1.8.4//Middlewares/ST/STM32_USB_Device_Library/Core/Src/usbd_ctlreq.c ****   req->wValue = SWAPBYTE(pdata + 2U);
 132              		.loc 1 837 3 is_stmt 1 view .LVU30
 837:/home/smartth/STM32Cube/Repository/STM32Cube_FW_F1_V1.8.4//Middlewares/ST/STM32_USB_Device_Library/Core/Src/usbd_ctlreq.c ****   req->wValue = SWAPBYTE(pdata + 2U);
 133              		.loc 1 837 17 is_stmt 0 view .LVU31
 134 0004 4B78     		ldrb	r3, [r1, #1]	@ zero_extendqisi2
 135 0006 4370     		strb	r3, [r0, #1]
 838:/home/smartth/STM32Cube/Repository/STM32Cube_FW_F1_V1.8.4//Middlewares/ST/STM32_USB_Device_Library/Core/Src/usbd_ctlreq.c ****   req->wIndex = SWAPBYTE(pdata + 4U);
 136              		.loc 1 838 3 is_stmt 1 view .LVU32
 838:/home/smartth/STM32Cube/Repository/STM32Cube_FW_F1_V1.8.4//Middlewares/ST/STM32_USB_Device_Library/Core/Src/usbd_ctlreq.c ****   req->wIndex = SWAPBYTE(pdata + 4U);
 137              		.loc 1 838 17 is_stmt 0 view .LVU33
 138 0008 8B78     		ldrb	r3, [r1, #2]	@ zero_extendqisi2
 139 000a CA78     		ldrb	r2, [r1, #3]	@ zero_extendqisi2
 140 000c 03EB0223 		add	r3, r3, r2, lsl #8
 838:/home/smartth/STM32Cube/Repository/STM32Cube_FW_F1_V1.8.4//Middlewares/ST/STM32_USB_Device_Library/Core/Src/usbd_ctlreq.c ****   req->wIndex = SWAPBYTE(pdata + 4U);
 141              		.loc 1 838 15 view .LVU34
 142 0010 4380     		strh	r3, [r0, #2]	@ movhi
 839:/home/smartth/STM32Cube/Repository/STM32Cube_FW_F1_V1.8.4//Middlewares/ST/STM32_USB_Device_Library/Core/Src/usbd_ctlreq.c ****   req->wLength = SWAPBYTE(pdata + 6U);
 143              		.loc 1 839 3 is_stmt 1 view .LVU35
 839:/home/smartth/STM32Cube/Repository/STM32Cube_FW_F1_V1.8.4//Middlewares/ST/STM32_USB_Device_Library/Core/Src/usbd_ctlreq.c ****   req->wLength = SWAPBYTE(pdata + 6U);
 144              		.loc 1 839 17 is_stmt 0 view .LVU36
 145 0012 0B79     		ldrb	r3, [r1, #4]	@ zero_extendqisi2
 146 0014 4A79     		ldrb	r2, [r1, #5]	@ zero_extendqisi2
 147 0016 03EB0223 		add	r3, r3, r2, lsl #8
 839:/home/smartth/STM32Cube/Repository/STM32Cube_FW_F1_V1.8.4//Middlewares/ST/STM32_USB_Device_Library/Core/Src/usbd_ctlreq.c ****   req->wLength = SWAPBYTE(pdata + 6U);
 148              		.loc 1 839 15 view .LVU37
 149 001a 8380     		strh	r3, [r0, #4]	@ movhi
 840:/home/smartth/STM32Cube/Repository/STM32Cube_FW_F1_V1.8.4//Middlewares/ST/STM32_USB_Device_Library/Core/Src/usbd_ctlreq.c **** 
 150              		.loc 1 840 3 is_stmt 1 view .LVU38
 840:/home/smartth/STM32Cube/Repository/STM32Cube_FW_F1_V1.8.4//Middlewares/ST/STM32_USB_Device_Library/Core/Src/usbd_ctlreq.c **** 
 151              		.loc 1 840 18 is_stmt 0 view .LVU39
 152 001c 8B79     		ldrb	r3, [r1, #6]	@ zero_extendqisi2
 153 001e CA79     		ldrb	r2, [r1, #7]	@ zero_extendqisi2
 154 0020 03EB0223 		add	r3, r3, r2, lsl #8
 840:/home/smartth/STM32Cube/Repository/STM32Cube_FW_F1_V1.8.4//Middlewares/ST/STM32_USB_Device_Library/Core/Src/usbd_ctlreq.c **** 
 155              		.loc 1 840 16 view .LVU40
 156 0024 C380     		strh	r3, [r0, #6]	@ movhi
ARM GAS  /tmp/ccVKyOYc.s 			page 20


 842:/home/smartth/STM32Cube/Repository/STM32Cube_FW_F1_V1.8.4//Middlewares/ST/STM32_USB_Device_Library/Core/Src/usbd_ctlreq.c **** 
 157              		.loc 1 842 1 view .LVU41
 158 0026 7047     		bx	lr
 159              		.cfi_endproc
 160              	.LFE207:
 162              		.section	.text.USBD_CtlError,"ax",%progbits
 163              		.align	1
 164              		.global	USBD_CtlError
 165              		.syntax unified
 166              		.thumb
 167              		.thumb_func
 168              		.fpu softvfp
 170              	USBD_CtlError:
 171              	.LVL12:
 172              	.LFB208:
 854:/home/smartth/STM32Cube/Repository/STM32Cube_FW_F1_V1.8.4//Middlewares/ST/STM32_USB_Device_Library/Core/Src/usbd_ctlreq.c ****   USBD_LL_StallEP(pdev, 0x80U);
 173              		.loc 1 854 1 is_stmt 1 view -0
 174              		.cfi_startproc
 175              		@ args = 0, pretend = 0, frame = 0
 176              		@ frame_needed = 0, uses_anonymous_args = 0
 854:/home/smartth/STM32Cube/Repository/STM32Cube_FW_F1_V1.8.4//Middlewares/ST/STM32_USB_Device_Library/Core/Src/usbd_ctlreq.c ****   USBD_LL_StallEP(pdev, 0x80U);
 177              		.loc 1 854 1 is_stmt 0 view .LVU43
 178 0000 10B5     		push	{r4, lr}
 179              	.LCFI1:
 180              		.cfi_def_cfa_offset 8
 181              		.cfi_offset 4, -8
 182              		.cfi_offset 14, -4
 183 0002 0446     		mov	r4, r0
 855:/home/smartth/STM32Cube/Repository/STM32Cube_FW_F1_V1.8.4//Middlewares/ST/STM32_USB_Device_Library/Core/Src/usbd_ctlreq.c ****   USBD_LL_StallEP(pdev, 0U);
 184              		.loc 1 855 3 is_stmt 1 view .LVU44
 185 0004 8021     		movs	r1, #128
 186              	.LVL13:
 855:/home/smartth/STM32Cube/Repository/STM32Cube_FW_F1_V1.8.4//Middlewares/ST/STM32_USB_Device_Library/Core/Src/usbd_ctlreq.c ****   USBD_LL_StallEP(pdev, 0U);
 187              		.loc 1 855 3 is_stmt 0 view .LVU45
 188 0006 FFF7FEFF 		bl	USBD_LL_StallEP
 189              	.LVL14:
 856:/home/smartth/STM32Cube/Repository/STM32Cube_FW_F1_V1.8.4//Middlewares/ST/STM32_USB_Device_Library/Core/Src/usbd_ctlreq.c **** }
 190              		.loc 1 856 3 is_stmt 1 view .LVU46
 191 000a 0021     		movs	r1, #0
 192 000c 2046     		mov	r0, r4
 193 000e FFF7FEFF 		bl	USBD_LL_StallEP
 194              	.LVL15:
 857:/home/smartth/STM32Cube/Repository/STM32Cube_FW_F1_V1.8.4//Middlewares/ST/STM32_USB_Device_Library/Core/Src/usbd_ctlreq.c **** 
 195              		.loc 1 857 1 is_stmt 0 view .LVU47
 196 0012 10BD     		pop	{r4, pc}
 857:/home/smartth/STM32Cube/Repository/STM32Cube_FW_F1_V1.8.4//Middlewares/ST/STM32_USB_Device_Library/Core/Src/usbd_ctlreq.c **** 
 197              		.loc 1 857 1 view .LVU48
 198              		.cfi_endproc
 199              	.LFE208:
 201              		.section	.text.USBD_GetDescriptor,"ax",%progbits
 202              		.align	1
 203              		.syntax unified
 204              		.thumb
 205              		.thumb_func
 206              		.fpu softvfp
 208              	USBD_GetDescriptor:
 209              	.LVL16:
ARM GAS  /tmp/ccVKyOYc.s 			page 21


 210              	.LFB200:
 407:/home/smartth/STM32Cube/Repository/STM32Cube_FW_F1_V1.8.4//Middlewares/ST/STM32_USB_Device_Library/Core/Src/usbd_ctlreq.c ****   uint16_t len = 0U;
 211              		.loc 1 407 1 is_stmt 1 view -0
 212              		.cfi_startproc
 213              		@ args = 0, pretend = 0, frame = 8
 214              		@ frame_needed = 0, uses_anonymous_args = 0
 407:/home/smartth/STM32Cube/Repository/STM32Cube_FW_F1_V1.8.4//Middlewares/ST/STM32_USB_Device_Library/Core/Src/usbd_ctlreq.c ****   uint16_t len = 0U;
 215              		.loc 1 407 1 is_stmt 0 view .LVU50
 216 0000 30B5     		push	{r4, r5, lr}
 217              	.LCFI2:
 218              		.cfi_def_cfa_offset 12
 219              		.cfi_offset 4, -12
 220              		.cfi_offset 5, -8
 221              		.cfi_offset 14, -4
 222 0002 83B0     		sub	sp, sp, #12
 223              	.LCFI3:
 224              		.cfi_def_cfa_offset 24
 225 0004 0546     		mov	r5, r0
 226 0006 0C46     		mov	r4, r1
 408:/home/smartth/STM32Cube/Repository/STM32Cube_FW_F1_V1.8.4//Middlewares/ST/STM32_USB_Device_Library/Core/Src/usbd_ctlreq.c ****   uint8_t *pbuf = NULL;
 227              		.loc 1 408 3 is_stmt 1 view .LVU51
 408:/home/smartth/STM32Cube/Repository/STM32Cube_FW_F1_V1.8.4//Middlewares/ST/STM32_USB_Device_Library/Core/Src/usbd_ctlreq.c ****   uint8_t *pbuf = NULL;
 228              		.loc 1 408 12 is_stmt 0 view .LVU52
 229 0008 0023     		movs	r3, #0
 230 000a ADF80630 		strh	r3, [sp, #6]	@ movhi
 409:/home/smartth/STM32Cube/Repository/STM32Cube_FW_F1_V1.8.4//Middlewares/ST/STM32_USB_Device_Library/Core/Src/usbd_ctlreq.c ****   uint8_t err = 0U;
 231              		.loc 1 409 3 is_stmt 1 view .LVU53
 232              	.LVL17:
 410:/home/smartth/STM32Cube/Repository/STM32Cube_FW_F1_V1.8.4//Middlewares/ST/STM32_USB_Device_Library/Core/Src/usbd_ctlreq.c **** 
 233              		.loc 1 410 3 view .LVU54
 412:/home/smartth/STM32Cube/Repository/STM32Cube_FW_F1_V1.8.4//Middlewares/ST/STM32_USB_Device_Library/Core/Src/usbd_ctlreq.c ****   {
 234              		.loc 1 412 3 view .LVU55
 412:/home/smartth/STM32Cube/Repository/STM32Cube_FW_F1_V1.8.4//Middlewares/ST/STM32_USB_Device_Library/Core/Src/usbd_ctlreq.c ****   {
 235              		.loc 1 412 14 is_stmt 0 view .LVU56
 236 000e 4A88     		ldrh	r2, [r1, #2]
 412:/home/smartth/STM32Cube/Repository/STM32Cube_FW_F1_V1.8.4//Middlewares/ST/STM32_USB_Device_Library/Core/Src/usbd_ctlreq.c ****   {
 237              		.loc 1 412 23 view .LVU57
 238 0010 130A     		lsrs	r3, r2, #8
 412:/home/smartth/STM32Cube/Repository/STM32Cube_FW_F1_V1.8.4//Middlewares/ST/STM32_USB_Device_Library/Core/Src/usbd_ctlreq.c ****   {
 239              		.loc 1 412 3 view .LVU58
 240 0012 013B     		subs	r3, r3, #1
 241 0014 062B     		cmp	r3, #6
 242 0016 00F2A480 		bhi	.L12
 243 001a DFE803F0 		tbb	[pc, r3]
 244              	.LVL18:
 245              	.L14:
 246 001e 04       		.byte	(.L18-.L14)/2
 247 001f 18       		.byte	(.L17-.L14)/2
 248 0020 2C       		.byte	(.L16-.L14)/2
 249 0021 A2       		.byte	(.L12-.L14)/2
 250 0022 A2       		.byte	(.L12-.L14)/2
 251 0023 86       		.byte	(.L15-.L14)/2
 252 0024 93       		.byte	(.L13-.L14)/2
 253 0025 00       		.p2align 1
 254              	.L18:
 428:/home/smartth/STM32Cube/Repository/STM32Cube_FW_F1_V1.8.4//Middlewares/ST/STM32_USB_Device_Library/Core/Src/usbd_ctlreq.c ****       break;
 255              		.loc 1 428 7 is_stmt 1 view .LVU59
ARM GAS  /tmp/ccVKyOYc.s 			page 22


 428:/home/smartth/STM32Cube/Repository/STM32Cube_FW_F1_V1.8.4//Middlewares/ST/STM32_USB_Device_Library/Core/Src/usbd_ctlreq.c ****       break;
 256              		.loc 1 428 18 is_stmt 0 view .LVU60
 257 0026 D0F8B032 		ldr	r3, [r0, #688]
 428:/home/smartth/STM32Cube/Repository/STM32Cube_FW_F1_V1.8.4//Middlewares/ST/STM32_USB_Device_Library/Core/Src/usbd_ctlreq.c ****       break;
 258              		.loc 1 428 25 view .LVU61
 259 002a 1B68     		ldr	r3, [r3]
 428:/home/smartth/STM32Cube/Repository/STM32Cube_FW_F1_V1.8.4//Middlewares/ST/STM32_USB_Device_Library/Core/Src/usbd_ctlreq.c ****       break;
 260              		.loc 1 428 14 view .LVU62
 261 002c 0DF10601 		add	r1, sp, #6
 262 0030 007C     		ldrb	r0, [r0, #16]	@ zero_extendqisi2
 263              	.LVL19:
 428:/home/smartth/STM32Cube/Repository/STM32Cube_FW_F1_V1.8.4//Middlewares/ST/STM32_USB_Device_Library/Core/Src/usbd_ctlreq.c ****       break;
 264              		.loc 1 428 14 view .LVU63
 265 0032 9847     		blx	r3
 266              	.LVL20:
 429:/home/smartth/STM32Cube/Repository/STM32Cube_FW_F1_V1.8.4//Middlewares/ST/STM32_USB_Device_Library/Core/Src/usbd_ctlreq.c **** 
 267              		.loc 1 429 7 is_stmt 1 view .LVU64
 569:/home/smartth/STM32Cube/Repository/STM32Cube_FW_F1_V1.8.4//Middlewares/ST/STM32_USB_Device_Library/Core/Src/usbd_ctlreq.c ****   {
 268              		.loc 1 569 3 view .LVU65
 269              	.L19:
 575:/home/smartth/STM32Cube/Repository/STM32Cube_FW_F1_V1.8.4//Middlewares/ST/STM32_USB_Device_Library/Core/Src/usbd_ctlreq.c ****     {
 270              		.loc 1 575 5 view .LVU66
 575:/home/smartth/STM32Cube/Repository/STM32Cube_FW_F1_V1.8.4//Middlewares/ST/STM32_USB_Device_Library/Core/Src/usbd_ctlreq.c ****     {
 271              		.loc 1 575 14 is_stmt 0 view .LVU67
 272 0034 BDF80620 		ldrh	r2, [sp, #6]
 575:/home/smartth/STM32Cube/Repository/STM32Cube_FW_F1_V1.8.4//Middlewares/ST/STM32_USB_Device_Library/Core/Src/usbd_ctlreq.c ****     {
 273              		.loc 1 575 8 view .LVU68
 274 0038 1AB1     		cbz	r2, .L39
 575:/home/smartth/STM32Cube/Repository/STM32Cube_FW_F1_V1.8.4//Middlewares/ST/STM32_USB_Device_Library/Core/Src/usbd_ctlreq.c ****     {
 275              		.loc 1 575 28 discriminator 1 view .LVU69
 276 003a E388     		ldrh	r3, [r4, #6]
 575:/home/smartth/STM32Cube/Repository/STM32Cube_FW_F1_V1.8.4//Middlewares/ST/STM32_USB_Device_Library/Core/Src/usbd_ctlreq.c ****     {
 277              		.loc 1 575 21 discriminator 1 view .LVU70
 278 003c 002B     		cmp	r3, #0
 279 003e 40F09480 		bne	.L42
 280              	.LVL21:
 281              	.L39:
 581:/home/smartth/STM32Cube/Repository/STM32Cube_FW_F1_V1.8.4//Middlewares/ST/STM32_USB_Device_Library/Core/Src/usbd_ctlreq.c ****     {
 282              		.loc 1 581 5 is_stmt 1 view .LVU71
 581:/home/smartth/STM32Cube/Repository/STM32Cube_FW_F1_V1.8.4//Middlewares/ST/STM32_USB_Device_Library/Core/Src/usbd_ctlreq.c ****     {
 283              		.loc 1 581 12 is_stmt 0 view .LVU72
 284 0042 E388     		ldrh	r3, [r4, #6]
 581:/home/smartth/STM32Cube/Repository/STM32Cube_FW_F1_V1.8.4//Middlewares/ST/STM32_USB_Device_Library/Core/Src/usbd_ctlreq.c ****     {
 285              		.loc 1 581 8 view .LVU73
 286 0044 002B     		cmp	r3, #0
 287 0046 00F09A80 		beq	.L43
 288              	.LVL22:
 289              	.L11:
 586:/home/smartth/STM32Cube/Repository/STM32Cube_FW_F1_V1.8.4//Middlewares/ST/STM32_USB_Device_Library/Core/Src/usbd_ctlreq.c **** 
 290              		.loc 1 586 1 view .LVU74
 291 004a 03B0     		add	sp, sp, #12
 292              	.LCFI4:
 293              		.cfi_remember_state
 294              		.cfi_def_cfa_offset 12
 295              		@ sp needed
 296 004c 30BD     		pop	{r4, r5, pc}
 297              	.LVL23:
ARM GAS  /tmp/ccVKyOYc.s 			page 23


 298              	.L17:
 299              	.LCFI5:
 300              		.cfi_restore_state
 432:/home/smartth/STM32Cube/Repository/STM32Cube_FW_F1_V1.8.4//Middlewares/ST/STM32_USB_Device_Library/Core/Src/usbd_ctlreq.c ****       {
 301              		.loc 1 432 7 is_stmt 1 view .LVU75
 432:/home/smartth/STM32Cube/Repository/STM32Cube_FW_F1_V1.8.4//Middlewares/ST/STM32_USB_Device_Library/Core/Src/usbd_ctlreq.c ****       {
 302              		.loc 1 432 15 is_stmt 0 view .LVU76
 303 004e 037C     		ldrb	r3, [r0, #16]	@ zero_extendqisi2
 432:/home/smartth/STM32Cube/Repository/STM32Cube_FW_F1_V1.8.4//Middlewares/ST/STM32_USB_Device_Library/Core/Src/usbd_ctlreq.c ****       {
 304              		.loc 1 432 10 view .LVU77
 305 0050 43B9     		cbnz	r3, .L20
 434:/home/smartth/STM32Cube/Repository/STM32Cube_FW_F1_V1.8.4//Middlewares/ST/STM32_USB_Device_Library/Core/Src/usbd_ctlreq.c ****         pbuf[1] = USB_DESC_TYPE_CONFIGURATION;
 306              		.loc 1 434 9 is_stmt 1 view .LVU78
 434:/home/smartth/STM32Cube/Repository/STM32Cube_FW_F1_V1.8.4//Middlewares/ST/STM32_USB_Device_Library/Core/Src/usbd_ctlreq.c ****         pbuf[1] = USB_DESC_TYPE_CONFIGURATION;
 307              		.loc 1 434 20 is_stmt 0 view .LVU79
 308 0052 D0F8B432 		ldr	r3, [r0, #692]
 434:/home/smartth/STM32Cube/Repository/STM32Cube_FW_F1_V1.8.4//Middlewares/ST/STM32_USB_Device_Library/Core/Src/usbd_ctlreq.c ****         pbuf[1] = USB_DESC_TYPE_CONFIGURATION;
 309              		.loc 1 434 28 view .LVU80
 310 0056 9B6A     		ldr	r3, [r3, #40]
 434:/home/smartth/STM32Cube/Repository/STM32Cube_FW_F1_V1.8.4//Middlewares/ST/STM32_USB_Device_Library/Core/Src/usbd_ctlreq.c ****         pbuf[1] = USB_DESC_TYPE_CONFIGURATION;
 311              		.loc 1 434 16 view .LVU81
 312 0058 0DF10600 		add	r0, sp, #6
 313              	.LVL24:
 434:/home/smartth/STM32Cube/Repository/STM32Cube_FW_F1_V1.8.4//Middlewares/ST/STM32_USB_Device_Library/Core/Src/usbd_ctlreq.c ****         pbuf[1] = USB_DESC_TYPE_CONFIGURATION;
 314              		.loc 1 434 16 view .LVU82
 315 005c 9847     		blx	r3
 316              	.LVL25:
 435:/home/smartth/STM32Cube/Repository/STM32Cube_FW_F1_V1.8.4//Middlewares/ST/STM32_USB_Device_Library/Core/Src/usbd_ctlreq.c ****       }
 317              		.loc 1 435 9 is_stmt 1 view .LVU83
 435:/home/smartth/STM32Cube/Repository/STM32Cube_FW_F1_V1.8.4//Middlewares/ST/STM32_USB_Device_Library/Core/Src/usbd_ctlreq.c ****       }
 318              		.loc 1 435 17 is_stmt 0 view .LVU84
 319 005e 0223     		movs	r3, #2
 320 0060 4370     		strb	r3, [r0, #1]
 569:/home/smartth/STM32Cube/Repository/STM32Cube_FW_F1_V1.8.4//Middlewares/ST/STM32_USB_Device_Library/Core/Src/usbd_ctlreq.c ****   {
 321              		.loc 1 569 3 is_stmt 1 view .LVU85
 322 0062 E7E7     		b	.L19
 323              	.LVL26:
 324              	.L20:
 439:/home/smartth/STM32Cube/Repository/STM32Cube_FW_F1_V1.8.4//Middlewares/ST/STM32_USB_Device_Library/Core/Src/usbd_ctlreq.c ****         pbuf[1] = USB_DESC_TYPE_CONFIGURATION;
 325              		.loc 1 439 9 view .LVU86
 439:/home/smartth/STM32Cube/Repository/STM32Cube_FW_F1_V1.8.4//Middlewares/ST/STM32_USB_Device_Library/Core/Src/usbd_ctlreq.c ****         pbuf[1] = USB_DESC_TYPE_CONFIGURATION;
 326              		.loc 1 439 20 is_stmt 0 view .LVU87
 327 0064 D0F8B432 		ldr	r3, [r0, #692]
 439:/home/smartth/STM32Cube/Repository/STM32Cube_FW_F1_V1.8.4//Middlewares/ST/STM32_USB_Device_Library/Core/Src/usbd_ctlreq.c ****         pbuf[1] = USB_DESC_TYPE_CONFIGURATION;
 328              		.loc 1 439 28 view .LVU88
 329 0068 DB6A     		ldr	r3, [r3, #44]
 439:/home/smartth/STM32Cube/Repository/STM32Cube_FW_F1_V1.8.4//Middlewares/ST/STM32_USB_Device_Library/Core/Src/usbd_ctlreq.c ****         pbuf[1] = USB_DESC_TYPE_CONFIGURATION;
 330              		.loc 1 439 16 view .LVU89
 331 006a 0DF10600 		add	r0, sp, #6
 332              	.LVL27:
 439:/home/smartth/STM32Cube/Repository/STM32Cube_FW_F1_V1.8.4//Middlewares/ST/STM32_USB_Device_Library/Core/Src/usbd_ctlreq.c ****         pbuf[1] = USB_DESC_TYPE_CONFIGURATION;
 333              		.loc 1 439 16 view .LVU90
 334 006e 9847     		blx	r3
 335              	.LVL28:
 440:/home/smartth/STM32Cube/Repository/STM32Cube_FW_F1_V1.8.4//Middlewares/ST/STM32_USB_Device_Library/Core/Src/usbd_ctlreq.c ****       }
 336              		.loc 1 440 9 is_stmt 1 view .LVU91
 440:/home/smartth/STM32Cube/Repository/STM32Cube_FW_F1_V1.8.4//Middlewares/ST/STM32_USB_Device_Library/Core/Src/usbd_ctlreq.c ****       }
ARM GAS  /tmp/ccVKyOYc.s 			page 24


 337              		.loc 1 440 17 is_stmt 0 view .LVU92
 338 0070 0223     		movs	r3, #2
 339 0072 4370     		strb	r3, [r0, #1]
 569:/home/smartth/STM32Cube/Repository/STM32Cube_FW_F1_V1.8.4//Middlewares/ST/STM32_USB_Device_Library/Core/Src/usbd_ctlreq.c ****   {
 340              		.loc 1 569 3 is_stmt 1 view .LVU93
 341 0074 DEE7     		b	.L19
 342              	.LVL29:
 343              	.L16:
 445:/home/smartth/STM32Cube/Repository/STM32Cube_FW_F1_V1.8.4//Middlewares/ST/STM32_USB_Device_Library/Core/Src/usbd_ctlreq.c ****       {
 344              		.loc 1 445 7 view .LVU94
 445:/home/smartth/STM32Cube/Repository/STM32Cube_FW_F1_V1.8.4//Middlewares/ST/STM32_USB_Device_Library/Core/Src/usbd_ctlreq.c ****       {
 345              		.loc 1 445 15 is_stmt 0 view .LVU95
 346 0076 D2B2     		uxtb	r2, r2
 347 0078 052A     		cmp	r2, #5
 348 007a 52D8     		bhi	.L21
 349 007c DFE802F0 		tbb	[pc, r2]
 350              	.L23:
 351 0080 03       		.byte	(.L28-.L23)/2
 352 0081 10       		.byte	(.L27-.L23)/2
 353 0082 1D       		.byte	(.L26-.L23)/2
 354 0083 2A       		.byte	(.L25-.L23)/2
 355 0084 37       		.byte	(.L24-.L23)/2
 356 0085 44       		.byte	(.L22-.L23)/2
 357              		.p2align 1
 358              	.L28:
 448:/home/smartth/STM32Cube/Repository/STM32Cube_FW_F1_V1.8.4//Middlewares/ST/STM32_USB_Device_Library/Core/Src/usbd_ctlreq.c ****           {
 359              		.loc 1 448 11 is_stmt 1 view .LVU96
 448:/home/smartth/STM32Cube/Repository/STM32Cube_FW_F1_V1.8.4//Middlewares/ST/STM32_USB_Device_Library/Core/Src/usbd_ctlreq.c ****           {
 360              		.loc 1 448 19 is_stmt 0 view .LVU97
 361 0086 D0F8B032 		ldr	r3, [r0, #688]
 448:/home/smartth/STM32Cube/Repository/STM32Cube_FW_F1_V1.8.4//Middlewares/ST/STM32_USB_Device_Library/Core/Src/usbd_ctlreq.c ****           {
 362              		.loc 1 448 26 view .LVU98
 363 008a 5B68     		ldr	r3, [r3, #4]
 448:/home/smartth/STM32Cube/Repository/STM32Cube_FW_F1_V1.8.4//Middlewares/ST/STM32_USB_Device_Library/Core/Src/usbd_ctlreq.c ****           {
 364              		.loc 1 448 14 view .LVU99
 365 008c 23B1     		cbz	r3, .L29
 450:/home/smartth/STM32Cube/Repository/STM32Cube_FW_F1_V1.8.4//Middlewares/ST/STM32_USB_Device_Library/Core/Src/usbd_ctlreq.c ****           }
 366              		.loc 1 450 13 is_stmt 1 view .LVU100
 450:/home/smartth/STM32Cube/Repository/STM32Cube_FW_F1_V1.8.4//Middlewares/ST/STM32_USB_Device_Library/Core/Src/usbd_ctlreq.c ****           }
 367              		.loc 1 450 20 is_stmt 0 view .LVU101
 368 008e 0DF10601 		add	r1, sp, #6
 369 0092 007C     		ldrb	r0, [r0, #16]	@ zero_extendqisi2
 370              	.LVL30:
 450:/home/smartth/STM32Cube/Repository/STM32Cube_FW_F1_V1.8.4//Middlewares/ST/STM32_USB_Device_Library/Core/Src/usbd_ctlreq.c ****           }
 371              		.loc 1 450 20 view .LVU102
 372 0094 9847     		blx	r3
 373              	.LVL31:
 569:/home/smartth/STM32Cube/Repository/STM32Cube_FW_F1_V1.8.4//Middlewares/ST/STM32_USB_Device_Library/Core/Src/usbd_ctlreq.c ****   {
 374              		.loc 1 569 3 is_stmt 1 view .LVU103
 375 0096 CDE7     		b	.L19
 376              	.LVL32:
 377              	.L29:
 454:/home/smartth/STM32Cube/Repository/STM32Cube_FW_F1_V1.8.4//Middlewares/ST/STM32_USB_Device_Library/Core/Src/usbd_ctlreq.c ****             err++;
 378              		.loc 1 454 13 view .LVU104
 379 0098 2146     		mov	r1, r4
 380 009a FFF7FEFF 		bl	USBD_CtlError
 381              	.LVL33:
ARM GAS  /tmp/ccVKyOYc.s 			page 25


 455:/home/smartth/STM32Cube/Repository/STM32Cube_FW_F1_V1.8.4//Middlewares/ST/STM32_USB_Device_Library/Core/Src/usbd_ctlreq.c ****           }
 382              		.loc 1 455 13 view .LVU105
 569:/home/smartth/STM32Cube/Repository/STM32Cube_FW_F1_V1.8.4//Middlewares/ST/STM32_USB_Device_Library/Core/Src/usbd_ctlreq.c ****   {
 383              		.loc 1 569 3 view .LVU106
 384 009e D4E7     		b	.L11
 385              	.LVL34:
 386              	.L27:
 460:/home/smartth/STM32Cube/Repository/STM32Cube_FW_F1_V1.8.4//Middlewares/ST/STM32_USB_Device_Library/Core/Src/usbd_ctlreq.c ****           {
 387              		.loc 1 460 11 view .LVU107
 460:/home/smartth/STM32Cube/Repository/STM32Cube_FW_F1_V1.8.4//Middlewares/ST/STM32_USB_Device_Library/Core/Src/usbd_ctlreq.c ****           {
 388              		.loc 1 460 19 is_stmt 0 view .LVU108
 389 00a0 D0F8B032 		ldr	r3, [r0, #688]
 460:/home/smartth/STM32Cube/Repository/STM32Cube_FW_F1_V1.8.4//Middlewares/ST/STM32_USB_Device_Library/Core/Src/usbd_ctlreq.c ****           {
 390              		.loc 1 460 26 view .LVU109
 391 00a4 9B68     		ldr	r3, [r3, #8]
 460:/home/smartth/STM32Cube/Repository/STM32Cube_FW_F1_V1.8.4//Middlewares/ST/STM32_USB_Device_Library/Core/Src/usbd_ctlreq.c ****           {
 392              		.loc 1 460 14 view .LVU110
 393 00a6 23B1     		cbz	r3, .L31
 462:/home/smartth/STM32Cube/Repository/STM32Cube_FW_F1_V1.8.4//Middlewares/ST/STM32_USB_Device_Library/Core/Src/usbd_ctlreq.c ****           }
 394              		.loc 1 462 13 is_stmt 1 view .LVU111
 462:/home/smartth/STM32Cube/Repository/STM32Cube_FW_F1_V1.8.4//Middlewares/ST/STM32_USB_Device_Library/Core/Src/usbd_ctlreq.c ****           }
 395              		.loc 1 462 20 is_stmt 0 view .LVU112
 396 00a8 0DF10601 		add	r1, sp, #6
 397 00ac 007C     		ldrb	r0, [r0, #16]	@ zero_extendqisi2
 398              	.LVL35:
 462:/home/smartth/STM32Cube/Repository/STM32Cube_FW_F1_V1.8.4//Middlewares/ST/STM32_USB_Device_Library/Core/Src/usbd_ctlreq.c ****           }
 399              		.loc 1 462 20 view .LVU113
 400 00ae 9847     		blx	r3
 401              	.LVL36:
 569:/home/smartth/STM32Cube/Repository/STM32Cube_FW_F1_V1.8.4//Middlewares/ST/STM32_USB_Device_Library/Core/Src/usbd_ctlreq.c ****   {
 402              		.loc 1 569 3 is_stmt 1 view .LVU114
 403 00b0 C0E7     		b	.L19
 404              	.LVL37:
 405              	.L31:
 466:/home/smartth/STM32Cube/Repository/STM32Cube_FW_F1_V1.8.4//Middlewares/ST/STM32_USB_Device_Library/Core/Src/usbd_ctlreq.c ****             err++;
 406              		.loc 1 466 13 view .LVU115
 407 00b2 2146     		mov	r1, r4
 408 00b4 FFF7FEFF 		bl	USBD_CtlError
 409              	.LVL38:
 467:/home/smartth/STM32Cube/Repository/STM32Cube_FW_F1_V1.8.4//Middlewares/ST/STM32_USB_Device_Library/Core/Src/usbd_ctlreq.c ****           }
 410              		.loc 1 467 13 view .LVU116
 569:/home/smartth/STM32Cube/Repository/STM32Cube_FW_F1_V1.8.4//Middlewares/ST/STM32_USB_Device_Library/Core/Src/usbd_ctlreq.c ****   {
 411              		.loc 1 569 3 view .LVU117
 412 00b8 C7E7     		b	.L11
 413              	.LVL39:
 414              	.L26:
 472:/home/smartth/STM32Cube/Repository/STM32Cube_FW_F1_V1.8.4//Middlewares/ST/STM32_USB_Device_Library/Core/Src/usbd_ctlreq.c ****           {
 415              		.loc 1 472 11 view .LVU118
 472:/home/smartth/STM32Cube/Repository/STM32Cube_FW_F1_V1.8.4//Middlewares/ST/STM32_USB_Device_Library/Core/Src/usbd_ctlreq.c ****           {
 416              		.loc 1 472 19 is_stmt 0 view .LVU119
 417 00ba D0F8B032 		ldr	r3, [r0, #688]
 472:/home/smartth/STM32Cube/Repository/STM32Cube_FW_F1_V1.8.4//Middlewares/ST/STM32_USB_Device_Library/Core/Src/usbd_ctlreq.c ****           {
 418              		.loc 1 472 26 view .LVU120
 419 00be DB68     		ldr	r3, [r3, #12]
 472:/home/smartth/STM32Cube/Repository/STM32Cube_FW_F1_V1.8.4//Middlewares/ST/STM32_USB_Device_Library/Core/Src/usbd_ctlreq.c ****           {
 420              		.loc 1 472 14 view .LVU121
 421 00c0 23B1     		cbz	r3, .L32
ARM GAS  /tmp/ccVKyOYc.s 			page 26


 474:/home/smartth/STM32Cube/Repository/STM32Cube_FW_F1_V1.8.4//Middlewares/ST/STM32_USB_Device_Library/Core/Src/usbd_ctlreq.c ****           }
 422              		.loc 1 474 13 is_stmt 1 view .LVU122
 474:/home/smartth/STM32Cube/Repository/STM32Cube_FW_F1_V1.8.4//Middlewares/ST/STM32_USB_Device_Library/Core/Src/usbd_ctlreq.c ****           }
 423              		.loc 1 474 20 is_stmt 0 view .LVU123
 424 00c2 0DF10601 		add	r1, sp, #6
 425 00c6 007C     		ldrb	r0, [r0, #16]	@ zero_extendqisi2
 426              	.LVL40:
 474:/home/smartth/STM32Cube/Repository/STM32Cube_FW_F1_V1.8.4//Middlewares/ST/STM32_USB_Device_Library/Core/Src/usbd_ctlreq.c ****           }
 427              		.loc 1 474 20 view .LVU124
 428 00c8 9847     		blx	r3
 429              	.LVL41:
 569:/home/smartth/STM32Cube/Repository/STM32Cube_FW_F1_V1.8.4//Middlewares/ST/STM32_USB_Device_Library/Core/Src/usbd_ctlreq.c ****   {
 430              		.loc 1 569 3 is_stmt 1 view .LVU125
 431 00ca B3E7     		b	.L19
 432              	.LVL42:
 433              	.L32:
 478:/home/smartth/STM32Cube/Repository/STM32Cube_FW_F1_V1.8.4//Middlewares/ST/STM32_USB_Device_Library/Core/Src/usbd_ctlreq.c ****             err++;
 434              		.loc 1 478 13 view .LVU126
 435 00cc 2146     		mov	r1, r4
 436 00ce FFF7FEFF 		bl	USBD_CtlError
 437              	.LVL43:
 479:/home/smartth/STM32Cube/Repository/STM32Cube_FW_F1_V1.8.4//Middlewares/ST/STM32_USB_Device_Library/Core/Src/usbd_ctlreq.c ****           }
 438              		.loc 1 479 13 view .LVU127
 569:/home/smartth/STM32Cube/Repository/STM32Cube_FW_F1_V1.8.4//Middlewares/ST/STM32_USB_Device_Library/Core/Src/usbd_ctlreq.c ****   {
 439              		.loc 1 569 3 view .LVU128
 440 00d2 BAE7     		b	.L11
 441              	.LVL44:
 442              	.L25:
 484:/home/smartth/STM32Cube/Repository/STM32Cube_FW_F1_V1.8.4//Middlewares/ST/STM32_USB_Device_Library/Core/Src/usbd_ctlreq.c ****           {
 443              		.loc 1 484 11 view .LVU129
 484:/home/smartth/STM32Cube/Repository/STM32Cube_FW_F1_V1.8.4//Middlewares/ST/STM32_USB_Device_Library/Core/Src/usbd_ctlreq.c ****           {
 444              		.loc 1 484 19 is_stmt 0 view .LVU130
 445 00d4 D0F8B032 		ldr	r3, [r0, #688]
 484:/home/smartth/STM32Cube/Repository/STM32Cube_FW_F1_V1.8.4//Middlewares/ST/STM32_USB_Device_Library/Core/Src/usbd_ctlreq.c ****           {
 446              		.loc 1 484 26 view .LVU131
 447 00d8 1B69     		ldr	r3, [r3, #16]
 484:/home/smartth/STM32Cube/Repository/STM32Cube_FW_F1_V1.8.4//Middlewares/ST/STM32_USB_Device_Library/Core/Src/usbd_ctlreq.c ****           {
 448              		.loc 1 484 14 view .LVU132
 449 00da 23B1     		cbz	r3, .L33
 486:/home/smartth/STM32Cube/Repository/STM32Cube_FW_F1_V1.8.4//Middlewares/ST/STM32_USB_Device_Library/Core/Src/usbd_ctlreq.c ****           }
 450              		.loc 1 486 13 is_stmt 1 view .LVU133
 486:/home/smartth/STM32Cube/Repository/STM32Cube_FW_F1_V1.8.4//Middlewares/ST/STM32_USB_Device_Library/Core/Src/usbd_ctlreq.c ****           }
 451              		.loc 1 486 20 is_stmt 0 view .LVU134
 452 00dc 0DF10601 		add	r1, sp, #6
 453 00e0 007C     		ldrb	r0, [r0, #16]	@ zero_extendqisi2
 454              	.LVL45:
 486:/home/smartth/STM32Cube/Repository/STM32Cube_FW_F1_V1.8.4//Middlewares/ST/STM32_USB_Device_Library/Core/Src/usbd_ctlreq.c ****           }
 455              		.loc 1 486 20 view .LVU135
 456 00e2 9847     		blx	r3
 457              	.LVL46:
 569:/home/smartth/STM32Cube/Repository/STM32Cube_FW_F1_V1.8.4//Middlewares/ST/STM32_USB_Device_Library/Core/Src/usbd_ctlreq.c ****   {
 458              		.loc 1 569 3 is_stmt 1 view .LVU136
 459 00e4 A6E7     		b	.L19
 460              	.LVL47:
 461              	.L33:
 490:/home/smartth/STM32Cube/Repository/STM32Cube_FW_F1_V1.8.4//Middlewares/ST/STM32_USB_Device_Library/Core/Src/usbd_ctlreq.c ****             err++;
 462              		.loc 1 490 13 view .LVU137
ARM GAS  /tmp/ccVKyOYc.s 			page 27


 463 00e6 2146     		mov	r1, r4
 464 00e8 FFF7FEFF 		bl	USBD_CtlError
 465              	.LVL48:
 491:/home/smartth/STM32Cube/Repository/STM32Cube_FW_F1_V1.8.4//Middlewares/ST/STM32_USB_Device_Library/Core/Src/usbd_ctlreq.c ****           }
 466              		.loc 1 491 13 view .LVU138
 569:/home/smartth/STM32Cube/Repository/STM32Cube_FW_F1_V1.8.4//Middlewares/ST/STM32_USB_Device_Library/Core/Src/usbd_ctlreq.c ****   {
 467              		.loc 1 569 3 view .LVU139
 468 00ec ADE7     		b	.L11
 469              	.LVL49:
 470              	.L24:
 496:/home/smartth/STM32Cube/Repository/STM32Cube_FW_F1_V1.8.4//Middlewares/ST/STM32_USB_Device_Library/Core/Src/usbd_ctlreq.c ****           {
 471              		.loc 1 496 11 view .LVU140
 496:/home/smartth/STM32Cube/Repository/STM32Cube_FW_F1_V1.8.4//Middlewares/ST/STM32_USB_Device_Library/Core/Src/usbd_ctlreq.c ****           {
 472              		.loc 1 496 19 is_stmt 0 view .LVU141
 473 00ee D0F8B032 		ldr	r3, [r0, #688]
 496:/home/smartth/STM32Cube/Repository/STM32Cube_FW_F1_V1.8.4//Middlewares/ST/STM32_USB_Device_Library/Core/Src/usbd_ctlreq.c ****           {
 474              		.loc 1 496 26 view .LVU142
 475 00f2 5B69     		ldr	r3, [r3, #20]
 496:/home/smartth/STM32Cube/Repository/STM32Cube_FW_F1_V1.8.4//Middlewares/ST/STM32_USB_Device_Library/Core/Src/usbd_ctlreq.c ****           {
 476              		.loc 1 496 14 view .LVU143
 477 00f4 23B1     		cbz	r3, .L34
 498:/home/smartth/STM32Cube/Repository/STM32Cube_FW_F1_V1.8.4//Middlewares/ST/STM32_USB_Device_Library/Core/Src/usbd_ctlreq.c ****           }
 478              		.loc 1 498 13 is_stmt 1 view .LVU144
 498:/home/smartth/STM32Cube/Repository/STM32Cube_FW_F1_V1.8.4//Middlewares/ST/STM32_USB_Device_Library/Core/Src/usbd_ctlreq.c ****           }
 479              		.loc 1 498 20 is_stmt 0 view .LVU145
 480 00f6 0DF10601 		add	r1, sp, #6
 481 00fa 007C     		ldrb	r0, [r0, #16]	@ zero_extendqisi2
 482              	.LVL50:
 498:/home/smartth/STM32Cube/Repository/STM32Cube_FW_F1_V1.8.4//Middlewares/ST/STM32_USB_Device_Library/Core/Src/usbd_ctlreq.c ****           }
 483              		.loc 1 498 20 view .LVU146
 484 00fc 9847     		blx	r3
 485              	.LVL51:
 569:/home/smartth/STM32Cube/Repository/STM32Cube_FW_F1_V1.8.4//Middlewares/ST/STM32_USB_Device_Library/Core/Src/usbd_ctlreq.c ****   {
 486              		.loc 1 569 3 is_stmt 1 view .LVU147
 487 00fe 99E7     		b	.L19
 488              	.LVL52:
 489              	.L34:
 502:/home/smartth/STM32Cube/Repository/STM32Cube_FW_F1_V1.8.4//Middlewares/ST/STM32_USB_Device_Library/Core/Src/usbd_ctlreq.c ****             err++;
 490              		.loc 1 502 13 view .LVU148
 491 0100 2146     		mov	r1, r4
 492 0102 FFF7FEFF 		bl	USBD_CtlError
 493              	.LVL53:
 503:/home/smartth/STM32Cube/Repository/STM32Cube_FW_F1_V1.8.4//Middlewares/ST/STM32_USB_Device_Library/Core/Src/usbd_ctlreq.c ****           }
 494              		.loc 1 503 13 view .LVU149
 569:/home/smartth/STM32Cube/Repository/STM32Cube_FW_F1_V1.8.4//Middlewares/ST/STM32_USB_Device_Library/Core/Src/usbd_ctlreq.c ****   {
 495              		.loc 1 569 3 view .LVU150
 496 0106 A0E7     		b	.L11
 497              	.LVL54:
 498              	.L22:
 508:/home/smartth/STM32Cube/Repository/STM32Cube_FW_F1_V1.8.4//Middlewares/ST/STM32_USB_Device_Library/Core/Src/usbd_ctlreq.c ****           {
 499              		.loc 1 508 11 view .LVU151
 508:/home/smartth/STM32Cube/Repository/STM32Cube_FW_F1_V1.8.4//Middlewares/ST/STM32_USB_Device_Library/Core/Src/usbd_ctlreq.c ****           {
 500              		.loc 1 508 19 is_stmt 0 view .LVU152
 501 0108 D0F8B032 		ldr	r3, [r0, #688]
 508:/home/smartth/STM32Cube/Repository/STM32Cube_FW_F1_V1.8.4//Middlewares/ST/STM32_USB_Device_Library/Core/Src/usbd_ctlreq.c ****           {
 502              		.loc 1 508 26 view .LVU153
 503 010c 9B69     		ldr	r3, [r3, #24]
ARM GAS  /tmp/ccVKyOYc.s 			page 28


 508:/home/smartth/STM32Cube/Repository/STM32Cube_FW_F1_V1.8.4//Middlewares/ST/STM32_USB_Device_Library/Core/Src/usbd_ctlreq.c ****           {
 504              		.loc 1 508 14 view .LVU154
 505 010e 23B1     		cbz	r3, .L35
 510:/home/smartth/STM32Cube/Repository/STM32Cube_FW_F1_V1.8.4//Middlewares/ST/STM32_USB_Device_Library/Core/Src/usbd_ctlreq.c ****           }
 506              		.loc 1 510 13 is_stmt 1 view .LVU155
 510:/home/smartth/STM32Cube/Repository/STM32Cube_FW_F1_V1.8.4//Middlewares/ST/STM32_USB_Device_Library/Core/Src/usbd_ctlreq.c ****           }
 507              		.loc 1 510 20 is_stmt 0 view .LVU156
 508 0110 0DF10601 		add	r1, sp, #6
 509 0114 007C     		ldrb	r0, [r0, #16]	@ zero_extendqisi2
 510              	.LVL55:
 510:/home/smartth/STM32Cube/Repository/STM32Cube_FW_F1_V1.8.4//Middlewares/ST/STM32_USB_Device_Library/Core/Src/usbd_ctlreq.c ****           }
 511              		.loc 1 510 20 view .LVU157
 512 0116 9847     		blx	r3
 513              	.LVL56:
 569:/home/smartth/STM32Cube/Repository/STM32Cube_FW_F1_V1.8.4//Middlewares/ST/STM32_USB_Device_Library/Core/Src/usbd_ctlreq.c ****   {
 514              		.loc 1 569 3 is_stmt 1 view .LVU158
 515 0118 8CE7     		b	.L19
 516              	.LVL57:
 517              	.L35:
 514:/home/smartth/STM32Cube/Repository/STM32Cube_FW_F1_V1.8.4//Middlewares/ST/STM32_USB_Device_Library/Core/Src/usbd_ctlreq.c ****             err++;
 518              		.loc 1 514 13 view .LVU159
 519 011a 2146     		mov	r1, r4
 520 011c FFF7FEFF 		bl	USBD_CtlError
 521              	.LVL58:
 515:/home/smartth/STM32Cube/Repository/STM32Cube_FW_F1_V1.8.4//Middlewares/ST/STM32_USB_Device_Library/Core/Src/usbd_ctlreq.c ****           }
 522              		.loc 1 515 13 view .LVU160
 569:/home/smartth/STM32Cube/Repository/STM32Cube_FW_F1_V1.8.4//Middlewares/ST/STM32_USB_Device_Library/Core/Src/usbd_ctlreq.c ****   {
 523              		.loc 1 569 3 view .LVU161
 524 0120 93E7     		b	.L11
 525              	.LVL59:
 526              	.L21:
 532:/home/smartth/STM32Cube/Repository/STM32Cube_FW_F1_V1.8.4//Middlewares/ST/STM32_USB_Device_Library/Core/Src/usbd_ctlreq.c ****           err++;
 527              		.loc 1 532 11 view .LVU162
 528 0122 2146     		mov	r1, r4
 529 0124 FFF7FEFF 		bl	USBD_CtlError
 530              	.LVL60:
 533:/home/smartth/STM32Cube/Repository/STM32Cube_FW_F1_V1.8.4//Middlewares/ST/STM32_USB_Device_Library/Core/Src/usbd_ctlreq.c **** #endif
 531              		.loc 1 533 11 view .LVU163
 569:/home/smartth/STM32Cube/Repository/STM32Cube_FW_F1_V1.8.4//Middlewares/ST/STM32_USB_Device_Library/Core/Src/usbd_ctlreq.c ****   {
 532              		.loc 1 569 3 view .LVU164
 533 0128 8FE7     		b	.L11
 534              	.LVL61:
 535              	.L15:
 539:/home/smartth/STM32Cube/Repository/STM32Cube_FW_F1_V1.8.4//Middlewares/ST/STM32_USB_Device_Library/Core/Src/usbd_ctlreq.c ****       {
 536              		.loc 1 539 7 view .LVU165
 539:/home/smartth/STM32Cube/Repository/STM32Cube_FW_F1_V1.8.4//Middlewares/ST/STM32_USB_Device_Library/Core/Src/usbd_ctlreq.c ****       {
 537              		.loc 1 539 15 is_stmt 0 view .LVU166
 538 012a 037C     		ldrb	r3, [r0, #16]	@ zero_extendqisi2
 539:/home/smartth/STM32Cube/Repository/STM32Cube_FW_F1_V1.8.4//Middlewares/ST/STM32_USB_Device_Library/Core/Src/usbd_ctlreq.c ****       {
 539              		.loc 1 539 10 view .LVU167
 540 012c 33B9     		cbnz	r3, .L36
 541:/home/smartth/STM32Cube/Repository/STM32Cube_FW_F1_V1.8.4//Middlewares/ST/STM32_USB_Device_Library/Core/Src/usbd_ctlreq.c ****       }
 541              		.loc 1 541 9 is_stmt 1 view .LVU168
 541:/home/smartth/STM32Cube/Repository/STM32Cube_FW_F1_V1.8.4//Middlewares/ST/STM32_USB_Device_Library/Core/Src/usbd_ctlreq.c ****       }
 542              		.loc 1 541 20 is_stmt 0 view .LVU169
 543 012e D0F8B432 		ldr	r3, [r0, #692]
 541:/home/smartth/STM32Cube/Repository/STM32Cube_FW_F1_V1.8.4//Middlewares/ST/STM32_USB_Device_Library/Core/Src/usbd_ctlreq.c ****       }
ARM GAS  /tmp/ccVKyOYc.s 			page 29


 544              		.loc 1 541 28 view .LVU170
 545 0132 5B6B     		ldr	r3, [r3, #52]
 541:/home/smartth/STM32Cube/Repository/STM32Cube_FW_F1_V1.8.4//Middlewares/ST/STM32_USB_Device_Library/Core/Src/usbd_ctlreq.c ****       }
 546              		.loc 1 541 16 view .LVU171
 547 0134 0DF10600 		add	r0, sp, #6
 548              	.LVL62:
 541:/home/smartth/STM32Cube/Repository/STM32Cube_FW_F1_V1.8.4//Middlewares/ST/STM32_USB_Device_Library/Core/Src/usbd_ctlreq.c ****       }
 549              		.loc 1 541 16 view .LVU172
 550 0138 9847     		blx	r3
 551              	.LVL63:
 569:/home/smartth/STM32Cube/Repository/STM32Cube_FW_F1_V1.8.4//Middlewares/ST/STM32_USB_Device_Library/Core/Src/usbd_ctlreq.c ****   {
 552              		.loc 1 569 3 is_stmt 1 view .LVU173
 553 013a 7BE7     		b	.L19
 554              	.LVL64:
 555              	.L36:
 545:/home/smartth/STM32Cube/Repository/STM32Cube_FW_F1_V1.8.4//Middlewares/ST/STM32_USB_Device_Library/Core/Src/usbd_ctlreq.c ****         err++;
 556              		.loc 1 545 9 view .LVU174
 557 013c 2146     		mov	r1, r4
 558 013e FFF7FEFF 		bl	USBD_CtlError
 559              	.LVL65:
 546:/home/smartth/STM32Cube/Repository/STM32Cube_FW_F1_V1.8.4//Middlewares/ST/STM32_USB_Device_Library/Core/Src/usbd_ctlreq.c ****       }
 560              		.loc 1 546 9 view .LVU175
 569:/home/smartth/STM32Cube/Repository/STM32Cube_FW_F1_V1.8.4//Middlewares/ST/STM32_USB_Device_Library/Core/Src/usbd_ctlreq.c ****   {
 561              		.loc 1 569 3 view .LVU176
 562 0142 82E7     		b	.L11
 563              	.LVL66:
 564              	.L13:
 551:/home/smartth/STM32Cube/Repository/STM32Cube_FW_F1_V1.8.4//Middlewares/ST/STM32_USB_Device_Library/Core/Src/usbd_ctlreq.c ****       {
 565              		.loc 1 551 7 view .LVU177
 551:/home/smartth/STM32Cube/Repository/STM32Cube_FW_F1_V1.8.4//Middlewares/ST/STM32_USB_Device_Library/Core/Src/usbd_ctlreq.c ****       {
 566              		.loc 1 551 15 is_stmt 0 view .LVU178
 567 0144 037C     		ldrb	r3, [r0, #16]	@ zero_extendqisi2
 551:/home/smartth/STM32Cube/Repository/STM32Cube_FW_F1_V1.8.4//Middlewares/ST/STM32_USB_Device_Library/Core/Src/usbd_ctlreq.c ****       {
 568              		.loc 1 551 10 view .LVU179
 569 0146 43B9     		cbnz	r3, .L37
 553:/home/smartth/STM32Cube/Repository/STM32Cube_FW_F1_V1.8.4//Middlewares/ST/STM32_USB_Device_Library/Core/Src/usbd_ctlreq.c ****         pbuf[1] = USB_DESC_TYPE_OTHER_SPEED_CONFIGURATION;
 570              		.loc 1 553 9 is_stmt 1 view .LVU180
 553:/home/smartth/STM32Cube/Repository/STM32Cube_FW_F1_V1.8.4//Middlewares/ST/STM32_USB_Device_Library/Core/Src/usbd_ctlreq.c ****         pbuf[1] = USB_DESC_TYPE_OTHER_SPEED_CONFIGURATION;
 571              		.loc 1 553 20 is_stmt 0 view .LVU181
 572 0148 D0F8B432 		ldr	r3, [r0, #692]
 553:/home/smartth/STM32Cube/Repository/STM32Cube_FW_F1_V1.8.4//Middlewares/ST/STM32_USB_Device_Library/Core/Src/usbd_ctlreq.c ****         pbuf[1] = USB_DESC_TYPE_OTHER_SPEED_CONFIGURATION;
 573              		.loc 1 553 28 view .LVU182
 574 014c 1B6B     		ldr	r3, [r3, #48]
 553:/home/smartth/STM32Cube/Repository/STM32Cube_FW_F1_V1.8.4//Middlewares/ST/STM32_USB_Device_Library/Core/Src/usbd_ctlreq.c ****         pbuf[1] = USB_DESC_TYPE_OTHER_SPEED_CONFIGURATION;
 575              		.loc 1 553 16 view .LVU183
 576 014e 0DF10600 		add	r0, sp, #6
 577              	.LVL67:
 553:/home/smartth/STM32Cube/Repository/STM32Cube_FW_F1_V1.8.4//Middlewares/ST/STM32_USB_Device_Library/Core/Src/usbd_ctlreq.c ****         pbuf[1] = USB_DESC_TYPE_OTHER_SPEED_CONFIGURATION;
 578              		.loc 1 553 16 view .LVU184
 579 0152 9847     		blx	r3
 580              	.LVL68:
 554:/home/smartth/STM32Cube/Repository/STM32Cube_FW_F1_V1.8.4//Middlewares/ST/STM32_USB_Device_Library/Core/Src/usbd_ctlreq.c ****       }
 581              		.loc 1 554 9 is_stmt 1 view .LVU185
 554:/home/smartth/STM32Cube/Repository/STM32Cube_FW_F1_V1.8.4//Middlewares/ST/STM32_USB_Device_Library/Core/Src/usbd_ctlreq.c ****       }
 582              		.loc 1 554 17 is_stmt 0 view .LVU186
 583 0154 0723     		movs	r3, #7
 584 0156 4370     		strb	r3, [r0, #1]
ARM GAS  /tmp/ccVKyOYc.s 			page 30


 569:/home/smartth/STM32Cube/Repository/STM32Cube_FW_F1_V1.8.4//Middlewares/ST/STM32_USB_Device_Library/Core/Src/usbd_ctlreq.c ****   {
 585              		.loc 1 569 3 is_stmt 1 view .LVU187
 586 0158 6CE7     		b	.L19
 587              	.LVL69:
 588              	.L37:
 558:/home/smartth/STM32Cube/Repository/STM32Cube_FW_F1_V1.8.4//Middlewares/ST/STM32_USB_Device_Library/Core/Src/usbd_ctlreq.c ****         err++;
 589              		.loc 1 558 9 view .LVU188
 590 015a 2146     		mov	r1, r4
 591 015c FFF7FEFF 		bl	USBD_CtlError
 592              	.LVL70:
 559:/home/smartth/STM32Cube/Repository/STM32Cube_FW_F1_V1.8.4//Middlewares/ST/STM32_USB_Device_Library/Core/Src/usbd_ctlreq.c ****       }
 593              		.loc 1 559 9 view .LVU189
 569:/home/smartth/STM32Cube/Repository/STM32Cube_FW_F1_V1.8.4//Middlewares/ST/STM32_USB_Device_Library/Core/Src/usbd_ctlreq.c ****   {
 594              		.loc 1 569 3 view .LVU190
 595 0160 73E7     		b	.L11
 596              	.LVL71:
 597              	.L12:
 564:/home/smartth/STM32Cube/Repository/STM32Cube_FW_F1_V1.8.4//Middlewares/ST/STM32_USB_Device_Library/Core/Src/usbd_ctlreq.c ****       err++;
 598              		.loc 1 564 7 view .LVU191
 599 0162 2146     		mov	r1, r4
 600 0164 FFF7FEFF 		bl	USBD_CtlError
 601              	.LVL72:
 565:/home/smartth/STM32Cube/Repository/STM32Cube_FW_F1_V1.8.4//Middlewares/ST/STM32_USB_Device_Library/Core/Src/usbd_ctlreq.c ****       break;
 602              		.loc 1 565 7 view .LVU192
 566:/home/smartth/STM32Cube/Repository/STM32Cube_FW_F1_V1.8.4//Middlewares/ST/STM32_USB_Device_Library/Core/Src/usbd_ctlreq.c ****   }
 603              		.loc 1 566 7 view .LVU193
 569:/home/smartth/STM32Cube/Repository/STM32Cube_FW_F1_V1.8.4//Middlewares/ST/STM32_USB_Device_Library/Core/Src/usbd_ctlreq.c ****   {
 604              		.loc 1 569 3 view .LVU194
 571:/home/smartth/STM32Cube/Repository/STM32Cube_FW_F1_V1.8.4//Middlewares/ST/STM32_USB_Device_Library/Core/Src/usbd_ctlreq.c ****   }
 605              		.loc 1 571 5 view .LVU195
 606 0168 6FE7     		b	.L11
 607              	.LVL73:
 608              	.L42:
 577:/home/smartth/STM32Cube/Repository/STM32Cube_FW_F1_V1.8.4//Middlewares/ST/STM32_USB_Device_Library/Core/Src/usbd_ctlreq.c ****       (void)USBD_CtlSendData(pdev, pbuf, len);
 609              		.loc 1 577 7 view .LVU196
 577:/home/smartth/STM32Cube/Repository/STM32Cube_FW_F1_V1.8.4//Middlewares/ST/STM32_USB_Device_Library/Core/Src/usbd_ctlreq.c ****       (void)USBD_CtlSendData(pdev, pbuf, len);
 610              		.loc 1 577 13 is_stmt 0 view .LVU197
 611 016a 9A42     		cmp	r2, r3
 612 016c 28BF     		it	cs
 613 016e 1A46     		movcs	r2, r3
 577:/home/smartth/STM32Cube/Repository/STM32Cube_FW_F1_V1.8.4//Middlewares/ST/STM32_USB_Device_Library/Core/Src/usbd_ctlreq.c ****       (void)USBD_CtlSendData(pdev, pbuf, len);
 614              		.loc 1 577 11 view .LVU198
 615 0170 ADF80620 		strh	r2, [sp, #6]	@ movhi
 578:/home/smartth/STM32Cube/Repository/STM32Cube_FW_F1_V1.8.4//Middlewares/ST/STM32_USB_Device_Library/Core/Src/usbd_ctlreq.c ****     }
 616              		.loc 1 578 7 is_stmt 1 view .LVU199
 578:/home/smartth/STM32Cube/Repository/STM32Cube_FW_F1_V1.8.4//Middlewares/ST/STM32_USB_Device_Library/Core/Src/usbd_ctlreq.c ****     }
 617              		.loc 1 578 13 is_stmt 0 view .LVU200
 618 0174 0146     		mov	r1, r0
 619 0176 2846     		mov	r0, r5
 620              	.LVL74:
 578:/home/smartth/STM32Cube/Repository/STM32Cube_FW_F1_V1.8.4//Middlewares/ST/STM32_USB_Device_Library/Core/Src/usbd_ctlreq.c ****     }
 621              		.loc 1 578 13 view .LVU201
 622 0178 FFF7FEFF 		bl	USBD_CtlSendData
 623              	.LVL75:
 578:/home/smartth/STM32Cube/Repository/STM32Cube_FW_F1_V1.8.4//Middlewares/ST/STM32_USB_Device_Library/Core/Src/usbd_ctlreq.c ****     }
 624              		.loc 1 578 13 view .LVU202
 625 017c 61E7     		b	.L39
ARM GAS  /tmp/ccVKyOYc.s 			page 31


 626              	.L43:
 583:/home/smartth/STM32Cube/Repository/STM32Cube_FW_F1_V1.8.4//Middlewares/ST/STM32_USB_Device_Library/Core/Src/usbd_ctlreq.c ****     }
 627              		.loc 1 583 7 is_stmt 1 view .LVU203
 583:/home/smartth/STM32Cube/Repository/STM32Cube_FW_F1_V1.8.4//Middlewares/ST/STM32_USB_Device_Library/Core/Src/usbd_ctlreq.c ****     }
 628              		.loc 1 583 13 is_stmt 0 view .LVU204
 629 017e 2846     		mov	r0, r5
 630 0180 FFF7FEFF 		bl	USBD_CtlSendStatus
 631              	.LVL76:
 632 0184 61E7     		b	.L11
 633              		.cfi_endproc
 634              	.LFE200:
 636              		.section	.text.USBD_SetAddress,"ax",%progbits
 637              		.align	1
 638              		.syntax unified
 639              		.thumb
 640              		.thumb_func
 641              		.fpu softvfp
 643              	USBD_SetAddress:
 644              	.LVL77:
 645              	.LFB201:
 597:/home/smartth/STM32Cube/Repository/STM32Cube_FW_F1_V1.8.4//Middlewares/ST/STM32_USB_Device_Library/Core/Src/usbd_ctlreq.c ****   uint8_t  dev_addr;
 646              		.loc 1 597 1 is_stmt 1 view -0
 647              		.cfi_startproc
 648              		@ args = 0, pretend = 0, frame = 0
 649              		@ frame_needed = 0, uses_anonymous_args = 0
 597:/home/smartth/STM32Cube/Repository/STM32Cube_FW_F1_V1.8.4//Middlewares/ST/STM32_USB_Device_Library/Core/Src/usbd_ctlreq.c ****   uint8_t  dev_addr;
 650              		.loc 1 597 1 is_stmt 0 view .LVU206
 651 0000 38B5     		push	{r3, r4, r5, lr}
 652              	.LCFI6:
 653              		.cfi_def_cfa_offset 16
 654              		.cfi_offset 3, -16
 655              		.cfi_offset 4, -12
 656              		.cfi_offset 5, -8
 657              		.cfi_offset 14, -4
 658 0002 0446     		mov	r4, r0
 598:/home/smartth/STM32Cube/Repository/STM32Cube_FW_F1_V1.8.4//Middlewares/ST/STM32_USB_Device_Library/Core/Src/usbd_ctlreq.c **** 
 659              		.loc 1 598 3 is_stmt 1 view .LVU207
 600:/home/smartth/STM32Cube/Repository/STM32Cube_FW_F1_V1.8.4//Middlewares/ST/STM32_USB_Device_Library/Core/Src/usbd_ctlreq.c ****   {
 660              		.loc 1 600 3 view .LVU208
 600:/home/smartth/STM32Cube/Repository/STM32Cube_FW_F1_V1.8.4//Middlewares/ST/STM32_USB_Device_Library/Core/Src/usbd_ctlreq.c ****   {
 661              		.loc 1 600 11 is_stmt 0 view .LVU209
 662 0004 8B88     		ldrh	r3, [r1, #4]
 600:/home/smartth/STM32Cube/Repository/STM32Cube_FW_F1_V1.8.4//Middlewares/ST/STM32_USB_Device_Library/Core/Src/usbd_ctlreq.c ****   {
 663              		.loc 1 600 6 view .LVU210
 664 0006 F3B9     		cbnz	r3, .L45
 600:/home/smartth/STM32Cube/Repository/STM32Cube_FW_F1_V1.8.4//Middlewares/ST/STM32_USB_Device_Library/Core/Src/usbd_ctlreq.c ****   {
 665              		.loc 1 600 34 discriminator 1 view .LVU211
 666 0008 CB88     		ldrh	r3, [r1, #6]
 600:/home/smartth/STM32Cube/Repository/STM32Cube_FW_F1_V1.8.4//Middlewares/ST/STM32_USB_Device_Library/Core/Src/usbd_ctlreq.c ****   {
 667              		.loc 1 600 27 discriminator 1 view .LVU212
 668 000a E3B9     		cbnz	r3, .L45
 600:/home/smartth/STM32Cube/Repository/STM32Cube_FW_F1_V1.8.4//Middlewares/ST/STM32_USB_Device_Library/Core/Src/usbd_ctlreq.c ****   {
 669              		.loc 1 600 58 discriminator 2 view .LVU213
 670 000c 4B88     		ldrh	r3, [r1, #2]
 600:/home/smartth/STM32Cube/Repository/STM32Cube_FW_F1_V1.8.4//Middlewares/ST/STM32_USB_Device_Library/Core/Src/usbd_ctlreq.c ****   {
 671              		.loc 1 600 51 discriminator 2 view .LVU214
 672 000e 7F2B     		cmp	r3, #127
ARM GAS  /tmp/ccVKyOYc.s 			page 32


 673 0010 19D8     		bhi	.L45
 602:/home/smartth/STM32Cube/Repository/STM32Cube_FW_F1_V1.8.4//Middlewares/ST/STM32_USB_Device_Library/Core/Src/usbd_ctlreq.c **** 
 674              		.loc 1 602 5 is_stmt 1 view .LVU215
 602:/home/smartth/STM32Cube/Repository/STM32Cube_FW_F1_V1.8.4//Middlewares/ST/STM32_USB_Device_Library/Core/Src/usbd_ctlreq.c **** 
 675              		.loc 1 602 14 is_stmt 0 view .LVU216
 676 0012 03F07F05 		and	r5, r3, #127
 677              	.LVL78:
 604:/home/smartth/STM32Cube/Repository/STM32Cube_FW_F1_V1.8.4//Middlewares/ST/STM32_USB_Device_Library/Core/Src/usbd_ctlreq.c ****     {
 678              		.loc 1 604 5 is_stmt 1 view .LVU217
 604:/home/smartth/STM32Cube/Repository/STM32Cube_FW_F1_V1.8.4//Middlewares/ST/STM32_USB_Device_Library/Core/Src/usbd_ctlreq.c ****     {
 679              		.loc 1 604 13 is_stmt 0 view .LVU218
 680 0016 90F89C32 		ldrb	r3, [r0, #668]	@ zero_extendqisi2
 604:/home/smartth/STM32Cube/Repository/STM32Cube_FW_F1_V1.8.4//Middlewares/ST/STM32_USB_Device_Library/Core/Src/usbd_ctlreq.c ****     {
 681              		.loc 1 604 8 view .LVU219
 682 001a 032B     		cmp	r3, #3
 683 001c 0CD0     		beq	.L50
 610:/home/smartth/STM32Cube/Repository/STM32Cube_FW_F1_V1.8.4//Middlewares/ST/STM32_USB_Device_Library/Core/Src/usbd_ctlreq.c ****       USBD_LL_SetUSBAddress(pdev, dev_addr);
 684              		.loc 1 610 7 is_stmt 1 view .LVU220
 610:/home/smartth/STM32Cube/Repository/STM32Cube_FW_F1_V1.8.4//Middlewares/ST/STM32_USB_Device_Library/Core/Src/usbd_ctlreq.c ****       USBD_LL_SetUSBAddress(pdev, dev_addr);
 685              		.loc 1 610 25 is_stmt 0 view .LVU221
 686 001e 80F89E52 		strb	r5, [r0, #670]
 611:/home/smartth/STM32Cube/Repository/STM32Cube_FW_F1_V1.8.4//Middlewares/ST/STM32_USB_Device_Library/Core/Src/usbd_ctlreq.c ****       USBD_CtlSendStatus(pdev);
 687              		.loc 1 611 7 is_stmt 1 view .LVU222
 688 0022 2946     		mov	r1, r5
 689              	.LVL79:
 611:/home/smartth/STM32Cube/Repository/STM32Cube_FW_F1_V1.8.4//Middlewares/ST/STM32_USB_Device_Library/Core/Src/usbd_ctlreq.c ****       USBD_CtlSendStatus(pdev);
 690              		.loc 1 611 7 is_stmt 0 view .LVU223
 691 0024 FFF7FEFF 		bl	USBD_LL_SetUSBAddress
 692              	.LVL80:
 612:/home/smartth/STM32Cube/Repository/STM32Cube_FW_F1_V1.8.4//Middlewares/ST/STM32_USB_Device_Library/Core/Src/usbd_ctlreq.c **** 
 693              		.loc 1 612 7 is_stmt 1 view .LVU224
 694 0028 2046     		mov	r0, r4
 695 002a FFF7FEFF 		bl	USBD_CtlSendStatus
 696              	.LVL81:
 614:/home/smartth/STM32Cube/Repository/STM32Cube_FW_F1_V1.8.4//Middlewares/ST/STM32_USB_Device_Library/Core/Src/usbd_ctlreq.c ****       {
 697              		.loc 1 614 7 view .LVU225
 614:/home/smartth/STM32Cube/Repository/STM32Cube_FW_F1_V1.8.4//Middlewares/ST/STM32_USB_Device_Library/Core/Src/usbd_ctlreq.c ****       {
 698              		.loc 1 614 10 is_stmt 0 view .LVU226
 699 002e 35B1     		cbz	r5, .L48
 616:/home/smartth/STM32Cube/Repository/STM32Cube_FW_F1_V1.8.4//Middlewares/ST/STM32_USB_Device_Library/Core/Src/usbd_ctlreq.c ****       }
 700              		.loc 1 616 9 is_stmt 1 view .LVU227
 616:/home/smartth/STM32Cube/Repository/STM32Cube_FW_F1_V1.8.4//Middlewares/ST/STM32_USB_Device_Library/Core/Src/usbd_ctlreq.c ****       }
 701              		.loc 1 616 25 is_stmt 0 view .LVU228
 702 0030 0223     		movs	r3, #2
 703 0032 84F89C32 		strb	r3, [r4, #668]
 704 0036 09E0     		b	.L44
 705              	.LVL82:
 706              	.L50:
 606:/home/smartth/STM32Cube/Repository/STM32Cube_FW_F1_V1.8.4//Middlewares/ST/STM32_USB_Device_Library/Core/Src/usbd_ctlreq.c ****     }
 707              		.loc 1 606 7 is_stmt 1 view .LVU229
 708 0038 FFF7FEFF 		bl	USBD_CtlError
 709              	.LVL83:
 606:/home/smartth/STM32Cube/Repository/STM32Cube_FW_F1_V1.8.4//Middlewares/ST/STM32_USB_Device_Library/Core/Src/usbd_ctlreq.c ****     }
 710              		.loc 1 606 7 is_stmt 0 view .LVU230
 711 003c 06E0     		b	.L44
 712              	.L48:
 620:/home/smartth/STM32Cube/Repository/STM32Cube_FW_F1_V1.8.4//Middlewares/ST/STM32_USB_Device_Library/Core/Src/usbd_ctlreq.c ****       }
ARM GAS  /tmp/ccVKyOYc.s 			page 33


 713              		.loc 1 620 9 is_stmt 1 view .LVU231
 620:/home/smartth/STM32Cube/Repository/STM32Cube_FW_F1_V1.8.4//Middlewares/ST/STM32_USB_Device_Library/Core/Src/usbd_ctlreq.c ****       }
 714              		.loc 1 620 25 is_stmt 0 view .LVU232
 715 003e 0123     		movs	r3, #1
 716 0040 84F89C32 		strb	r3, [r4, #668]
 717 0044 02E0     		b	.L44
 718              	.LVL84:
 719              	.L45:
 626:/home/smartth/STM32Cube/Repository/STM32Cube_FW_F1_V1.8.4//Middlewares/ST/STM32_USB_Device_Library/Core/Src/usbd_ctlreq.c ****   }
 720              		.loc 1 626 5 is_stmt 1 view .LVU233
 721 0046 2046     		mov	r0, r4
 722              	.LVL85:
 626:/home/smartth/STM32Cube/Repository/STM32Cube_FW_F1_V1.8.4//Middlewares/ST/STM32_USB_Device_Library/Core/Src/usbd_ctlreq.c ****   }
 723              		.loc 1 626 5 is_stmt 0 view .LVU234
 724 0048 FFF7FEFF 		bl	USBD_CtlError
 725              	.LVL86:
 726              	.L44:
 628:/home/smartth/STM32Cube/Repository/STM32Cube_FW_F1_V1.8.4//Middlewares/ST/STM32_USB_Device_Library/Core/Src/usbd_ctlreq.c **** 
 727              		.loc 1 628 1 view .LVU235
 728 004c 38BD     		pop	{r3, r4, r5, pc}
 628:/home/smartth/STM32Cube/Repository/STM32Cube_FW_F1_V1.8.4//Middlewares/ST/STM32_USB_Device_Library/Core/Src/usbd_ctlreq.c **** 
 729              		.loc 1 628 1 view .LVU236
 730              		.cfi_endproc
 731              	.LFE201:
 733              		.section	.text.USBD_SetConfig,"ax",%progbits
 734              		.align	1
 735              		.syntax unified
 736              		.thumb
 737              		.thumb_func
 738              		.fpu softvfp
 740              	USBD_SetConfig:
 741              	.LVL87:
 742              	.LFB202:
 638:/home/smartth/STM32Cube/Repository/STM32Cube_FW_F1_V1.8.4//Middlewares/ST/STM32_USB_Device_Library/Core/Src/usbd_ctlreq.c ****   static uint8_t cfgidx;
 743              		.loc 1 638 1 is_stmt 1 view -0
 744              		.cfi_startproc
 745              		@ args = 0, pretend = 0, frame = 0
 746              		@ frame_needed = 0, uses_anonymous_args = 0
 638:/home/smartth/STM32Cube/Repository/STM32Cube_FW_F1_V1.8.4//Middlewares/ST/STM32_USB_Device_Library/Core/Src/usbd_ctlreq.c ****   static uint8_t cfgidx;
 747              		.loc 1 638 1 is_stmt 0 view .LVU238
 748 0000 38B5     		push	{r3, r4, r5, lr}
 749              	.LCFI7:
 750              		.cfi_def_cfa_offset 16
 751              		.cfi_offset 3, -16
 752              		.cfi_offset 4, -12
 753              		.cfi_offset 5, -8
 754              		.cfi_offset 14, -4
 755 0002 0446     		mov	r4, r0
 756 0004 0D46     		mov	r5, r1
 639:/home/smartth/STM32Cube/Repository/STM32Cube_FW_F1_V1.8.4//Middlewares/ST/STM32_USB_Device_Library/Core/Src/usbd_ctlreq.c **** 
 757              		.loc 1 639 3 is_stmt 1 view .LVU239
 641:/home/smartth/STM32Cube/Repository/STM32Cube_FW_F1_V1.8.4//Middlewares/ST/STM32_USB_Device_Library/Core/Src/usbd_ctlreq.c **** 
 758              		.loc 1 641 3 view .LVU240
 641:/home/smartth/STM32Cube/Repository/STM32Cube_FW_F1_V1.8.4//Middlewares/ST/STM32_USB_Device_Library/Core/Src/usbd_ctlreq.c **** 
 759              		.loc 1 641 12 is_stmt 0 view .LVU241
 760 0006 8978     		ldrb	r1, [r1, #2]	@ zero_extendqisi2
 761              	.LVL88:
ARM GAS  /tmp/ccVKyOYc.s 			page 34


 641:/home/smartth/STM32Cube/Repository/STM32Cube_FW_F1_V1.8.4//Middlewares/ST/STM32_USB_Device_Library/Core/Src/usbd_ctlreq.c **** 
 762              		.loc 1 641 10 view .LVU242
 763 0008 284B     		ldr	r3, .L68
 764 000a 1970     		strb	r1, [r3]
 643:/home/smartth/STM32Cube/Repository/STM32Cube_FW_F1_V1.8.4//Middlewares/ST/STM32_USB_Device_Library/Core/Src/usbd_ctlreq.c ****   {
 765              		.loc 1 643 3 is_stmt 1 view .LVU243
 643:/home/smartth/STM32Cube/Repository/STM32Cube_FW_F1_V1.8.4//Middlewares/ST/STM32_USB_Device_Library/Core/Src/usbd_ctlreq.c ****   {
 766              		.loc 1 643 6 is_stmt 0 view .LVU244
 767 000c 0129     		cmp	r1, #1
 768 000e 0ED8     		bhi	.L64
 649:/home/smartth/STM32Cube/Repository/STM32Cube_FW_F1_V1.8.4//Middlewares/ST/STM32_USB_Device_Library/Core/Src/usbd_ctlreq.c ****     {
 769              		.loc 1 649 5 is_stmt 1 view .LVU245
 649:/home/smartth/STM32Cube/Repository/STM32Cube_FW_F1_V1.8.4//Middlewares/ST/STM32_USB_Device_Library/Core/Src/usbd_ctlreq.c ****     {
 770              		.loc 1 649 17 is_stmt 0 view .LVU246
 771 0010 90F89C32 		ldrb	r3, [r0, #668]	@ zero_extendqisi2
 649:/home/smartth/STM32Cube/Repository/STM32Cube_FW_F1_V1.8.4//Middlewares/ST/STM32_USB_Device_Library/Core/Src/usbd_ctlreq.c ****     {
 772              		.loc 1 649 5 view .LVU247
 773 0014 022B     		cmp	r3, #2
 774 0016 0ED0     		beq	.L54
 775 0018 032B     		cmp	r3, #3
 776 001a 21D0     		beq	.L55
 698:/home/smartth/STM32Cube/Repository/STM32Cube_FW_F1_V1.8.4//Middlewares/ST/STM32_USB_Device_Library/Core/Src/usbd_ctlreq.c ****         USBD_ClrClassConfig(pdev, cfgidx);
 777              		.loc 1 698 9 is_stmt 1 view .LVU248
 778 001c 2946     		mov	r1, r5
 779 001e FFF7FEFF 		bl	USBD_CtlError
 780              	.LVL89:
 699:/home/smartth/STM32Cube/Repository/STM32Cube_FW_F1_V1.8.4//Middlewares/ST/STM32_USB_Device_Library/Core/Src/usbd_ctlreq.c ****         break;
 781              		.loc 1 699 9 view .LVU249
 782 0022 224B     		ldr	r3, .L68
 783 0024 1978     		ldrb	r1, [r3]	@ zero_extendqisi2
 784 0026 2046     		mov	r0, r4
 785 0028 FFF7FEFF 		bl	USBD_ClrClassConfig
 786              	.LVL90:
 700:/home/smartth/STM32Cube/Repository/STM32Cube_FW_F1_V1.8.4//Middlewares/ST/STM32_USB_Device_Library/Core/Src/usbd_ctlreq.c ****     }
 787              		.loc 1 700 9 view .LVU250
 788 002c 02E0     		b	.L51
 789              	.LVL91:
 790              	.L64:
 645:/home/smartth/STM32Cube/Repository/STM32Cube_FW_F1_V1.8.4//Middlewares/ST/STM32_USB_Device_Library/Core/Src/usbd_ctlreq.c ****   }
 791              		.loc 1 645 5 view .LVU251
 792 002e 2946     		mov	r1, r5
 793 0030 FFF7FEFF 		bl	USBD_CtlError
 794              	.LVL92:
 795              	.L51:
 703:/home/smartth/STM32Cube/Repository/STM32Cube_FW_F1_V1.8.4//Middlewares/ST/STM32_USB_Device_Library/Core/Src/usbd_ctlreq.c **** 
 796              		.loc 1 703 1 is_stmt 0 view .LVU252
 797 0034 38BD     		pop	{r3, r4, r5, pc}
 798              	.LVL93:
 799              	.L54:
 652:/home/smartth/STM32Cube/Repository/STM32Cube_FW_F1_V1.8.4//Middlewares/ST/STM32_USB_Device_Library/Core/Src/usbd_ctlreq.c ****         {
 800              		.loc 1 652 9 is_stmt 1 view .LVU253
 652:/home/smartth/STM32Cube/Repository/STM32Cube_FW_F1_V1.8.4//Middlewares/ST/STM32_USB_Device_Library/Core/Src/usbd_ctlreq.c ****         {
 801              		.loc 1 652 12 is_stmt 0 view .LVU254
 802 0036 81B1     		cbz	r1, .L57
 654:/home/smartth/STM32Cube/Repository/STM32Cube_FW_F1_V1.8.4//Middlewares/ST/STM32_USB_Device_Library/Core/Src/usbd_ctlreq.c ****           pdev->dev_state = USBD_STATE_CONFIGURED;
 803              		.loc 1 654 11 is_stmt 1 view .LVU255
 654:/home/smartth/STM32Cube/Repository/STM32Cube_FW_F1_V1.8.4//Middlewares/ST/STM32_USB_Device_Library/Core/Src/usbd_ctlreq.c ****           pdev->dev_state = USBD_STATE_CONFIGURED;
ARM GAS  /tmp/ccVKyOYc.s 			page 35


 804              		.loc 1 654 28 is_stmt 0 view .LVU256
 805 0038 4160     		str	r1, [r0, #4]
 655:/home/smartth/STM32Cube/Repository/STM32Cube_FW_F1_V1.8.4//Middlewares/ST/STM32_USB_Device_Library/Core/Src/usbd_ctlreq.c ****           if (USBD_SetClassConfig(pdev, cfgidx) == USBD_FAIL)
 806              		.loc 1 655 11 is_stmt 1 view .LVU257
 655:/home/smartth/STM32Cube/Repository/STM32Cube_FW_F1_V1.8.4//Middlewares/ST/STM32_USB_Device_Library/Core/Src/usbd_ctlreq.c ****           if (USBD_SetClassConfig(pdev, cfgidx) == USBD_FAIL)
 807              		.loc 1 655 27 is_stmt 0 view .LVU258
 808 003a 0323     		movs	r3, #3
 809 003c 80F89C32 		strb	r3, [r0, #668]
 656:/home/smartth/STM32Cube/Repository/STM32Cube_FW_F1_V1.8.4//Middlewares/ST/STM32_USB_Device_Library/Core/Src/usbd_ctlreq.c ****           {
 810              		.loc 1 656 11 is_stmt 1 view .LVU259
 656:/home/smartth/STM32Cube/Repository/STM32Cube_FW_F1_V1.8.4//Middlewares/ST/STM32_USB_Device_Library/Core/Src/usbd_ctlreq.c ****           {
 811              		.loc 1 656 15 is_stmt 0 view .LVU260
 812 0040 FFF7FEFF 		bl	USBD_SetClassConfig
 813              	.LVL94:
 656:/home/smartth/STM32Cube/Repository/STM32Cube_FW_F1_V1.8.4//Middlewares/ST/STM32_USB_Device_Library/Core/Src/usbd_ctlreq.c ****           {
 814              		.loc 1 656 14 view .LVU261
 815 0044 0228     		cmp	r0, #2
 816 0046 03D0     		beq	.L65
 661:/home/smartth/STM32Cube/Repository/STM32Cube_FW_F1_V1.8.4//Middlewares/ST/STM32_USB_Device_Library/Core/Src/usbd_ctlreq.c ****         }
 817              		.loc 1 661 11 is_stmt 1 view .LVU262
 818 0048 2046     		mov	r0, r4
 819 004a FFF7FEFF 		bl	USBD_CtlSendStatus
 820              	.LVL95:
 821 004e F1E7     		b	.L51
 822              	.L65:
 658:/home/smartth/STM32Cube/Repository/STM32Cube_FW_F1_V1.8.4//Middlewares/ST/STM32_USB_Device_Library/Core/Src/usbd_ctlreq.c ****             return;
 823              		.loc 1 658 13 view .LVU263
 824 0050 2946     		mov	r1, r5
 825 0052 2046     		mov	r0, r4
 826 0054 FFF7FEFF 		bl	USBD_CtlError
 827              	.LVL96:
 659:/home/smartth/STM32Cube/Repository/STM32Cube_FW_F1_V1.8.4//Middlewares/ST/STM32_USB_Device_Library/Core/Src/usbd_ctlreq.c ****           }
 828              		.loc 1 659 13 view .LVU264
 829 0058 ECE7     		b	.L51
 830              	.LVL97:
 831              	.L57:
 665:/home/smartth/STM32Cube/Repository/STM32Cube_FW_F1_V1.8.4//Middlewares/ST/STM32_USB_Device_Library/Core/Src/usbd_ctlreq.c ****         }
 832              		.loc 1 665 11 view .LVU265
 833 005a FFF7FEFF 		bl	USBD_CtlSendStatus
 834              	.LVL98:
 665:/home/smartth/STM32Cube/Repository/STM32Cube_FW_F1_V1.8.4//Middlewares/ST/STM32_USB_Device_Library/Core/Src/usbd_ctlreq.c ****         }
 835              		.loc 1 665 11 is_stmt 0 view .LVU266
 836 005e E9E7     		b	.L51
 837              	.LVL99:
 838              	.L55:
 670:/home/smartth/STM32Cube/Repository/STM32Cube_FW_F1_V1.8.4//Middlewares/ST/STM32_USB_Device_Library/Core/Src/usbd_ctlreq.c ****         {
 839              		.loc 1 670 9 is_stmt 1 view .LVU267
 670:/home/smartth/STM32Cube/Repository/STM32Cube_FW_F1_V1.8.4//Middlewares/ST/STM32_USB_Device_Library/Core/Src/usbd_ctlreq.c ****         {
 840              		.loc 1 670 12 is_stmt 0 view .LVU268
 841 0060 89B1     		cbz	r1, .L66
 677:/home/smartth/STM32Cube/Repository/STM32Cube_FW_F1_V1.8.4//Middlewares/ST/STM32_USB_Device_Library/Core/Src/usbd_ctlreq.c ****         {
 842              		.loc 1 677 14 is_stmt 1 view .LVU269
 677:/home/smartth/STM32Cube/Repository/STM32Cube_FW_F1_V1.8.4//Middlewares/ST/STM32_USB_Device_Library/Core/Src/usbd_ctlreq.c ****         {
 843              		.loc 1 677 32 is_stmt 0 view .LVU270
 844 0062 4368     		ldr	r3, [r0, #4]
 677:/home/smartth/STM32Cube/Repository/STM32Cube_FW_F1_V1.8.4//Middlewares/ST/STM32_USB_Device_Library/Core/Src/usbd_ctlreq.c ****         {
 845              		.loc 1 677 17 view .LVU271
ARM GAS  /tmp/ccVKyOYc.s 			page 36


 846 0064 9942     		cmp	r1, r3
 847 0066 1DD0     		beq	.L60
 680:/home/smartth/STM32Cube/Repository/STM32Cube_FW_F1_V1.8.4//Middlewares/ST/STM32_USB_Device_Library/Core/Src/usbd_ctlreq.c **** 
 848              		.loc 1 680 11 is_stmt 1 view .LVU272
 849 0068 D9B2     		uxtb	r1, r3
 850 006a FFF7FEFF 		bl	USBD_ClrClassConfig
 851              	.LVL100:
 683:/home/smartth/STM32Cube/Repository/STM32Cube_FW_F1_V1.8.4//Middlewares/ST/STM32_USB_Device_Library/Core/Src/usbd_ctlreq.c ****           if (USBD_SetClassConfig(pdev, cfgidx) == USBD_FAIL)
 852              		.loc 1 683 11 view .LVU273
 683:/home/smartth/STM32Cube/Repository/STM32Cube_FW_F1_V1.8.4//Middlewares/ST/STM32_USB_Device_Library/Core/Src/usbd_ctlreq.c ****           if (USBD_SetClassConfig(pdev, cfgidx) == USBD_FAIL)
 853              		.loc 1 683 28 is_stmt 0 view .LVU274
 854 006e 0F4B     		ldr	r3, .L68
 855 0070 1978     		ldrb	r1, [r3]	@ zero_extendqisi2
 856 0072 6160     		str	r1, [r4, #4]
 684:/home/smartth/STM32Cube/Repository/STM32Cube_FW_F1_V1.8.4//Middlewares/ST/STM32_USB_Device_Library/Core/Src/usbd_ctlreq.c ****           {
 857              		.loc 1 684 11 is_stmt 1 view .LVU275
 684:/home/smartth/STM32Cube/Repository/STM32Cube_FW_F1_V1.8.4//Middlewares/ST/STM32_USB_Device_Library/Core/Src/usbd_ctlreq.c ****           {
 858              		.loc 1 684 15 is_stmt 0 view .LVU276
 859 0074 2046     		mov	r0, r4
 860 0076 FFF7FEFF 		bl	USBD_SetClassConfig
 861              	.LVL101:
 684:/home/smartth/STM32Cube/Repository/STM32Cube_FW_F1_V1.8.4//Middlewares/ST/STM32_USB_Device_Library/Core/Src/usbd_ctlreq.c ****           {
 862              		.loc 1 684 14 view .LVU277
 863 007a 0228     		cmp	r0, #2
 864 007c 0DD0     		beq	.L67
 689:/home/smartth/STM32Cube/Repository/STM32Cube_FW_F1_V1.8.4//Middlewares/ST/STM32_USB_Device_Library/Core/Src/usbd_ctlreq.c ****         }
 865              		.loc 1 689 11 is_stmt 1 view .LVU278
 866 007e 2046     		mov	r0, r4
 867 0080 FFF7FEFF 		bl	USBD_CtlSendStatus
 868              	.LVL102:
 869 0084 D6E7     		b	.L51
 870              	.LVL103:
 871              	.L66:
 672:/home/smartth/STM32Cube/Repository/STM32Cube_FW_F1_V1.8.4//Middlewares/ST/STM32_USB_Device_Library/Core/Src/usbd_ctlreq.c ****           pdev->dev_config = cfgidx;
 872              		.loc 1 672 11 view .LVU279
 672:/home/smartth/STM32Cube/Repository/STM32Cube_FW_F1_V1.8.4//Middlewares/ST/STM32_USB_Device_Library/Core/Src/usbd_ctlreq.c ****           pdev->dev_config = cfgidx;
 873              		.loc 1 672 27 is_stmt 0 view .LVU280
 874 0086 0223     		movs	r3, #2
 875 0088 80F89C32 		strb	r3, [r0, #668]
 673:/home/smartth/STM32Cube/Repository/STM32Cube_FW_F1_V1.8.4//Middlewares/ST/STM32_USB_Device_Library/Core/Src/usbd_ctlreq.c ****           USBD_ClrClassConfig(pdev, cfgidx);
 876              		.loc 1 673 11 is_stmt 1 view .LVU281
 673:/home/smartth/STM32Cube/Repository/STM32Cube_FW_F1_V1.8.4//Middlewares/ST/STM32_USB_Device_Library/Core/Src/usbd_ctlreq.c ****           USBD_ClrClassConfig(pdev, cfgidx);
 877              		.loc 1 673 28 is_stmt 0 view .LVU282
 878 008c 4160     		str	r1, [r0, #4]
 674:/home/smartth/STM32Cube/Repository/STM32Cube_FW_F1_V1.8.4//Middlewares/ST/STM32_USB_Device_Library/Core/Src/usbd_ctlreq.c ****           USBD_CtlSendStatus(pdev);
 879              		.loc 1 674 11 is_stmt 1 view .LVU283
 880 008e FFF7FEFF 		bl	USBD_ClrClassConfig
 881              	.LVL104:
 675:/home/smartth/STM32Cube/Repository/STM32Cube_FW_F1_V1.8.4//Middlewares/ST/STM32_USB_Device_Library/Core/Src/usbd_ctlreq.c ****         }
 882              		.loc 1 675 11 view .LVU284
 883 0092 2046     		mov	r0, r4
 884 0094 FFF7FEFF 		bl	USBD_CtlSendStatus
 885              	.LVL105:
 886 0098 CCE7     		b	.L51
 887              	.L67:
 686:/home/smartth/STM32Cube/Repository/STM32Cube_FW_F1_V1.8.4//Middlewares/ST/STM32_USB_Device_Library/Core/Src/usbd_ctlreq.c ****             return;
 888              		.loc 1 686 13 view .LVU285
ARM GAS  /tmp/ccVKyOYc.s 			page 37


 889 009a 2946     		mov	r1, r5
 890 009c 2046     		mov	r0, r4
 891 009e FFF7FEFF 		bl	USBD_CtlError
 892              	.LVL106:
 687:/home/smartth/STM32Cube/Repository/STM32Cube_FW_F1_V1.8.4//Middlewares/ST/STM32_USB_Device_Library/Core/Src/usbd_ctlreq.c ****           }
 893              		.loc 1 687 13 view .LVU286
 894 00a2 C7E7     		b	.L51
 895              	.LVL107:
 896              	.L60:
 693:/home/smartth/STM32Cube/Repository/STM32Cube_FW_F1_V1.8.4//Middlewares/ST/STM32_USB_Device_Library/Core/Src/usbd_ctlreq.c ****         }
 897              		.loc 1 693 11 view .LVU287
 898 00a4 FFF7FEFF 		bl	USBD_CtlSendStatus
 899              	.LVL108:
 693:/home/smartth/STM32Cube/Repository/STM32Cube_FW_F1_V1.8.4//Middlewares/ST/STM32_USB_Device_Library/Core/Src/usbd_ctlreq.c ****         }
 900              		.loc 1 693 11 is_stmt 0 view .LVU288
 901 00a8 C4E7     		b	.L51
 902              	.L69:
 903 00aa 00BF     		.align	2
 904              	.L68:
 905 00ac 00000000 		.word	.LANCHOR0
 906              		.cfi_endproc
 907              	.LFE202:
 909              		.section	.text.USBD_GetConfig,"ax",%progbits
 910              		.align	1
 911              		.syntax unified
 912              		.thumb
 913              		.thumb_func
 914              		.fpu softvfp
 916              	USBD_GetConfig:
 917              	.LVL109:
 918              	.LFB203:
 713:/home/smartth/STM32Cube/Repository/STM32Cube_FW_F1_V1.8.4//Middlewares/ST/STM32_USB_Device_Library/Core/Src/usbd_ctlreq.c ****   if (req->wLength != 1U)
 919              		.loc 1 713 1 is_stmt 1 view -0
 920              		.cfi_startproc
 921              		@ args = 0, pretend = 0, frame = 0
 922              		@ frame_needed = 0, uses_anonymous_args = 0
 713:/home/smartth/STM32Cube/Repository/STM32Cube_FW_F1_V1.8.4//Middlewares/ST/STM32_USB_Device_Library/Core/Src/usbd_ctlreq.c ****   if (req->wLength != 1U)
 923              		.loc 1 713 1 is_stmt 0 view .LVU290
 924 0000 08B5     		push	{r3, lr}
 925              	.LCFI8:
 926              		.cfi_def_cfa_offset 8
 927              		.cfi_offset 3, -8
 928              		.cfi_offset 14, -4
 714:/home/smartth/STM32Cube/Repository/STM32Cube_FW_F1_V1.8.4//Middlewares/ST/STM32_USB_Device_Library/Core/Src/usbd_ctlreq.c ****   {
 929              		.loc 1 714 3 is_stmt 1 view .LVU291
 714:/home/smartth/STM32Cube/Repository/STM32Cube_FW_F1_V1.8.4//Middlewares/ST/STM32_USB_Device_Library/Core/Src/usbd_ctlreq.c ****   {
 930              		.loc 1 714 10 is_stmt 0 view .LVU292
 931 0002 CB88     		ldrh	r3, [r1, #6]
 714:/home/smartth/STM32Cube/Repository/STM32Cube_FW_F1_V1.8.4//Middlewares/ST/STM32_USB_Device_Library/Core/Src/usbd_ctlreq.c ****   {
 932              		.loc 1 714 6 view .LVU293
 933 0004 012B     		cmp	r3, #1
 934 0006 0AD1     		bne	.L78
 720:/home/smartth/STM32Cube/Repository/STM32Cube_FW_F1_V1.8.4//Middlewares/ST/STM32_USB_Device_Library/Core/Src/usbd_ctlreq.c ****     {
 935              		.loc 1 720 5 is_stmt 1 view .LVU294
 720:/home/smartth/STM32Cube/Repository/STM32Cube_FW_F1_V1.8.4//Middlewares/ST/STM32_USB_Device_Library/Core/Src/usbd_ctlreq.c ****     {
 936              		.loc 1 720 17 is_stmt 0 view .LVU295
 937 0008 90F89C32 		ldrb	r3, [r0, #668]	@ zero_extendqisi2
ARM GAS  /tmp/ccVKyOYc.s 			page 38


 720:/home/smartth/STM32Cube/Repository/STM32Cube_FW_F1_V1.8.4//Middlewares/ST/STM32_USB_Device_Library/Core/Src/usbd_ctlreq.c ****     {
 938              		.loc 1 720 5 view .LVU296
 939 000c 022B     		cmp	r3, #2
 940 000e 09D9     		bls	.L79
 941 0010 032B     		cmp	r3, #3
 942 0012 09D1     		bne	.L75
 729:/home/smartth/STM32Cube/Repository/STM32Cube_FW_F1_V1.8.4//Middlewares/ST/STM32_USB_Device_Library/Core/Src/usbd_ctlreq.c ****         break;
 943              		.loc 1 729 9 is_stmt 1 view .LVU297
 944 0014 0122     		movs	r2, #1
 945 0016 011D     		adds	r1, r0, #4
 946              	.LVL110:
 729:/home/smartth/STM32Cube/Repository/STM32Cube_FW_F1_V1.8.4//Middlewares/ST/STM32_USB_Device_Library/Core/Src/usbd_ctlreq.c ****         break;
 947              		.loc 1 729 9 is_stmt 0 view .LVU298
 948 0018 FFF7FEFF 		bl	USBD_CtlSendData
 949              	.LVL111:
 730:/home/smartth/STM32Cube/Repository/STM32Cube_FW_F1_V1.8.4//Middlewares/ST/STM32_USB_Device_Library/Core/Src/usbd_ctlreq.c **** 
 950              		.loc 1 730 9 is_stmt 1 view .LVU299
 951 001c 01E0     		b	.L70
 952              	.LVL112:
 953              	.L78:
 716:/home/smartth/STM32Cube/Repository/STM32Cube_FW_F1_V1.8.4//Middlewares/ST/STM32_USB_Device_Library/Core/Src/usbd_ctlreq.c ****   }
 954              		.loc 1 716 5 view .LVU300
 955 001e FFF7FEFF 		bl	USBD_CtlError
 956              	.LVL113:
 957              	.L70:
 737:/home/smartth/STM32Cube/Repository/STM32Cube_FW_F1_V1.8.4//Middlewares/ST/STM32_USB_Device_Library/Core/Src/usbd_ctlreq.c **** 
 958              		.loc 1 737 1 is_stmt 0 view .LVU301
 959 0022 08BD     		pop	{r3, pc}
 960              	.LVL114:
 961              	.L79:
 720:/home/smartth/STM32Cube/Repository/STM32Cube_FW_F1_V1.8.4//Middlewares/ST/STM32_USB_Device_Library/Core/Src/usbd_ctlreq.c ****     {
 962              		.loc 1 720 5 view .LVU302
 963 0024 5BB2     		sxtb	r3, r3
 964 0026 13B9     		cbnz	r3, .L80
 965              	.L75:
 733:/home/smartth/STM32Cube/Repository/STM32Cube_FW_F1_V1.8.4//Middlewares/ST/STM32_USB_Device_Library/Core/Src/usbd_ctlreq.c ****         break;
 966              		.loc 1 733 9 is_stmt 1 view .LVU303
 967 0028 FFF7FEFF 		bl	USBD_CtlError
 968              	.LVL115:
 734:/home/smartth/STM32Cube/Repository/STM32Cube_FW_F1_V1.8.4//Middlewares/ST/STM32_USB_Device_Library/Core/Src/usbd_ctlreq.c ****     }
 969              		.loc 1 734 9 view .LVU304
 737:/home/smartth/STM32Cube/Repository/STM32Cube_FW_F1_V1.8.4//Middlewares/ST/STM32_USB_Device_Library/Core/Src/usbd_ctlreq.c **** 
 970              		.loc 1 737 1 is_stmt 0 view .LVU305
 971 002c F9E7     		b	.L70
 972              	.LVL116:
 973              	.L80:
 724:/home/smartth/STM32Cube/Repository/STM32Cube_FW_F1_V1.8.4//Middlewares/ST/STM32_USB_Device_Library/Core/Src/usbd_ctlreq.c ****         USBD_CtlSendData(pdev, (uint8_t *)(void *)&pdev->dev_default_config, 1U);
 974              		.loc 1 724 9 is_stmt 1 view .LVU306
 724:/home/smartth/STM32Cube/Repository/STM32Cube_FW_F1_V1.8.4//Middlewares/ST/STM32_USB_Device_Library/Core/Src/usbd_ctlreq.c ****         USBD_CtlSendData(pdev, (uint8_t *)(void *)&pdev->dev_default_config, 1U);
 975              		.loc 1 724 34 is_stmt 0 view .LVU307
 976 002e 0146     		mov	r1, r0
 977              	.LVL117:
 724:/home/smartth/STM32Cube/Repository/STM32Cube_FW_F1_V1.8.4//Middlewares/ST/STM32_USB_Device_Library/Core/Src/usbd_ctlreq.c ****         USBD_CtlSendData(pdev, (uint8_t *)(void *)&pdev->dev_default_config, 1U);
 978              		.loc 1 724 34 view .LVU308
 979 0030 0023     		movs	r3, #0
 980 0032 41F8083F 		str	r3, [r1, #8]!
 725:/home/smartth/STM32Cube/Repository/STM32Cube_FW_F1_V1.8.4//Middlewares/ST/STM32_USB_Device_Library/Core/Src/usbd_ctlreq.c ****         break;
ARM GAS  /tmp/ccVKyOYc.s 			page 39


 981              		.loc 1 725 9 is_stmt 1 view .LVU309
 982 0036 0122     		movs	r2, #1
 983 0038 FFF7FEFF 		bl	USBD_CtlSendData
 984              	.LVL118:
 726:/home/smartth/STM32Cube/Repository/STM32Cube_FW_F1_V1.8.4//Middlewares/ST/STM32_USB_Device_Library/Core/Src/usbd_ctlreq.c **** 
 985              		.loc 1 726 9 view .LVU310
 986 003c F1E7     		b	.L70
 987              		.cfi_endproc
 988              	.LFE203:
 990              		.section	.text.USBD_GetStatus,"ax",%progbits
 991              		.align	1
 992              		.syntax unified
 993              		.thumb
 994              		.thumb_func
 995              		.fpu softvfp
 997              	USBD_GetStatus:
 998              	.LVL119:
 999              	.LFB204:
 747:/home/smartth/STM32Cube/Repository/STM32Cube_FW_F1_V1.8.4//Middlewares/ST/STM32_USB_Device_Library/Core/Src/usbd_ctlreq.c ****   switch (pdev->dev_state)
 1000              		.loc 1 747 1 view -0
 1001              		.cfi_startproc
 1002              		@ args = 0, pretend = 0, frame = 0
 1003              		@ frame_needed = 0, uses_anonymous_args = 0
 747:/home/smartth/STM32Cube/Repository/STM32Cube_FW_F1_V1.8.4//Middlewares/ST/STM32_USB_Device_Library/Core/Src/usbd_ctlreq.c ****   switch (pdev->dev_state)
 1004              		.loc 1 747 1 is_stmt 0 view .LVU312
 1005 0000 08B5     		push	{r3, lr}
 1006              	.LCFI9:
 1007              		.cfi_def_cfa_offset 8
 1008              		.cfi_offset 3, -8
 1009              		.cfi_offset 14, -4
 748:/home/smartth/STM32Cube/Repository/STM32Cube_FW_F1_V1.8.4//Middlewares/ST/STM32_USB_Device_Library/Core/Src/usbd_ctlreq.c ****   {
 1010              		.loc 1 748 3 is_stmt 1 view .LVU313
 748:/home/smartth/STM32Cube/Repository/STM32Cube_FW_F1_V1.8.4//Middlewares/ST/STM32_USB_Device_Library/Core/Src/usbd_ctlreq.c ****   {
 1011              		.loc 1 748 15 is_stmt 0 view .LVU314
 1012 0002 90F89C32 		ldrb	r3, [r0, #668]	@ zero_extendqisi2
 748:/home/smartth/STM32Cube/Repository/STM32Cube_FW_F1_V1.8.4//Middlewares/ST/STM32_USB_Device_Library/Core/Src/usbd_ctlreq.c ****   {
 1013              		.loc 1 748 3 view .LVU315
 1014 0006 013B     		subs	r3, r3, #1
 1015 0008 022B     		cmp	r3, #2
 1016 000a 12D8     		bhi	.L82
 753:/home/smartth/STM32Cube/Repository/STM32Cube_FW_F1_V1.8.4//Middlewares/ST/STM32_USB_Device_Library/Core/Src/usbd_ctlreq.c ****       {
 1017              		.loc 1 753 7 is_stmt 1 view .LVU316
 753:/home/smartth/STM32Cube/Repository/STM32Cube_FW_F1_V1.8.4//Middlewares/ST/STM32_USB_Device_Library/Core/Src/usbd_ctlreq.c ****       {
 1018              		.loc 1 753 14 is_stmt 0 view .LVU317
 1019 000c CB88     		ldrh	r3, [r1, #6]
 753:/home/smartth/STM32Cube/Repository/STM32Cube_FW_F1_V1.8.4//Middlewares/ST/STM32_USB_Device_Library/Core/Src/usbd_ctlreq.c ****       {
 1020              		.loc 1 753 10 view .LVU318
 1021 000e 022B     		cmp	r3, #2
 1022 0010 0CD1     		bne	.L87
 760:/home/smartth/STM32Cube/Repository/STM32Cube_FW_F1_V1.8.4//Middlewares/ST/STM32_USB_Device_Library/Core/Src/usbd_ctlreq.c **** #else
 1023              		.loc 1 760 7 is_stmt 1 view .LVU319
 760:/home/smartth/STM32Cube/Repository/STM32Cube_FW_F1_V1.8.4//Middlewares/ST/STM32_USB_Device_Library/Core/Src/usbd_ctlreq.c **** #else
 1024              		.loc 1 760 31 is_stmt 0 view .LVU320
 1025 0012 0123     		movs	r3, #1
 1026 0014 C360     		str	r3, [r0, #12]
 765:/home/smartth/STM32Cube/Repository/STM32Cube_FW_F1_V1.8.4//Middlewares/ST/STM32_USB_Device_Library/Core/Src/usbd_ctlreq.c ****       {
 1027              		.loc 1 765 7 is_stmt 1 view .LVU321
ARM GAS  /tmp/ccVKyOYc.s 			page 40


 765:/home/smartth/STM32Cube/Repository/STM32Cube_FW_F1_V1.8.4//Middlewares/ST/STM32_USB_Device_Library/Core/Src/usbd_ctlreq.c ****       {
 1028              		.loc 1 765 15 is_stmt 0 view .LVU322
 1029 0016 D0F8A432 		ldr	r3, [r0, #676]
 765:/home/smartth/STM32Cube/Repository/STM32Cube_FW_F1_V1.8.4//Middlewares/ST/STM32_USB_Device_Library/Core/Src/usbd_ctlreq.c ****       {
 1030              		.loc 1 765 10 view .LVU323
 1031 001a 0BB1     		cbz	r3, .L85
 767:/home/smartth/STM32Cube/Repository/STM32Cube_FW_F1_V1.8.4//Middlewares/ST/STM32_USB_Device_Library/Core/Src/usbd_ctlreq.c ****       }
 1032              		.loc 1 767 9 is_stmt 1 view .LVU324
 767:/home/smartth/STM32Cube/Repository/STM32Cube_FW_F1_V1.8.4//Middlewares/ST/STM32_USB_Device_Library/Core/Src/usbd_ctlreq.c ****       }
 1033              		.loc 1 767 33 is_stmt 0 view .LVU325
 1034 001c 0323     		movs	r3, #3
 1035 001e C360     		str	r3, [r0, #12]
 1036              	.L85:
 770:/home/smartth/STM32Cube/Repository/STM32Cube_FW_F1_V1.8.4//Middlewares/ST/STM32_USB_Device_Library/Core/Src/usbd_ctlreq.c ****       break;
 1037              		.loc 1 770 7 is_stmt 1 view .LVU326
 1038 0020 0222     		movs	r2, #2
 1039 0022 00F10C01 		add	r1, r0, #12
 1040              	.LVL120:
 770:/home/smartth/STM32Cube/Repository/STM32Cube_FW_F1_V1.8.4//Middlewares/ST/STM32_USB_Device_Library/Core/Src/usbd_ctlreq.c ****       break;
 1041              		.loc 1 770 7 is_stmt 0 view .LVU327
 1042 0026 FFF7FEFF 		bl	USBD_CtlSendData
 1043              	.LVL121:
 771:/home/smartth/STM32Cube/Repository/STM32Cube_FW_F1_V1.8.4//Middlewares/ST/STM32_USB_Device_Library/Core/Src/usbd_ctlreq.c **** 
 1044              		.loc 1 771 7 is_stmt 1 view .LVU328
 1045              	.L81:
 777:/home/smartth/STM32Cube/Repository/STM32Cube_FW_F1_V1.8.4//Middlewares/ST/STM32_USB_Device_Library/Core/Src/usbd_ctlreq.c **** 
 1046              		.loc 1 777 1 is_stmt 0 view .LVU329
 1047 002a 08BD     		pop	{r3, pc}
 1048              	.LVL122:
 1049              	.L87:
 755:/home/smartth/STM32Cube/Repository/STM32Cube_FW_F1_V1.8.4//Middlewares/ST/STM32_USB_Device_Library/Core/Src/usbd_ctlreq.c ****         break;
 1050              		.loc 1 755 9 is_stmt 1 view .LVU330
 1051 002c FFF7FEFF 		bl	USBD_CtlError
 1052              	.LVL123:
 756:/home/smartth/STM32Cube/Repository/STM32Cube_FW_F1_V1.8.4//Middlewares/ST/STM32_USB_Device_Library/Core/Src/usbd_ctlreq.c ****       }
 1053              		.loc 1 756 9 view .LVU331
 1054 0030 FBE7     		b	.L81
 1055              	.LVL124:
 1056              	.L82:
 774:/home/smartth/STM32Cube/Repository/STM32Cube_FW_F1_V1.8.4//Middlewares/ST/STM32_USB_Device_Library/Core/Src/usbd_ctlreq.c ****       break;
 1057              		.loc 1 774 7 view .LVU332
 1058 0032 FFF7FEFF 		bl	USBD_CtlError
 1059              	.LVL125:
 775:/home/smartth/STM32Cube/Repository/STM32Cube_FW_F1_V1.8.4//Middlewares/ST/STM32_USB_Device_Library/Core/Src/usbd_ctlreq.c ****   }
 1060              		.loc 1 775 7 view .LVU333
 777:/home/smartth/STM32Cube/Repository/STM32Cube_FW_F1_V1.8.4//Middlewares/ST/STM32_USB_Device_Library/Core/Src/usbd_ctlreq.c **** 
 1061              		.loc 1 777 1 is_stmt 0 view .LVU334
 1062 0036 F8E7     		b	.L81
 1063              		.cfi_endproc
 1064              	.LFE204:
 1066              		.section	.text.USBD_ClrFeature,"ax",%progbits
 1067              		.align	1
 1068              		.syntax unified
 1069              		.thumb
 1070              		.thumb_func
 1071              		.fpu softvfp
 1073              	USBD_ClrFeature:
ARM GAS  /tmp/ccVKyOYc.s 			page 41


 1074              	.LVL126:
 1075              	.LFB206:
 807:/home/smartth/STM32Cube/Repository/STM32Cube_FW_F1_V1.8.4//Middlewares/ST/STM32_USB_Device_Library/Core/Src/usbd_ctlreq.c ****   switch (pdev->dev_state)
 1076              		.loc 1 807 1 is_stmt 1 view -0
 1077              		.cfi_startproc
 1078              		@ args = 0, pretend = 0, frame = 0
 1079              		@ frame_needed = 0, uses_anonymous_args = 0
 807:/home/smartth/STM32Cube/Repository/STM32Cube_FW_F1_V1.8.4//Middlewares/ST/STM32_USB_Device_Library/Core/Src/usbd_ctlreq.c ****   switch (pdev->dev_state)
 1080              		.loc 1 807 1 is_stmt 0 view .LVU336
 1081 0000 08B5     		push	{r3, lr}
 1082              	.LCFI10:
 1083              		.cfi_def_cfa_offset 8
 1084              		.cfi_offset 3, -8
 1085              		.cfi_offset 14, -4
 808:/home/smartth/STM32Cube/Repository/STM32Cube_FW_F1_V1.8.4//Middlewares/ST/STM32_USB_Device_Library/Core/Src/usbd_ctlreq.c ****   {
 1086              		.loc 1 808 3 is_stmt 1 view .LVU337
 808:/home/smartth/STM32Cube/Repository/STM32Cube_FW_F1_V1.8.4//Middlewares/ST/STM32_USB_Device_Library/Core/Src/usbd_ctlreq.c ****   {
 1087              		.loc 1 808 15 is_stmt 0 view .LVU338
 1088 0002 90F89C32 		ldrb	r3, [r0, #668]	@ zero_extendqisi2
 808:/home/smartth/STM32Cube/Repository/STM32Cube_FW_F1_V1.8.4//Middlewares/ST/STM32_USB_Device_Library/Core/Src/usbd_ctlreq.c ****   {
 1089              		.loc 1 808 3 view .LVU339
 1090 0006 013B     		subs	r3, r3, #1
 1091 0008 022B     		cmp	r3, #2
 1092 000a 09D8     		bhi	.L89
 813:/home/smartth/STM32Cube/Repository/STM32Cube_FW_F1_V1.8.4//Middlewares/ST/STM32_USB_Device_Library/Core/Src/usbd_ctlreq.c ****       {
 1093              		.loc 1 813 7 is_stmt 1 view .LVU340
 813:/home/smartth/STM32Cube/Repository/STM32Cube_FW_F1_V1.8.4//Middlewares/ST/STM32_USB_Device_Library/Core/Src/usbd_ctlreq.c ****       {
 1094              		.loc 1 813 14 is_stmt 0 view .LVU341
 1095 000c 4B88     		ldrh	r3, [r1, #2]
 813:/home/smartth/STM32Cube/Repository/STM32Cube_FW_F1_V1.8.4//Middlewares/ST/STM32_USB_Device_Library/Core/Src/usbd_ctlreq.c ****       {
 1096              		.loc 1 813 10 view .LVU342
 1097 000e 012B     		cmp	r3, #1
 1098 0010 00D0     		beq	.L92
 1099              	.LVL127:
 1100              	.L88:
 824:/home/smartth/STM32Cube/Repository/STM32Cube_FW_F1_V1.8.4//Middlewares/ST/STM32_USB_Device_Library/Core/Src/usbd_ctlreq.c **** 
 1101              		.loc 1 824 1 view .LVU343
 1102 0012 08BD     		pop	{r3, pc}
 1103              	.LVL128:
 1104              	.L92:
 815:/home/smartth/STM32Cube/Repository/STM32Cube_FW_F1_V1.8.4//Middlewares/ST/STM32_USB_Device_Library/Core/Src/usbd_ctlreq.c ****         USBD_CtlSendStatus(pdev);
 1105              		.loc 1 815 9 is_stmt 1 view .LVU344
 815:/home/smartth/STM32Cube/Repository/STM32Cube_FW_F1_V1.8.4//Middlewares/ST/STM32_USB_Device_Library/Core/Src/usbd_ctlreq.c ****         USBD_CtlSendStatus(pdev);
 1106              		.loc 1 815 33 is_stmt 0 view .LVU345
 1107 0014 0023     		movs	r3, #0
 1108 0016 C0F8A432 		str	r3, [r0, #676]
 816:/home/smartth/STM32Cube/Repository/STM32Cube_FW_F1_V1.8.4//Middlewares/ST/STM32_USB_Device_Library/Core/Src/usbd_ctlreq.c ****       }
 1109              		.loc 1 816 9 is_stmt 1 view .LVU346
 1110 001a FFF7FEFF 		bl	USBD_CtlSendStatus
 1111              	.LVL129:
 816:/home/smartth/STM32Cube/Repository/STM32Cube_FW_F1_V1.8.4//Middlewares/ST/STM32_USB_Device_Library/Core/Src/usbd_ctlreq.c ****       }
 1112              		.loc 1 816 9 is_stmt 0 view .LVU347
 1113 001e F8E7     		b	.L88
 1114              	.LVL130:
 1115              	.L89:
 821:/home/smartth/STM32Cube/Repository/STM32Cube_FW_F1_V1.8.4//Middlewares/ST/STM32_USB_Device_Library/Core/Src/usbd_ctlreq.c ****       break;
 1116              		.loc 1 821 7 is_stmt 1 view .LVU348
ARM GAS  /tmp/ccVKyOYc.s 			page 42


 1117 0020 FFF7FEFF 		bl	USBD_CtlError
 1118              	.LVL131:
 822:/home/smartth/STM32Cube/Repository/STM32Cube_FW_F1_V1.8.4//Middlewares/ST/STM32_USB_Device_Library/Core/Src/usbd_ctlreq.c ****   }
 1119              		.loc 1 822 7 view .LVU349
 824:/home/smartth/STM32Cube/Repository/STM32Cube_FW_F1_V1.8.4//Middlewares/ST/STM32_USB_Device_Library/Core/Src/usbd_ctlreq.c **** 
 1120              		.loc 1 824 1 is_stmt 0 view .LVU350
 1121 0024 F5E7     		b	.L88
 1122              		.cfi_endproc
 1123              	.LFE206:
 1125              		.section	.text.USBD_StdDevReq,"ax",%progbits
 1126              		.align	1
 1127              		.global	USBD_StdDevReq
 1128              		.syntax unified
 1129              		.thumb
 1130              		.thumb_func
 1131              		.fpu softvfp
 1133              	USBD_StdDevReq:
 1134              	.LVL132:
 1135              	.LFB197:
 116:/home/smartth/STM32Cube/Repository/STM32Cube_FW_F1_V1.8.4//Middlewares/ST/STM32_USB_Device_Library/Core/Src/usbd_ctlreq.c ****   USBD_StatusTypeDef ret = USBD_OK;
 1136              		.loc 1 116 1 is_stmt 1 view -0
 1137              		.cfi_startproc
 1138              		@ args = 0, pretend = 0, frame = 0
 1139              		@ frame_needed = 0, uses_anonymous_args = 0
 116:/home/smartth/STM32Cube/Repository/STM32Cube_FW_F1_V1.8.4//Middlewares/ST/STM32_USB_Device_Library/Core/Src/usbd_ctlreq.c ****   USBD_StatusTypeDef ret = USBD_OK;
 1140              		.loc 1 116 1 is_stmt 0 view .LVU352
 1141 0000 08B5     		push	{r3, lr}
 1142              	.LCFI11:
 1143              		.cfi_def_cfa_offset 8
 1144              		.cfi_offset 3, -8
 1145              		.cfi_offset 14, -4
 117:/home/smartth/STM32Cube/Repository/STM32Cube_FW_F1_V1.8.4//Middlewares/ST/STM32_USB_Device_Library/Core/Src/usbd_ctlreq.c **** 
 1146              		.loc 1 117 3 is_stmt 1 view .LVU353
 1147              	.LVL133:
 119:/home/smartth/STM32Cube/Repository/STM32Cube_FW_F1_V1.8.4//Middlewares/ST/STM32_USB_Device_Library/Core/Src/usbd_ctlreq.c ****   {
 1148              		.loc 1 119 3 view .LVU354
 119:/home/smartth/STM32Cube/Repository/STM32Cube_FW_F1_V1.8.4//Middlewares/ST/STM32_USB_Device_Library/Core/Src/usbd_ctlreq.c ****   {
 1149              		.loc 1 119 14 is_stmt 0 view .LVU355
 1150 0002 0B78     		ldrb	r3, [r1]	@ zero_extendqisi2
 1151 0004 03F06003 		and	r3, r3, #96
 119:/home/smartth/STM32Cube/Repository/STM32Cube_FW_F1_V1.8.4//Middlewares/ST/STM32_USB_Device_Library/Core/Src/usbd_ctlreq.c ****   {
 1152              		.loc 1 119 3 view .LVU356
 1153 0008 202B     		cmp	r3, #32
 1154 000a 05D0     		beq	.L94
 1155 000c 402B     		cmp	r3, #64
 1156 000e 03D0     		beq	.L94
 1157 0010 43B1     		cbz	r3, .L109
 164:/home/smartth/STM32Cube/Repository/STM32Cube_FW_F1_V1.8.4//Middlewares/ST/STM32_USB_Device_Library/Core/Src/usbd_ctlreq.c ****       break;
 1158              		.loc 1 164 7 is_stmt 1 view .LVU357
 1159 0012 FFF7FEFF 		bl	USBD_CtlError
 1160              	.LVL134:
 165:/home/smartth/STM32Cube/Repository/STM32Cube_FW_F1_V1.8.4//Middlewares/ST/STM32_USB_Device_Library/Core/Src/usbd_ctlreq.c ****   }
 1161              		.loc 1 165 7 view .LVU358
 1162 0016 03E0     		b	.L97
 1163              	.LVL135:
 1164              	.L94:
 123:/home/smartth/STM32Cube/Repository/STM32Cube_FW_F1_V1.8.4//Middlewares/ST/STM32_USB_Device_Library/Core/Src/usbd_ctlreq.c ****       break;
ARM GAS  /tmp/ccVKyOYc.s 			page 43


 1165              		.loc 1 123 7 view .LVU359
 123:/home/smartth/STM32Cube/Repository/STM32Cube_FW_F1_V1.8.4//Middlewares/ST/STM32_USB_Device_Library/Core/Src/usbd_ctlreq.c ****       break;
 1166              		.loc 1 123 11 is_stmt 0 view .LVU360
 1167 0018 D0F8B432 		ldr	r3, [r0, #692]
 123:/home/smartth/STM32Cube/Repository/STM32Cube_FW_F1_V1.8.4//Middlewares/ST/STM32_USB_Device_Library/Core/Src/usbd_ctlreq.c ****       break;
 1168              		.loc 1 123 19 view .LVU361
 1169 001c 9B68     		ldr	r3, [r3, #8]
 123:/home/smartth/STM32Cube/Repository/STM32Cube_FW_F1_V1.8.4//Middlewares/ST/STM32_USB_Device_Library/Core/Src/usbd_ctlreq.c ****       break;
 1170              		.loc 1 123 7 view .LVU362
 1171 001e 9847     		blx	r3
 1172              	.LVL136:
 124:/home/smartth/STM32Cube/Repository/STM32Cube_FW_F1_V1.8.4//Middlewares/ST/STM32_USB_Device_Library/Core/Src/usbd_ctlreq.c **** 
 1173              		.loc 1 124 7 is_stmt 1 view .LVU363
 1174              	.L97:
 168:/home/smartth/STM32Cube/Repository/STM32Cube_FW_F1_V1.8.4//Middlewares/ST/STM32_USB_Device_Library/Core/Src/usbd_ctlreq.c **** }
 1175              		.loc 1 168 3 view .LVU364
 169:/home/smartth/STM32Cube/Repository/STM32Cube_FW_F1_V1.8.4//Middlewares/ST/STM32_USB_Device_Library/Core/Src/usbd_ctlreq.c **** 
 1176              		.loc 1 169 1 is_stmt 0 view .LVU365
 1177 0020 0020     		movs	r0, #0
 1178 0022 08BD     		pop	{r3, pc}
 1179              	.LVL137:
 1180              	.L109:
 127:/home/smartth/STM32Cube/Repository/STM32Cube_FW_F1_V1.8.4//Middlewares/ST/STM32_USB_Device_Library/Core/Src/usbd_ctlreq.c ****       {
 1181              		.loc 1 127 7 is_stmt 1 view .LVU366
 127:/home/smartth/STM32Cube/Repository/STM32Cube_FW_F1_V1.8.4//Middlewares/ST/STM32_USB_Device_Library/Core/Src/usbd_ctlreq.c ****       {
 1182              		.loc 1 127 18 is_stmt 0 view .LVU367
 1183 0024 4B78     		ldrb	r3, [r1, #1]	@ zero_extendqisi2
 1184 0026 092B     		cmp	r3, #9
 1185 0028 1BD8     		bhi	.L98
 1186 002a DFE803F0 		tbb	[pc, r3]
 1187              	.L100:
 1188 002e 11       		.byte	(.L106-.L100)/2
 1189 002f 17       		.byte	(.L105-.L100)/2
 1190 0030 1A       		.byte	(.L98-.L100)/2
 1191 0031 14       		.byte	(.L104-.L100)/2
 1192 0032 1A       		.byte	(.L98-.L100)/2
 1193 0033 08       		.byte	(.L103-.L100)/2
 1194 0034 05       		.byte	(.L102-.L100)/2
 1195 0035 1A       		.byte	(.L98-.L100)/2
 1196 0036 0E       		.byte	(.L101-.L100)/2
 1197 0037 0B       		.byte	(.L99-.L100)/2
 1198              		.p2align 1
 1199              	.L102:
 130:/home/smartth/STM32Cube/Repository/STM32Cube_FW_F1_V1.8.4//Middlewares/ST/STM32_USB_Device_Library/Core/Src/usbd_ctlreq.c ****           break;
 1200              		.loc 1 130 11 is_stmt 1 view .LVU368
 1201 0038 FFF7FEFF 		bl	USBD_GetDescriptor
 1202              	.LVL138:
 131:/home/smartth/STM32Cube/Repository/STM32Cube_FW_F1_V1.8.4//Middlewares/ST/STM32_USB_Device_Library/Core/Src/usbd_ctlreq.c **** 
 1203              		.loc 1 131 11 view .LVU369
 1204 003c F0E7     		b	.L97
 1205              	.LVL139:
 1206              	.L103:
 134:/home/smartth/STM32Cube/Repository/STM32Cube_FW_F1_V1.8.4//Middlewares/ST/STM32_USB_Device_Library/Core/Src/usbd_ctlreq.c ****           break;
 1207              		.loc 1 134 11 view .LVU370
 1208 003e FFF7FEFF 		bl	USBD_SetAddress
 1209              	.LVL140:
 135:/home/smartth/STM32Cube/Repository/STM32Cube_FW_F1_V1.8.4//Middlewares/ST/STM32_USB_Device_Library/Core/Src/usbd_ctlreq.c **** 
ARM GAS  /tmp/ccVKyOYc.s 			page 44


 1210              		.loc 1 135 11 view .LVU371
 1211 0042 EDE7     		b	.L97
 1212              	.LVL141:
 1213              	.L99:
 138:/home/smartth/STM32Cube/Repository/STM32Cube_FW_F1_V1.8.4//Middlewares/ST/STM32_USB_Device_Library/Core/Src/usbd_ctlreq.c ****           break;
 1214              		.loc 1 138 11 view .LVU372
 1215 0044 FFF7FEFF 		bl	USBD_SetConfig
 1216              	.LVL142:
 139:/home/smartth/STM32Cube/Repository/STM32Cube_FW_F1_V1.8.4//Middlewares/ST/STM32_USB_Device_Library/Core/Src/usbd_ctlreq.c **** 
 1217              		.loc 1 139 11 view .LVU373
 1218 0048 EAE7     		b	.L97
 1219              	.LVL143:
 1220              	.L101:
 142:/home/smartth/STM32Cube/Repository/STM32Cube_FW_F1_V1.8.4//Middlewares/ST/STM32_USB_Device_Library/Core/Src/usbd_ctlreq.c ****           break;
 1221              		.loc 1 142 11 view .LVU374
 1222 004a FFF7FEFF 		bl	USBD_GetConfig
 1223              	.LVL144:
 143:/home/smartth/STM32Cube/Repository/STM32Cube_FW_F1_V1.8.4//Middlewares/ST/STM32_USB_Device_Library/Core/Src/usbd_ctlreq.c **** 
 1224              		.loc 1 143 11 view .LVU375
 1225 004e E7E7     		b	.L97
 1226              	.LVL145:
 1227              	.L106:
 146:/home/smartth/STM32Cube/Repository/STM32Cube_FW_F1_V1.8.4//Middlewares/ST/STM32_USB_Device_Library/Core/Src/usbd_ctlreq.c ****           break;
 1228              		.loc 1 146 11 view .LVU376
 1229 0050 FFF7FEFF 		bl	USBD_GetStatus
 1230              	.LVL146:
 147:/home/smartth/STM32Cube/Repository/STM32Cube_FW_F1_V1.8.4//Middlewares/ST/STM32_USB_Device_Library/Core/Src/usbd_ctlreq.c **** 
 1231              		.loc 1 147 11 view .LVU377
 1232 0054 E4E7     		b	.L97
 1233              	.LVL147:
 1234              	.L104:
 150:/home/smartth/STM32Cube/Repository/STM32Cube_FW_F1_V1.8.4//Middlewares/ST/STM32_USB_Device_Library/Core/Src/usbd_ctlreq.c ****           break;
 1235              		.loc 1 150 11 view .LVU378
 1236 0056 FFF7FEFF 		bl	USBD_SetFeature
 1237              	.LVL148:
 151:/home/smartth/STM32Cube/Repository/STM32Cube_FW_F1_V1.8.4//Middlewares/ST/STM32_USB_Device_Library/Core/Src/usbd_ctlreq.c **** 
 1238              		.loc 1 151 11 view .LVU379
 1239 005a E1E7     		b	.L97
 1240              	.LVL149:
 1241              	.L105:
 154:/home/smartth/STM32Cube/Repository/STM32Cube_FW_F1_V1.8.4//Middlewares/ST/STM32_USB_Device_Library/Core/Src/usbd_ctlreq.c ****           break;
 1242              		.loc 1 154 11 view .LVU380
 1243 005c FFF7FEFF 		bl	USBD_ClrFeature
 1244              	.LVL150:
 155:/home/smartth/STM32Cube/Repository/STM32Cube_FW_F1_V1.8.4//Middlewares/ST/STM32_USB_Device_Library/Core/Src/usbd_ctlreq.c **** 
 1245              		.loc 1 155 11 view .LVU381
 1246 0060 DEE7     		b	.L97
 1247              	.LVL151:
 1248              	.L98:
 158:/home/smartth/STM32Cube/Repository/STM32Cube_FW_F1_V1.8.4//Middlewares/ST/STM32_USB_Device_Library/Core/Src/usbd_ctlreq.c ****           break;
 1249              		.loc 1 158 11 view .LVU382
 1250 0062 FFF7FEFF 		bl	USBD_CtlError
 1251              	.LVL152:
 159:/home/smartth/STM32Cube/Repository/STM32Cube_FW_F1_V1.8.4//Middlewares/ST/STM32_USB_Device_Library/Core/Src/usbd_ctlreq.c ****       }
 1252              		.loc 1 159 11 view .LVU383
 1253 0066 DBE7     		b	.L97
 1254              		.cfi_endproc
ARM GAS  /tmp/ccVKyOYc.s 			page 45


 1255              	.LFE197:
 1257              		.section	.text.USBD_StdItfReq,"ax",%progbits
 1258              		.align	1
 1259              		.global	USBD_StdItfReq
 1260              		.syntax unified
 1261              		.thumb
 1262              		.thumb_func
 1263              		.fpu softvfp
 1265              	USBD_StdItfReq:
 1266              	.LVL153:
 1267              	.LFB198:
 180:/home/smartth/STM32Cube/Repository/STM32Cube_FW_F1_V1.8.4//Middlewares/ST/STM32_USB_Device_Library/Core/Src/usbd_ctlreq.c ****   USBD_StatusTypeDef ret = USBD_OK;
 1268              		.loc 1 180 1 view -0
 1269              		.cfi_startproc
 1270              		@ args = 0, pretend = 0, frame = 0
 1271              		@ frame_needed = 0, uses_anonymous_args = 0
 180:/home/smartth/STM32Cube/Repository/STM32Cube_FW_F1_V1.8.4//Middlewares/ST/STM32_USB_Device_Library/Core/Src/usbd_ctlreq.c ****   USBD_StatusTypeDef ret = USBD_OK;
 1272              		.loc 1 180 1 is_stmt 0 view .LVU385
 1273 0000 38B5     		push	{r3, r4, r5, lr}
 1274              	.LCFI12:
 1275              		.cfi_def_cfa_offset 16
 1276              		.cfi_offset 3, -16
 1277              		.cfi_offset 4, -12
 1278              		.cfi_offset 5, -8
 1279              		.cfi_offset 14, -4
 1280 0002 0546     		mov	r5, r0
 1281 0004 0C46     		mov	r4, r1
 181:/home/smartth/STM32Cube/Repository/STM32Cube_FW_F1_V1.8.4//Middlewares/ST/STM32_USB_Device_Library/Core/Src/usbd_ctlreq.c **** 
 1282              		.loc 1 181 3 is_stmt 1 view .LVU386
 1283              	.LVL154:
 183:/home/smartth/STM32Cube/Repository/STM32Cube_FW_F1_V1.8.4//Middlewares/ST/STM32_USB_Device_Library/Core/Src/usbd_ctlreq.c ****   {
 1284              		.loc 1 183 3 view .LVU387
 183:/home/smartth/STM32Cube/Repository/STM32Cube_FW_F1_V1.8.4//Middlewares/ST/STM32_USB_Device_Library/Core/Src/usbd_ctlreq.c ****   {
 1285              		.loc 1 183 14 is_stmt 0 view .LVU388
 1286 0006 0B78     		ldrb	r3, [r1]	@ zero_extendqisi2
 1287 0008 03F06003 		and	r3, r3, #96
 183:/home/smartth/STM32Cube/Repository/STM32Cube_FW_F1_V1.8.4//Middlewares/ST/STM32_USB_Device_Library/Core/Src/usbd_ctlreq.c ****   {
 1288              		.loc 1 183 3 view .LVU389
 1289 000c 202B     		cmp	r3, #32
 1290 000e 06D0     		beq	.L111
 1291 0010 402B     		cmp	r3, #64
 1292 0012 04D0     		beq	.L111
 1293 0014 1BB1     		cbz	r3, .L111
 216:/home/smartth/STM32Cube/Repository/STM32Cube_FW_F1_V1.8.4//Middlewares/ST/STM32_USB_Device_Library/Core/Src/usbd_ctlreq.c ****       break;
 1294              		.loc 1 216 7 is_stmt 1 view .LVU390
 1295 0016 FFF7FEFF 		bl	USBD_CtlError
 1296              	.LVL155:
 217:/home/smartth/STM32Cube/Repository/STM32Cube_FW_F1_V1.8.4//Middlewares/ST/STM32_USB_Device_Library/Core/Src/usbd_ctlreq.c ****   }
 1297              		.loc 1 217 7 view .LVU391
 1298              	.L115:
 220:/home/smartth/STM32Cube/Repository/STM32Cube_FW_F1_V1.8.4//Middlewares/ST/STM32_USB_Device_Library/Core/Src/usbd_ctlreq.c **** }
 1299              		.loc 1 220 3 view .LVU392
 221:/home/smartth/STM32Cube/Repository/STM32Cube_FW_F1_V1.8.4//Middlewares/ST/STM32_USB_Device_Library/Core/Src/usbd_ctlreq.c **** 
 1300              		.loc 1 221 1 is_stmt 0 view .LVU393
 1301 001a 0020     		movs	r0, #0
 1302 001c 38BD     		pop	{r3, r4, r5, pc}
 1303              	.LVL156:
ARM GAS  /tmp/ccVKyOYc.s 			page 46


 1304              	.L111:
 188:/home/smartth/STM32Cube/Repository/STM32Cube_FW_F1_V1.8.4//Middlewares/ST/STM32_USB_Device_Library/Core/Src/usbd_ctlreq.c ****       {
 1305              		.loc 1 188 7 is_stmt 1 view .LVU394
 188:/home/smartth/STM32Cube/Repository/STM32Cube_FW_F1_V1.8.4//Middlewares/ST/STM32_USB_Device_Library/Core/Src/usbd_ctlreq.c ****       {
 1306              		.loc 1 188 19 is_stmt 0 view .LVU395
 1307 001e 95F89C32 		ldrb	r3, [r5, #668]	@ zero_extendqisi2
 1308 0022 013B     		subs	r3, r3, #1
 1309 0024 022B     		cmp	r3, #2
 1310 0026 16D8     		bhi	.L113
 194:/home/smartth/STM32Cube/Repository/STM32Cube_FW_F1_V1.8.4//Middlewares/ST/STM32_USB_Device_Library/Core/Src/usbd_ctlreq.c ****           {
 1311              		.loc 1 194 11 is_stmt 1 view .LVU396
 194:/home/smartth/STM32Cube/Repository/STM32Cube_FW_F1_V1.8.4//Middlewares/ST/STM32_USB_Device_Library/Core/Src/usbd_ctlreq.c ****           {
 1312              		.loc 1 194 15 is_stmt 0 view .LVU397
 1313 0028 2379     		ldrb	r3, [r4, #4]	@ zero_extendqisi2
 194:/home/smartth/STM32Cube/Repository/STM32Cube_FW_F1_V1.8.4//Middlewares/ST/STM32_USB_Device_Library/Core/Src/usbd_ctlreq.c ****           {
 1314              		.loc 1 194 14 view .LVU398
 1315 002a 012B     		cmp	r3, #1
 1316 002c 0ED8     		bhi	.L114
 196:/home/smartth/STM32Cube/Repository/STM32Cube_FW_F1_V1.8.4//Middlewares/ST/STM32_USB_Device_Library/Core/Src/usbd_ctlreq.c **** 
 1317              		.loc 1 196 13 is_stmt 1 view .LVU399
 196:/home/smartth/STM32Cube/Repository/STM32Cube_FW_F1_V1.8.4//Middlewares/ST/STM32_USB_Device_Library/Core/Src/usbd_ctlreq.c **** 
 1318              		.loc 1 196 43 is_stmt 0 view .LVU400
 1319 002e D5F8B432 		ldr	r3, [r5, #692]
 196:/home/smartth/STM32Cube/Repository/STM32Cube_FW_F1_V1.8.4//Middlewares/ST/STM32_USB_Device_Library/Core/Src/usbd_ctlreq.c **** 
 1320              		.loc 1 196 51 view .LVU401
 1321 0032 9B68     		ldr	r3, [r3, #8]
 196:/home/smartth/STM32Cube/Repository/STM32Cube_FW_F1_V1.8.4//Middlewares/ST/STM32_USB_Device_Library/Core/Src/usbd_ctlreq.c **** 
 1322              		.loc 1 196 39 view .LVU402
 1323 0034 2146     		mov	r1, r4
 1324              	.LVL157:
 196:/home/smartth/STM32Cube/Repository/STM32Cube_FW_F1_V1.8.4//Middlewares/ST/STM32_USB_Device_Library/Core/Src/usbd_ctlreq.c **** 
 1325              		.loc 1 196 39 view .LVU403
 1326 0036 2846     		mov	r0, r5
 1327              	.LVL158:
 196:/home/smartth/STM32Cube/Repository/STM32Cube_FW_F1_V1.8.4//Middlewares/ST/STM32_USB_Device_Library/Core/Src/usbd_ctlreq.c **** 
 1328              		.loc 1 196 39 view .LVU404
 1329 0038 9847     		blx	r3
 1330              	.LVL159:
 198:/home/smartth/STM32Cube/Repository/STM32Cube_FW_F1_V1.8.4//Middlewares/ST/STM32_USB_Device_Library/Core/Src/usbd_ctlreq.c ****             {
 1331              		.loc 1 198 13 is_stmt 1 view .LVU405
 198:/home/smartth/STM32Cube/Repository/STM32Cube_FW_F1_V1.8.4//Middlewares/ST/STM32_USB_Device_Library/Core/Src/usbd_ctlreq.c ****             {
 1332              		.loc 1 198 21 is_stmt 0 view .LVU406
 1333 003a E388     		ldrh	r3, [r4, #6]
 198:/home/smartth/STM32Cube/Repository/STM32Cube_FW_F1_V1.8.4//Middlewares/ST/STM32_USB_Device_Library/Core/Src/usbd_ctlreq.c ****             {
 1334              		.loc 1 198 16 view .LVU407
 1335 003c 002B     		cmp	r3, #0
 1336 003e ECD1     		bne	.L115
 198:/home/smartth/STM32Cube/Repository/STM32Cube_FW_F1_V1.8.4//Middlewares/ST/STM32_USB_Device_Library/Core/Src/usbd_ctlreq.c ****             {
 1337              		.loc 1 198 38 discriminator 1 view .LVU408
 1338 0040 0028     		cmp	r0, #0
 1339 0042 EAD1     		bne	.L115
 200:/home/smartth/STM32Cube/Repository/STM32Cube_FW_F1_V1.8.4//Middlewares/ST/STM32_USB_Device_Library/Core/Src/usbd_ctlreq.c ****             }
 1340              		.loc 1 200 15 is_stmt 1 view .LVU409
 1341 0044 2846     		mov	r0, r5
 1342              	.LVL160:
 200:/home/smartth/STM32Cube/Repository/STM32Cube_FW_F1_V1.8.4//Middlewares/ST/STM32_USB_Device_Library/Core/Src/usbd_ctlreq.c ****             }
 1343              		.loc 1 200 15 is_stmt 0 view .LVU410
ARM GAS  /tmp/ccVKyOYc.s 			page 47


 1344 0046 FFF7FEFF 		bl	USBD_CtlSendStatus
 1345              	.LVL161:
 1346 004a E6E7     		b	.L115
 1347              	.LVL162:
 1348              	.L114:
 205:/home/smartth/STM32Cube/Repository/STM32Cube_FW_F1_V1.8.4//Middlewares/ST/STM32_USB_Device_Library/Core/Src/usbd_ctlreq.c ****           }
 1349              		.loc 1 205 13 is_stmt 1 view .LVU411
 1350 004c 2146     		mov	r1, r4
 1351              	.LVL163:
 205:/home/smartth/STM32Cube/Repository/STM32Cube_FW_F1_V1.8.4//Middlewares/ST/STM32_USB_Device_Library/Core/Src/usbd_ctlreq.c ****           }
 1352              		.loc 1 205 13 is_stmt 0 view .LVU412
 1353 004e 2846     		mov	r0, r5
 1354              	.LVL164:
 205:/home/smartth/STM32Cube/Repository/STM32Cube_FW_F1_V1.8.4//Middlewares/ST/STM32_USB_Device_Library/Core/Src/usbd_ctlreq.c ****           }
 1355              		.loc 1 205 13 view .LVU413
 1356 0050 FFF7FEFF 		bl	USBD_CtlError
 1357              	.LVL165:
 1358 0054 E1E7     		b	.L115
 1359              	.LVL166:
 1360              	.L113:
 210:/home/smartth/STM32Cube/Repository/STM32Cube_FW_F1_V1.8.4//Middlewares/ST/STM32_USB_Device_Library/Core/Src/usbd_ctlreq.c ****           break;
 1361              		.loc 1 210 11 is_stmt 1 view .LVU414
 1362 0056 2146     		mov	r1, r4
 1363              	.LVL167:
 210:/home/smartth/STM32Cube/Repository/STM32Cube_FW_F1_V1.8.4//Middlewares/ST/STM32_USB_Device_Library/Core/Src/usbd_ctlreq.c ****           break;
 1364              		.loc 1 210 11 is_stmt 0 view .LVU415
 1365 0058 2846     		mov	r0, r5
 1366              	.LVL168:
 210:/home/smartth/STM32Cube/Repository/STM32Cube_FW_F1_V1.8.4//Middlewares/ST/STM32_USB_Device_Library/Core/Src/usbd_ctlreq.c ****           break;
 1367              		.loc 1 210 11 view .LVU416
 1368 005a FFF7FEFF 		bl	USBD_CtlError
 1369              	.LVL169:
 211:/home/smartth/STM32Cube/Repository/STM32Cube_FW_F1_V1.8.4//Middlewares/ST/STM32_USB_Device_Library/Core/Src/usbd_ctlreq.c ****       }
 1370              		.loc 1 211 11 is_stmt 1 view .LVU417
 1371 005e DCE7     		b	.L115
 1372              		.cfi_endproc
 1373              	.LFE198:
 1375              		.section	.text.USBD_StdEPReq,"ax",%progbits
 1376              		.align	1
 1377              		.global	USBD_StdEPReq
 1378              		.syntax unified
 1379              		.thumb
 1380              		.thumb_func
 1381              		.fpu softvfp
 1383              	USBD_StdEPReq:
 1384              	.LVL170:
 1385              	.LFB199:
 232:/home/smartth/STM32Cube/Repository/STM32Cube_FW_F1_V1.8.4//Middlewares/ST/STM32_USB_Device_Library/Core/Src/usbd_ctlreq.c ****   USBD_EndpointTypeDef *pep;
 1386              		.loc 1 232 1 view -0
 1387              		.cfi_startproc
 1388              		@ args = 0, pretend = 0, frame = 0
 1389              		@ frame_needed = 0, uses_anonymous_args = 0
 232:/home/smartth/STM32Cube/Repository/STM32Cube_FW_F1_V1.8.4//Middlewares/ST/STM32_USB_Device_Library/Core/Src/usbd_ctlreq.c ****   USBD_EndpointTypeDef *pep;
 1390              		.loc 1 232 1 is_stmt 0 view .LVU419
 1391 0000 70B5     		push	{r4, r5, r6, lr}
 1392              	.LCFI13:
 1393              		.cfi_def_cfa_offset 16
ARM GAS  /tmp/ccVKyOYc.s 			page 48


 1394              		.cfi_offset 4, -16
 1395              		.cfi_offset 5, -12
 1396              		.cfi_offset 6, -8
 1397              		.cfi_offset 14, -4
 1398 0002 0546     		mov	r5, r0
 233:/home/smartth/STM32Cube/Repository/STM32Cube_FW_F1_V1.8.4//Middlewares/ST/STM32_USB_Device_Library/Core/Src/usbd_ctlreq.c ****   uint8_t   ep_addr;
 1399              		.loc 1 233 3 is_stmt 1 view .LVU420
 234:/home/smartth/STM32Cube/Repository/STM32Cube_FW_F1_V1.8.4//Middlewares/ST/STM32_USB_Device_Library/Core/Src/usbd_ctlreq.c ****   USBD_StatusTypeDef ret = USBD_OK;
 1400              		.loc 1 234 3 view .LVU421
 235:/home/smartth/STM32Cube/Repository/STM32Cube_FW_F1_V1.8.4//Middlewares/ST/STM32_USB_Device_Library/Core/Src/usbd_ctlreq.c ****   ep_addr  = LOBYTE(req->wIndex);
 1401              		.loc 1 235 3 view .LVU422
 1402              	.LVL171:
 236:/home/smartth/STM32Cube/Repository/STM32Cube_FW_F1_V1.8.4//Middlewares/ST/STM32_USB_Device_Library/Core/Src/usbd_ctlreq.c **** 
 1403              		.loc 1 236 3 view .LVU423
 236:/home/smartth/STM32Cube/Repository/STM32Cube_FW_F1_V1.8.4//Middlewares/ST/STM32_USB_Device_Library/Core/Src/usbd_ctlreq.c **** 
 1404              		.loc 1 236 14 is_stmt 0 view .LVU424
 1405 0004 8B88     		ldrh	r3, [r1, #4]
 1406              	.LVL172:
 238:/home/smartth/STM32Cube/Repository/STM32Cube_FW_F1_V1.8.4//Middlewares/ST/STM32_USB_Device_Library/Core/Src/usbd_ctlreq.c ****   {
 1407              		.loc 1 238 3 is_stmt 1 view .LVU425
 238:/home/smartth/STM32Cube/Repository/STM32Cube_FW_F1_V1.8.4//Middlewares/ST/STM32_USB_Device_Library/Core/Src/usbd_ctlreq.c ****   {
 1408              		.loc 1 238 14 is_stmt 0 view .LVU426
 1409 0006 0C78     		ldrb	r4, [r1]	@ zero_extendqisi2
 1410 0008 04F06004 		and	r4, r4, #96
 238:/home/smartth/STM32Cube/Repository/STM32Cube_FW_F1_V1.8.4//Middlewares/ST/STM32_USB_Device_Library/Core/Src/usbd_ctlreq.c ****   {
 1411              		.loc 1 238 3 view .LVU427
 1412 000c 202C     		cmp	r4, #32
 1413 000e 07D0     		beq	.L118
 1414 0010 DAB2     		uxtb	r2, r3
 1415 0012 402C     		cmp	r4, #64
 1416 0014 04D0     		beq	.L118
 1417 0016 5CB1     		cbz	r4, .L157
 390:/home/smartth/STM32Cube/Repository/STM32Cube_FW_F1_V1.8.4//Middlewares/ST/STM32_USB_Device_Library/Core/Src/usbd_ctlreq.c ****       break;
 1418              		.loc 1 390 7 is_stmt 1 view .LVU428
 1419 0018 FFF7FEFF 		bl	USBD_CtlError
 1420              	.LVL173:
 391:/home/smartth/STM32Cube/Repository/STM32Cube_FW_F1_V1.8.4//Middlewares/ST/STM32_USB_Device_Library/Core/Src/usbd_ctlreq.c ****   }
 1421              		.loc 1 391 7 view .LVU429
 394:/home/smartth/STM32Cube/Repository/STM32Cube_FW_F1_V1.8.4//Middlewares/ST/STM32_USB_Device_Library/Core/Src/usbd_ctlreq.c **** }
 1422              		.loc 1 394 10 is_stmt 0 view .LVU430
 1423 001c 0024     		movs	r4, #0
 391:/home/smartth/STM32Cube/Repository/STM32Cube_FW_F1_V1.8.4//Middlewares/ST/STM32_USB_Device_Library/Core/Src/usbd_ctlreq.c ****   }
 1424              		.loc 1 391 7 view .LVU431
 1425 001e 05E0     		b	.L121
 1426              	.LVL174:
 1427              	.L118:
 242:/home/smartth/STM32Cube/Repository/STM32Cube_FW_F1_V1.8.4//Middlewares/ST/STM32_USB_Device_Library/Core/Src/usbd_ctlreq.c ****       break;
 1428              		.loc 1 242 7 is_stmt 1 view .LVU432
 242:/home/smartth/STM32Cube/Repository/STM32Cube_FW_F1_V1.8.4//Middlewares/ST/STM32_USB_Device_Library/Core/Src/usbd_ctlreq.c ****       break;
 1429              		.loc 1 242 11 is_stmt 0 view .LVU433
 1430 0020 D5F8B432 		ldr	r3, [r5, #692]
 1431              	.LVL175:
 242:/home/smartth/STM32Cube/Repository/STM32Cube_FW_F1_V1.8.4//Middlewares/ST/STM32_USB_Device_Library/Core/Src/usbd_ctlreq.c ****       break;
 1432              		.loc 1 242 19 view .LVU434
 1433 0024 9B68     		ldr	r3, [r3, #8]
 242:/home/smartth/STM32Cube/Repository/STM32Cube_FW_F1_V1.8.4//Middlewares/ST/STM32_USB_Device_Library/Core/Src/usbd_ctlreq.c ****       break;
 1434              		.loc 1 242 7 view .LVU435
ARM GAS  /tmp/ccVKyOYc.s 			page 49


 1435 0026 2846     		mov	r0, r5
 1436              	.LVL176:
 242:/home/smartth/STM32Cube/Repository/STM32Cube_FW_F1_V1.8.4//Middlewares/ST/STM32_USB_Device_Library/Core/Src/usbd_ctlreq.c ****       break;
 1437              		.loc 1 242 7 view .LVU436
 1438 0028 9847     		blx	r3
 1439              	.LVL177:
 243:/home/smartth/STM32Cube/Repository/STM32Cube_FW_F1_V1.8.4//Middlewares/ST/STM32_USB_Device_Library/Core/Src/usbd_ctlreq.c **** 
 1440              		.loc 1 243 7 is_stmt 1 view .LVU437
 394:/home/smartth/STM32Cube/Repository/STM32Cube_FW_F1_V1.8.4//Middlewares/ST/STM32_USB_Device_Library/Core/Src/usbd_ctlreq.c **** }
 1441              		.loc 1 394 10 is_stmt 0 view .LVU438
 1442 002a 0024     		movs	r4, #0
 1443              	.LVL178:
 1444              	.L121:
 395:/home/smartth/STM32Cube/Repository/STM32Cube_FW_F1_V1.8.4//Middlewares/ST/STM32_USB_Device_Library/Core/Src/usbd_ctlreq.c **** 
 1445              		.loc 1 395 1 view .LVU439
 1446 002c 2046     		mov	r0, r4
 1447 002e 70BD     		pop	{r4, r5, r6, pc}
 1448              	.LVL179:
 1449              	.L157:
 247:/home/smartth/STM32Cube/Repository/STM32Cube_FW_F1_V1.8.4//Middlewares/ST/STM32_USB_Device_Library/Core/Src/usbd_ctlreq.c ****       {
 1450              		.loc 1 247 7 is_stmt 1 view .LVU440
 247:/home/smartth/STM32Cube/Repository/STM32Cube_FW_F1_V1.8.4//Middlewares/ST/STM32_USB_Device_Library/Core/Src/usbd_ctlreq.c ****       {
 1451              		.loc 1 247 10 is_stmt 0 view .LVU441
 1452 0030 202C     		cmp	r4, #32
 1453 0032 09D0     		beq	.L158
 254:/home/smartth/STM32Cube/Repository/STM32Cube_FW_F1_V1.8.4//Middlewares/ST/STM32_USB_Device_Library/Core/Src/usbd_ctlreq.c ****       {
 1454              		.loc 1 254 7 is_stmt 1 view .LVU442
 254:/home/smartth/STM32Cube/Repository/STM32Cube_FW_F1_V1.8.4//Middlewares/ST/STM32_USB_Device_Library/Core/Src/usbd_ctlreq.c ****       {
 1455              		.loc 1 254 18 is_stmt 0 view .LVU443
 1456 0034 4E78     		ldrb	r6, [r1, #1]	@ zero_extendqisi2
 1457 0036 012E     		cmp	r6, #1
 1458 0038 33D0     		beq	.L123
 1459 003a 032E     		cmp	r6, #3
 1460 003c 0AD0     		beq	.L124
 1461 003e 002E     		cmp	r6, #0
 1462 0040 55D0     		beq	.L159
 384:/home/smartth/STM32Cube/Repository/STM32Cube_FW_F1_V1.8.4//Middlewares/ST/STM32_USB_Device_Library/Core/Src/usbd_ctlreq.c ****           break;
 1463              		.loc 1 384 11 is_stmt 1 view .LVU444
 1464 0042 FFF7FEFF 		bl	USBD_CtlError
 1465              	.LVL180:
 385:/home/smartth/STM32Cube/Repository/STM32Cube_FW_F1_V1.8.4//Middlewares/ST/STM32_USB_Device_Library/Core/Src/usbd_ctlreq.c ****       }
 1466              		.loc 1 385 11 view .LVU445
 1467 0046 F1E7     		b	.L121
 1468              	.LVL181:
 1469              	.L158:
 249:/home/smartth/STM32Cube/Repository/STM32Cube_FW_F1_V1.8.4//Middlewares/ST/STM32_USB_Device_Library/Core/Src/usbd_ctlreq.c **** 
 1470              		.loc 1 249 9 view .LVU446
 249:/home/smartth/STM32Cube/Repository/STM32Cube_FW_F1_V1.8.4//Middlewares/ST/STM32_USB_Device_Library/Core/Src/usbd_ctlreq.c **** 
 1471              		.loc 1 249 39 is_stmt 0 view .LVU447
 1472 0048 D0F8B432 		ldr	r3, [r0, #692]
 1473              	.LVL182:
 249:/home/smartth/STM32Cube/Repository/STM32Cube_FW_F1_V1.8.4//Middlewares/ST/STM32_USB_Device_Library/Core/Src/usbd_ctlreq.c **** 
 1474              		.loc 1 249 47 view .LVU448
 1475 004c 9B68     		ldr	r3, [r3, #8]
 249:/home/smartth/STM32Cube/Repository/STM32Cube_FW_F1_V1.8.4//Middlewares/ST/STM32_USB_Device_Library/Core/Src/usbd_ctlreq.c **** 
 1476              		.loc 1 249 35 view .LVU449
 1477 004e 9847     		blx	r3
ARM GAS  /tmp/ccVKyOYc.s 			page 50


 1478              	.LVL183:
 249:/home/smartth/STM32Cube/Repository/STM32Cube_FW_F1_V1.8.4//Middlewares/ST/STM32_USB_Device_Library/Core/Src/usbd_ctlreq.c **** 
 1479              		.loc 1 249 35 view .LVU450
 1480 0050 0446     		mov	r4, r0
 1481              	.LVL184:
 251:/home/smartth/STM32Cube/Repository/STM32Cube_FW_F1_V1.8.4//Middlewares/ST/STM32_USB_Device_Library/Core/Src/usbd_ctlreq.c ****       }
 1482              		.loc 1 251 9 is_stmt 1 view .LVU451
 251:/home/smartth/STM32Cube/Repository/STM32Cube_FW_F1_V1.8.4//Middlewares/ST/STM32_USB_Device_Library/Core/Src/usbd_ctlreq.c ****       }
 1483              		.loc 1 251 16 is_stmt 0 view .LVU452
 1484 0052 EBE7     		b	.L121
 1485              	.LVL185:
 1486              	.L124:
 257:/home/smartth/STM32Cube/Repository/STM32Cube_FW_F1_V1.8.4//Middlewares/ST/STM32_USB_Device_Library/Core/Src/usbd_ctlreq.c ****           {
 1487              		.loc 1 257 11 is_stmt 1 discriminator 3 view .LVU453
 257:/home/smartth/STM32Cube/Repository/STM32Cube_FW_F1_V1.8.4//Middlewares/ST/STM32_USB_Device_Library/Core/Src/usbd_ctlreq.c ****           {
 1488              		.loc 1 257 23 is_stmt 0 discriminator 3 view .LVU454
 1489 0054 90F89C32 		ldrb	r3, [r0, #668]	@ zero_extendqisi2
 1490              	.LVL186:
 257:/home/smartth/STM32Cube/Repository/STM32Cube_FW_F1_V1.8.4//Middlewares/ST/STM32_USB_Device_Library/Core/Src/usbd_ctlreq.c ****           {
 1491              		.loc 1 257 23 discriminator 3 view .LVU455
 1492 0058 022B     		cmp	r3, #2
 1493 005a 04D0     		beq	.L127
 1494 005c 032B     		cmp	r3, #3
 1495 005e 11D0     		beq	.L128
 285:/home/smartth/STM32Cube/Repository/STM32Cube_FW_F1_V1.8.4//Middlewares/ST/STM32_USB_Device_Library/Core/Src/usbd_ctlreq.c ****               break;
 1496              		.loc 1 285 15 is_stmt 1 view .LVU456
 1497 0060 FFF7FEFF 		bl	USBD_CtlError
 1498              	.LVL187:
 286:/home/smartth/STM32Cube/Repository/STM32Cube_FW_F1_V1.8.4//Middlewares/ST/STM32_USB_Device_Library/Core/Src/usbd_ctlreq.c ****           }
 1499              		.loc 1 286 15 view .LVU457
 1500 0064 E2E7     		b	.L121
 1501              	.LVL188:
 1502              	.L127:
 260:/home/smartth/STM32Cube/Repository/STM32Cube_FW_F1_V1.8.4//Middlewares/ST/STM32_USB_Device_Library/Core/Src/usbd_ctlreq.c ****               {
 1503              		.loc 1 260 15 view .LVU458
 260:/home/smartth/STM32Cube/Repository/STM32Cube_FW_F1_V1.8.4//Middlewares/ST/STM32_USB_Device_Library/Core/Src/usbd_ctlreq.c ****               {
 1504              		.loc 1 260 18 is_stmt 0 view .LVU459
 1505 0066 0AB1     		cbz	r2, .L130
 260:/home/smartth/STM32Cube/Repository/STM32Cube_FW_F1_V1.8.4//Middlewares/ST/STM32_USB_Device_Library/Core/Src/usbd_ctlreq.c ****               {
 1506              		.loc 1 260 38 discriminator 1 view .LVU460
 1507 0068 802A     		cmp	r2, #128
 1508 006a 03D1     		bne	.L160
 1509              	.L130:
 267:/home/smartth/STM32Cube/Repository/STM32Cube_FW_F1_V1.8.4//Middlewares/ST/STM32_USB_Device_Library/Core/Src/usbd_ctlreq.c ****               }
 1510              		.loc 1 267 17 is_stmt 1 view .LVU461
 1511 006c 2846     		mov	r0, r5
 1512              	.LVL189:
 267:/home/smartth/STM32Cube/Repository/STM32Cube_FW_F1_V1.8.4//Middlewares/ST/STM32_USB_Device_Library/Core/Src/usbd_ctlreq.c ****               }
 1513              		.loc 1 267 17 is_stmt 0 view .LVU462
 1514 006e FFF7FEFF 		bl	USBD_CtlError
 1515              	.LVL190:
 267:/home/smartth/STM32Cube/Repository/STM32Cube_FW_F1_V1.8.4//Middlewares/ST/STM32_USB_Device_Library/Core/Src/usbd_ctlreq.c ****               }
 1516              		.loc 1 267 17 view .LVU463
 1517 0072 DBE7     		b	.L121
 1518              	.LVL191:
 1519              	.L160:
 262:/home/smartth/STM32Cube/Repository/STM32Cube_FW_F1_V1.8.4//Middlewares/ST/STM32_USB_Device_Library/Core/Src/usbd_ctlreq.c ****                 USBD_LL_StallEP(pdev, 0x80U);
ARM GAS  /tmp/ccVKyOYc.s 			page 51


 1520              		.loc 1 262 17 is_stmt 1 view .LVU464
 1521 0074 1146     		mov	r1, r2
 1522              	.LVL192:
 262:/home/smartth/STM32Cube/Repository/STM32Cube_FW_F1_V1.8.4//Middlewares/ST/STM32_USB_Device_Library/Core/Src/usbd_ctlreq.c ****                 USBD_LL_StallEP(pdev, 0x80U);
 1523              		.loc 1 262 17 is_stmt 0 view .LVU465
 1524 0076 FFF7FEFF 		bl	USBD_LL_StallEP
 1525              	.LVL193:
 263:/home/smartth/STM32Cube/Repository/STM32Cube_FW_F1_V1.8.4//Middlewares/ST/STM32_USB_Device_Library/Core/Src/usbd_ctlreq.c ****               }
 1526              		.loc 1 263 17 is_stmt 1 view .LVU466
 1527 007a 8021     		movs	r1, #128
 1528 007c 2846     		mov	r0, r5
 1529 007e FFF7FEFF 		bl	USBD_LL_StallEP
 1530              	.LVL194:
 1531 0082 D3E7     		b	.L121
 1532              	.LVL195:
 1533              	.L128:
 272:/home/smartth/STM32Cube/Repository/STM32Cube_FW_F1_V1.8.4//Middlewares/ST/STM32_USB_Device_Library/Core/Src/usbd_ctlreq.c ****               {
 1534              		.loc 1 272 15 view .LVU467
 272:/home/smartth/STM32Cube/Repository/STM32Cube_FW_F1_V1.8.4//Middlewares/ST/STM32_USB_Device_Library/Core/Src/usbd_ctlreq.c ****               {
 1535              		.loc 1 272 22 is_stmt 0 view .LVU468
 1536 0084 4B88     		ldrh	r3, [r1, #2]
 272:/home/smartth/STM32Cube/Repository/STM32Cube_FW_F1_V1.8.4//Middlewares/ST/STM32_USB_Device_Library/Core/Src/usbd_ctlreq.c ****               {
 1537              		.loc 1 272 18 view .LVU469
 1538 0086 23B9     		cbnz	r3, .L131
 274:/home/smartth/STM32Cube/Repository/STM32Cube_FW_F1_V1.8.4//Middlewares/ST/STM32_USB_Device_Library/Core/Src/usbd_ctlreq.c ****                     (ep_addr != 0x80U) && (req->wLength == 0x00U))
 1539              		.loc 1 274 17 is_stmt 1 view .LVU470
 274:/home/smartth/STM32Cube/Repository/STM32Cube_FW_F1_V1.8.4//Middlewares/ST/STM32_USB_Device_Library/Core/Src/usbd_ctlreq.c ****                     (ep_addr != 0x80U) && (req->wLength == 0x00U))
 1540              		.loc 1 274 20 is_stmt 0 view .LVU471
 1541 0088 1AB1     		cbz	r2, .L131
 274:/home/smartth/STM32Cube/Repository/STM32Cube_FW_F1_V1.8.4//Middlewares/ST/STM32_USB_Device_Library/Core/Src/usbd_ctlreq.c ****                     (ep_addr != 0x80U) && (req->wLength == 0x00U))
 1542              		.loc 1 274 40 discriminator 1 view .LVU472
 1543 008a 802A     		cmp	r2, #128
 1544 008c 01D0     		beq	.L131
 275:/home/smartth/STM32Cube/Repository/STM32Cube_FW_F1_V1.8.4//Middlewares/ST/STM32_USB_Device_Library/Core/Src/usbd_ctlreq.c ****                 {
 1545              		.loc 1 275 47 view .LVU473
 1546 008e CB88     		ldrh	r3, [r1, #6]
 275:/home/smartth/STM32Cube/Repository/STM32Cube_FW_F1_V1.8.4//Middlewares/ST/STM32_USB_Device_Library/Core/Src/usbd_ctlreq.c ****                 {
 1547              		.loc 1 275 40 view .LVU474
 1548 0090 1BB1     		cbz	r3, .L161
 1549              	.LVL196:
 1550              	.L131:
 280:/home/smartth/STM32Cube/Repository/STM32Cube_FW_F1_V1.8.4//Middlewares/ST/STM32_USB_Device_Library/Core/Src/usbd_ctlreq.c **** 
 1551              		.loc 1 280 15 is_stmt 1 view .LVU475
 1552 0092 2846     		mov	r0, r5
 1553 0094 FFF7FEFF 		bl	USBD_CtlSendStatus
 1554              	.LVL197:
 282:/home/smartth/STM32Cube/Repository/STM32Cube_FW_F1_V1.8.4//Middlewares/ST/STM32_USB_Device_Library/Core/Src/usbd_ctlreq.c **** 
 1555              		.loc 1 282 15 view .LVU476
 1556 0098 C8E7     		b	.L121
 1557              	.LVL198:
 1558              	.L161:
 277:/home/smartth/STM32Cube/Repository/STM32Cube_FW_F1_V1.8.4//Middlewares/ST/STM32_USB_Device_Library/Core/Src/usbd_ctlreq.c ****                 }
 1559              		.loc 1 277 19 view .LVU477
 1560 009a 1146     		mov	r1, r2
 1561              	.LVL199:
 277:/home/smartth/STM32Cube/Repository/STM32Cube_FW_F1_V1.8.4//Middlewares/ST/STM32_USB_Device_Library/Core/Src/usbd_ctlreq.c ****                 }
 1562              		.loc 1 277 19 is_stmt 0 view .LVU478
ARM GAS  /tmp/ccVKyOYc.s 			page 52


 1563 009c FFF7FEFF 		bl	USBD_LL_StallEP
 1564              	.LVL200:
 277:/home/smartth/STM32Cube/Repository/STM32Cube_FW_F1_V1.8.4//Middlewares/ST/STM32_USB_Device_Library/Core/Src/usbd_ctlreq.c ****                 }
 1565              		.loc 1 277 19 view .LVU479
 1566 00a0 F7E7     		b	.L131
 1567              	.LVL201:
 1568              	.L123:
 292:/home/smartth/STM32Cube/Repository/STM32Cube_FW_F1_V1.8.4//Middlewares/ST/STM32_USB_Device_Library/Core/Src/usbd_ctlreq.c ****           {
 1569              		.loc 1 292 11 is_stmt 1 discriminator 2 view .LVU480
 292:/home/smartth/STM32Cube/Repository/STM32Cube_FW_F1_V1.8.4//Middlewares/ST/STM32_USB_Device_Library/Core/Src/usbd_ctlreq.c ****           {
 1570              		.loc 1 292 23 is_stmt 0 discriminator 2 view .LVU481
 1571 00a2 90F89C32 		ldrb	r3, [r0, #668]	@ zero_extendqisi2
 1572              	.LVL202:
 292:/home/smartth/STM32Cube/Repository/STM32Cube_FW_F1_V1.8.4//Middlewares/ST/STM32_USB_Device_Library/Core/Src/usbd_ctlreq.c ****           {
 1573              		.loc 1 292 23 discriminator 2 view .LVU482
 1574 00a6 022B     		cmp	r3, #2
 1575 00a8 04D0     		beq	.L132
 1576 00aa 032B     		cmp	r3, #3
 1577 00ac 11D0     		beq	.L133
 318:/home/smartth/STM32Cube/Repository/STM32Cube_FW_F1_V1.8.4//Middlewares/ST/STM32_USB_Device_Library/Core/Src/usbd_ctlreq.c ****               break;
 1578              		.loc 1 318 15 is_stmt 1 view .LVU483
 1579 00ae FFF7FEFF 		bl	USBD_CtlError
 1580              	.LVL203:
 319:/home/smartth/STM32Cube/Repository/STM32Cube_FW_F1_V1.8.4//Middlewares/ST/STM32_USB_Device_Library/Core/Src/usbd_ctlreq.c ****           }
 1581              		.loc 1 319 15 view .LVU484
 1582 00b2 BBE7     		b	.L121
 1583              	.LVL204:
 1584              	.L132:
 295:/home/smartth/STM32Cube/Repository/STM32Cube_FW_F1_V1.8.4//Middlewares/ST/STM32_USB_Device_Library/Core/Src/usbd_ctlreq.c ****               {
 1585              		.loc 1 295 15 view .LVU485
 295:/home/smartth/STM32Cube/Repository/STM32Cube_FW_F1_V1.8.4//Middlewares/ST/STM32_USB_Device_Library/Core/Src/usbd_ctlreq.c ****               {
 1586              		.loc 1 295 18 is_stmt 0 view .LVU486
 1587 00b4 0AB1     		cbz	r2, .L135
 295:/home/smartth/STM32Cube/Repository/STM32Cube_FW_F1_V1.8.4//Middlewares/ST/STM32_USB_Device_Library/Core/Src/usbd_ctlreq.c ****               {
 1588              		.loc 1 295 38 discriminator 1 view .LVU487
 1589 00b6 802A     		cmp	r2, #128
 1590 00b8 03D1     		bne	.L162
 1591              	.L135:
 302:/home/smartth/STM32Cube/Repository/STM32Cube_FW_F1_V1.8.4//Middlewares/ST/STM32_USB_Device_Library/Core/Src/usbd_ctlreq.c ****               }
 1592              		.loc 1 302 17 is_stmt 1 view .LVU488
 1593 00ba 2846     		mov	r0, r5
 1594              	.LVL205:
 302:/home/smartth/STM32Cube/Repository/STM32Cube_FW_F1_V1.8.4//Middlewares/ST/STM32_USB_Device_Library/Core/Src/usbd_ctlreq.c ****               }
 1595              		.loc 1 302 17 is_stmt 0 view .LVU489
 1596 00bc FFF7FEFF 		bl	USBD_CtlError
 1597              	.LVL206:
 302:/home/smartth/STM32Cube/Repository/STM32Cube_FW_F1_V1.8.4//Middlewares/ST/STM32_USB_Device_Library/Core/Src/usbd_ctlreq.c ****               }
 1598              		.loc 1 302 17 view .LVU490
 1599 00c0 B4E7     		b	.L121
 1600              	.LVL207:
 1601              	.L162:
 297:/home/smartth/STM32Cube/Repository/STM32Cube_FW_F1_V1.8.4//Middlewares/ST/STM32_USB_Device_Library/Core/Src/usbd_ctlreq.c ****                 USBD_LL_StallEP(pdev, 0x80U);
 1602              		.loc 1 297 17 is_stmt 1 view .LVU491
 1603 00c2 1146     		mov	r1, r2
 1604              	.LVL208:
 297:/home/smartth/STM32Cube/Repository/STM32Cube_FW_F1_V1.8.4//Middlewares/ST/STM32_USB_Device_Library/Core/Src/usbd_ctlreq.c ****                 USBD_LL_StallEP(pdev, 0x80U);
 1605              		.loc 1 297 17 is_stmt 0 view .LVU492
ARM GAS  /tmp/ccVKyOYc.s 			page 53


 1606 00c4 FFF7FEFF 		bl	USBD_LL_StallEP
 1607              	.LVL209:
 298:/home/smartth/STM32Cube/Repository/STM32Cube_FW_F1_V1.8.4//Middlewares/ST/STM32_USB_Device_Library/Core/Src/usbd_ctlreq.c ****               }
 1608              		.loc 1 298 17 is_stmt 1 view .LVU493
 1609 00c8 8021     		movs	r1, #128
 1610 00ca 2846     		mov	r0, r5
 1611 00cc FFF7FEFF 		bl	USBD_LL_StallEP
 1612              	.LVL210:
 1613 00d0 ACE7     		b	.L121
 1614              	.LVL211:
 1615              	.L133:
 307:/home/smartth/STM32Cube/Repository/STM32Cube_FW_F1_V1.8.4//Middlewares/ST/STM32_USB_Device_Library/Core/Src/usbd_ctlreq.c ****               {
 1616              		.loc 1 307 15 view .LVU494
 307:/home/smartth/STM32Cube/Repository/STM32Cube_FW_F1_V1.8.4//Middlewares/ST/STM32_USB_Device_Library/Core/Src/usbd_ctlreq.c ****               {
 1617              		.loc 1 307 22 is_stmt 0 view .LVU495
 1618 00d2 4B88     		ldrh	r3, [r1, #2]
 307:/home/smartth/STM32Cube/Repository/STM32Cube_FW_F1_V1.8.4//Middlewares/ST/STM32_USB_Device_Library/Core/Src/usbd_ctlreq.c ****               {
 1619              		.loc 1 307 18 view .LVU496
 1620 00d4 002B     		cmp	r3, #0
 1621 00d6 A9D1     		bne	.L121
 309:/home/smartth/STM32Cube/Repository/STM32Cube_FW_F1_V1.8.4//Middlewares/ST/STM32_USB_Device_Library/Core/Src/usbd_ctlreq.c ****                 {
 1622              		.loc 1 309 17 is_stmt 1 view .LVU497
 309:/home/smartth/STM32Cube/Repository/STM32Cube_FW_F1_V1.8.4//Middlewares/ST/STM32_USB_Device_Library/Core/Src/usbd_ctlreq.c ****                 {
 1623              		.loc 1 309 20 is_stmt 0 view .LVU498
 1624 00d8 12F07F0F 		tst	r2, #127
 1625 00dc 03D1     		bne	.L163
 1626              	.LVL212:
 1627              	.L136:
 313:/home/smartth/STM32Cube/Repository/STM32Cube_FW_F1_V1.8.4//Middlewares/ST/STM32_USB_Device_Library/Core/Src/usbd_ctlreq.c ****               }
 1628              		.loc 1 313 17 is_stmt 1 view .LVU499
 1629 00de 2846     		mov	r0, r5
 1630 00e0 FFF7FEFF 		bl	USBD_CtlSendStatus
 1631              	.LVL213:
 1632 00e4 A2E7     		b	.L121
 1633              	.LVL214:
 1634              	.L163:
 311:/home/smartth/STM32Cube/Repository/STM32Cube_FW_F1_V1.8.4//Middlewares/ST/STM32_USB_Device_Library/Core/Src/usbd_ctlreq.c ****                 }
 1635              		.loc 1 311 19 view .LVU500
 1636 00e6 1146     		mov	r1, r2
 1637              	.LVL215:
 311:/home/smartth/STM32Cube/Repository/STM32Cube_FW_F1_V1.8.4//Middlewares/ST/STM32_USB_Device_Library/Core/Src/usbd_ctlreq.c ****                 }
 1638              		.loc 1 311 19 is_stmt 0 view .LVU501
 1639 00e8 FFF7FEFF 		bl	USBD_LL_ClearStallEP
 1640              	.LVL216:
 311:/home/smartth/STM32Cube/Repository/STM32Cube_FW_F1_V1.8.4//Middlewares/ST/STM32_USB_Device_Library/Core/Src/usbd_ctlreq.c ****                 }
 1641              		.loc 1 311 19 view .LVU502
 1642 00ec F7E7     		b	.L136
 1643              	.LVL217:
 1644              	.L159:
 324:/home/smartth/STM32Cube/Repository/STM32Cube_FW_F1_V1.8.4//Middlewares/ST/STM32_USB_Device_Library/Core/Src/usbd_ctlreq.c ****           {
 1645              		.loc 1 324 11 is_stmt 1 discriminator 1 view .LVU503
 324:/home/smartth/STM32Cube/Repository/STM32Cube_FW_F1_V1.8.4//Middlewares/ST/STM32_USB_Device_Library/Core/Src/usbd_ctlreq.c ****           {
 1646              		.loc 1 324 23 is_stmt 0 discriminator 1 view .LVU504
 1647 00ee 90F89C02 		ldrb	r0, [r0, #668]	@ zero_extendqisi2
 1648              	.LVL218:
 324:/home/smartth/STM32Cube/Repository/STM32Cube_FW_F1_V1.8.4//Middlewares/ST/STM32_USB_Device_Library/Core/Src/usbd_ctlreq.c ****           {
 1649              		.loc 1 324 23 discriminator 1 view .LVU505
ARM GAS  /tmp/ccVKyOYc.s 			page 54


 1650 00f2 0228     		cmp	r0, #2
 1651 00f4 06D0     		beq	.L137
 1652 00f6 0328     		cmp	r0, #3
 1653 00f8 29D0     		beq	.L138
 378:/home/smartth/STM32Cube/Repository/STM32Cube_FW_F1_V1.8.4//Middlewares/ST/STM32_USB_Device_Library/Core/Src/usbd_ctlreq.c ****               break;
 1654              		.loc 1 378 15 is_stmt 1 view .LVU506
 1655 00fa 2846     		mov	r0, r5
 1656 00fc FFF7FEFF 		bl	USBD_CtlError
 1657              	.LVL219:
 379:/home/smartth/STM32Cube/Repository/STM32Cube_FW_F1_V1.8.4//Middlewares/ST/STM32_USB_Device_Library/Core/Src/usbd_ctlreq.c ****           }
 1658              		.loc 1 379 15 view .LVU507
 394:/home/smartth/STM32Cube/Repository/STM32Cube_FW_F1_V1.8.4//Middlewares/ST/STM32_USB_Device_Library/Core/Src/usbd_ctlreq.c **** }
 1659              		.loc 1 394 10 is_stmt 0 view .LVU508
 1660 0100 3446     		mov	r4, r6
 379:/home/smartth/STM32Cube/Repository/STM32Cube_FW_F1_V1.8.4//Middlewares/ST/STM32_USB_Device_Library/Core/Src/usbd_ctlreq.c ****           }
 1661              		.loc 1 379 15 view .LVU509
 1662 0102 93E7     		b	.L121
 1663              	.LVL220:
 1664              	.L137:
 327:/home/smartth/STM32Cube/Repository/STM32Cube_FW_F1_V1.8.4//Middlewares/ST/STM32_USB_Device_Library/Core/Src/usbd_ctlreq.c ****               {
 1665              		.loc 1 327 15 is_stmt 1 view .LVU510
 327:/home/smartth/STM32Cube/Repository/STM32Cube_FW_F1_V1.8.4//Middlewares/ST/STM32_USB_Device_Library/Core/Src/usbd_ctlreq.c ****               {
 1666              		.loc 1 327 18 is_stmt 0 view .LVU511
 1667 0104 0AB1     		cbz	r2, .L140
 327:/home/smartth/STM32Cube/Repository/STM32Cube_FW_F1_V1.8.4//Middlewares/ST/STM32_USB_Device_Library/Core/Src/usbd_ctlreq.c ****               {
 1668              		.loc 1 327 38 discriminator 1 view .LVU512
 1669 0106 802A     		cmp	r2, #128
 1670 0108 13D1     		bne	.L164
 1671              	.L140:
 332:/home/smartth/STM32Cube/Repository/STM32Cube_FW_F1_V1.8.4//Middlewares/ST/STM32_USB_Device_Library/Core/Src/usbd_ctlreq.c ****                     &pdev->ep_out[ep_addr & 0x7FU];
 1672              		.loc 1 332 15 is_stmt 1 view .LVU513
 332:/home/smartth/STM32Cube/Repository/STM32Cube_FW_F1_V1.8.4//Middlewares/ST/STM32_USB_Device_Library/Core/Src/usbd_ctlreq.c ****                     &pdev->ep_out[ep_addr & 0x7FU];
 1673              		.loc 1 332 82 is_stmt 0 view .LVU514
 1674 010a 13F0800F 		tst	r3, #128
 1675 010e 15D1     		bne	.L165
 333:/home/smartth/STM32Cube/Repository/STM32Cube_FW_F1_V1.8.4//Middlewares/ST/STM32_USB_Device_Library/Core/Src/usbd_ctlreq.c **** 
 1676              		.loc 1 333 43 discriminator 2 view .LVU515
 1677 0110 02F07F02 		and	r2, r2, #127
 332:/home/smartth/STM32Cube/Repository/STM32Cube_FW_F1_V1.8.4//Middlewares/ST/STM32_USB_Device_Library/Core/Src/usbd_ctlreq.c ****                     &pdev->ep_out[ep_addr & 0x7FU];
 1678              		.loc 1 332 82 discriminator 2 view .LVU516
 1679 0114 02EB8202 		add	r2, r2, r2, lsl #2
 1680 0118 9100     		lsls	r1, r2, #2
 1681              	.LVL221:
 332:/home/smartth/STM32Cube/Repository/STM32Cube_FW_F1_V1.8.4//Middlewares/ST/STM32_USB_Device_Library/Core/Src/usbd_ctlreq.c ****                     &pdev->ep_out[ep_addr & 0x7FU];
 1682              		.loc 1 332 82 discriminator 2 view .LVU517
 1683 011a 01F5A871 		add	r1, r1, #336
 1684 011e 2944     		add	r1, r1, r5
 1685 0120 0431     		adds	r1, r1, #4
 1686              	.L142:
 1687              	.LVL222:
 335:/home/smartth/STM32Cube/Repository/STM32Cube_FW_F1_V1.8.4//Middlewares/ST/STM32_USB_Device_Library/Core/Src/usbd_ctlreq.c **** 
 1688              		.loc 1 335 15 is_stmt 1 discriminator 4 view .LVU518
 335:/home/smartth/STM32Cube/Repository/STM32Cube_FW_F1_V1.8.4//Middlewares/ST/STM32_USB_Device_Library/Core/Src/usbd_ctlreq.c **** 
 1689              		.loc 1 335 27 is_stmt 0 discriminator 4 view .LVU519
 1690 0122 0023     		movs	r3, #0
 1691              	.LVL223:
 335:/home/smartth/STM32Cube/Repository/STM32Cube_FW_F1_V1.8.4//Middlewares/ST/STM32_USB_Device_Library/Core/Src/usbd_ctlreq.c **** 
ARM GAS  /tmp/ccVKyOYc.s 			page 55


 1692              		.loc 1 335 27 discriminator 4 view .LVU520
 1693 0124 0B60     		str	r3, [r1]
 1694              	.LVL224:
 337:/home/smartth/STM32Cube/Repository/STM32Cube_FW_F1_V1.8.4//Middlewares/ST/STM32_USB_Device_Library/Core/Src/usbd_ctlreq.c ****               break;
 1695              		.loc 1 337 15 is_stmt 1 discriminator 4 view .LVU521
 1696 0126 0222     		movs	r2, #2
 1697 0128 2846     		mov	r0, r5
 1698 012a FFF7FEFF 		bl	USBD_CtlSendData
 1699              	.LVL225:
 338:/home/smartth/STM32Cube/Repository/STM32Cube_FW_F1_V1.8.4//Middlewares/ST/STM32_USB_Device_Library/Core/Src/usbd_ctlreq.c **** 
 1700              		.loc 1 338 15 discriminator 4 view .LVU522
 394:/home/smartth/STM32Cube/Repository/STM32Cube_FW_F1_V1.8.4//Middlewares/ST/STM32_USB_Device_Library/Core/Src/usbd_ctlreq.c **** }
 1701              		.loc 1 394 10 is_stmt 0 discriminator 4 view .LVU523
 1702 012e 3446     		mov	r4, r6
 338:/home/smartth/STM32Cube/Repository/STM32Cube_FW_F1_V1.8.4//Middlewares/ST/STM32_USB_Device_Library/Core/Src/usbd_ctlreq.c **** 
 1703              		.loc 1 338 15 discriminator 4 view .LVU524
 1704 0130 7CE7     		b	.L121
 1705              	.LVL226:
 1706              	.L164:
 329:/home/smartth/STM32Cube/Repository/STM32Cube_FW_F1_V1.8.4//Middlewares/ST/STM32_USB_Device_Library/Core/Src/usbd_ctlreq.c ****                 break;
 1707              		.loc 1 329 17 is_stmt 1 view .LVU525
 1708 0132 2846     		mov	r0, r5
 1709 0134 FFF7FEFF 		bl	USBD_CtlError
 1710              	.LVL227:
 330:/home/smartth/STM32Cube/Repository/STM32Cube_FW_F1_V1.8.4//Middlewares/ST/STM32_USB_Device_Library/Core/Src/usbd_ctlreq.c ****               }
 1711              		.loc 1 330 17 view .LVU526
 394:/home/smartth/STM32Cube/Repository/STM32Cube_FW_F1_V1.8.4//Middlewares/ST/STM32_USB_Device_Library/Core/Src/usbd_ctlreq.c **** }
 1712              		.loc 1 394 10 is_stmt 0 view .LVU527
 1713 0138 3446     		mov	r4, r6
 330:/home/smartth/STM32Cube/Repository/STM32Cube_FW_F1_V1.8.4//Middlewares/ST/STM32_USB_Device_Library/Core/Src/usbd_ctlreq.c ****               }
 1714              		.loc 1 330 17 view .LVU528
 1715 013a 77E7     		b	.L121
 1716              	.LVL228:
 1717              	.L165:
 332:/home/smartth/STM32Cube/Repository/STM32Cube_FW_F1_V1.8.4//Middlewares/ST/STM32_USB_Device_Library/Core/Src/usbd_ctlreq.c ****                     &pdev->ep_out[ep_addr & 0x7FU];
 1718              		.loc 1 332 73 discriminator 1 view .LVU529
 1719 013c 02F07F02 		and	r2, r2, #127
 332:/home/smartth/STM32Cube/Repository/STM32Cube_FW_F1_V1.8.4//Middlewares/ST/STM32_USB_Device_Library/Core/Src/usbd_ctlreq.c ****                     &pdev->ep_out[ep_addr & 0x7FU];
 1720              		.loc 1 332 82 discriminator 1 view .LVU530
 1721 0140 02EB8202 		add	r2, r2, r2, lsl #2
 1722 0144 9100     		lsls	r1, r2, #2
 1723              	.LVL229:
 332:/home/smartth/STM32Cube/Repository/STM32Cube_FW_F1_V1.8.4//Middlewares/ST/STM32_USB_Device_Library/Core/Src/usbd_ctlreq.c ****                     &pdev->ep_out[ep_addr & 0x7FU];
 1724              		.loc 1 332 82 discriminator 1 view .LVU531
 1725 0146 1031     		adds	r1, r1, #16
 1726 0148 2944     		add	r1, r1, r5
 1727 014a 0431     		adds	r1, r1, #4
 1728 014c E9E7     		b	.L142
 1729              	.LVL230:
 1730              	.L138:
 341:/home/smartth/STM32Cube/Repository/STM32Cube_FW_F1_V1.8.4//Middlewares/ST/STM32_USB_Device_Library/Core/Src/usbd_ctlreq.c ****               {
 1731              		.loc 1 341 15 is_stmt 1 view .LVU532
 341:/home/smartth/STM32Cube/Repository/STM32Cube_FW_F1_V1.8.4//Middlewares/ST/STM32_USB_Device_Library/Core/Src/usbd_ctlreq.c ****               {
 1732              		.loc 1 341 37 is_stmt 0 view .LVU533
 1733 014e 5BB2     		sxtb	r3, r3
 341:/home/smartth/STM32Cube/Repository/STM32Cube_FW_F1_V1.8.4//Middlewares/ST/STM32_USB_Device_Library/Core/Src/usbd_ctlreq.c ****               {
 1734              		.loc 1 341 18 view .LVU534
ARM GAS  /tmp/ccVKyOYc.s 			page 56


 1735 0150 002B     		cmp	r3, #0
 1736 0152 1FDB     		blt	.L166
 351:/home/smartth/STM32Cube/Repository/STM32Cube_FW_F1_V1.8.4//Middlewares/ST/STM32_USB_Device_Library/Core/Src/usbd_ctlreq.c ****                 {
 1737              		.loc 1 351 17 is_stmt 1 view .LVU535
 351:/home/smartth/STM32Cube/Repository/STM32Cube_FW_F1_V1.8.4//Middlewares/ST/STM32_USB_Device_Library/Core/Src/usbd_ctlreq.c ****                 {
 1738              		.loc 1 351 42 is_stmt 0 view .LVU536
 1739 0154 02F00F00 		and	r0, r2, #15
 351:/home/smartth/STM32Cube/Repository/STM32Cube_FW_F1_V1.8.4//Middlewares/ST/STM32_USB_Device_Library/Core/Src/usbd_ctlreq.c ****                 {
 1740              		.loc 1 351 49 view .LVU537
 1741 0158 00EB8000 		add	r0, r0, r0, lsl #2
 1742 015c 05EB8000 		add	r0, r5, r0, lsl #2
 1743 0160 D0F85801 		ldr	r0, [r0, #344]
 351:/home/smartth/STM32Cube/Repository/STM32Cube_FW_F1_V1.8.4//Middlewares/ST/STM32_USB_Device_Library/Core/Src/usbd_ctlreq.c ****                 {
 1744              		.loc 1 351 20 view .LVU538
 1745 0164 20B3     		cbz	r0, .L167
 1746              	.L144:
 358:/home/smartth/STM32Cube/Repository/STM32Cube_FW_F1_V1.8.4//Middlewares/ST/STM32_USB_Device_Library/Core/Src/usbd_ctlreq.c ****                     &pdev->ep_out[ep_addr & 0x7FU];
 1747              		.loc 1 358 15 is_stmt 1 view .LVU539
 358:/home/smartth/STM32Cube/Repository/STM32Cube_FW_F1_V1.8.4//Middlewares/ST/STM32_USB_Device_Library/Core/Src/usbd_ctlreq.c ****                     &pdev->ep_out[ep_addr & 0x7FU];
 1748              		.loc 1 358 82 is_stmt 0 view .LVU540
 1749 0166 002B     		cmp	r3, #0
 1750 0168 27DB     		blt	.L168
 359:/home/smartth/STM32Cube/Repository/STM32Cube_FW_F1_V1.8.4//Middlewares/ST/STM32_USB_Device_Library/Core/Src/usbd_ctlreq.c **** 
 1751              		.loc 1 359 43 discriminator 2 view .LVU541
 1752 016a 02F07F03 		and	r3, r2, #127
 1753              	.LVL231:
 358:/home/smartth/STM32Cube/Repository/STM32Cube_FW_F1_V1.8.4//Middlewares/ST/STM32_USB_Device_Library/Core/Src/usbd_ctlreq.c ****                     &pdev->ep_out[ep_addr & 0x7FU];
 1754              		.loc 1 358 82 discriminator 2 view .LVU542
 1755 016e 03EB8303 		add	r3, r3, r3, lsl #2
 1756 0172 9C00     		lsls	r4, r3, #2
 1757 0174 04F5A874 		add	r4, r4, #336
 1758 0178 2C44     		add	r4, r4, r5
 1759 017a 0434     		adds	r4, r4, #4
 1760              	.L146:
 1761              	.LVL232:
 361:/home/smartth/STM32Cube/Repository/STM32Cube_FW_F1_V1.8.4//Middlewares/ST/STM32_USB_Device_Library/Core/Src/usbd_ctlreq.c ****               {
 1762              		.loc 1 361 15 is_stmt 1 discriminator 4 view .LVU543
 361:/home/smartth/STM32Cube/Repository/STM32Cube_FW_F1_V1.8.4//Middlewares/ST/STM32_USB_Device_Library/Core/Src/usbd_ctlreq.c ****               {
 1763              		.loc 1 361 18 is_stmt 0 discriminator 4 view .LVU544
 1764 017c 0AB1     		cbz	r2, .L147
 361:/home/smartth/STM32Cube/Repository/STM32Cube_FW_F1_V1.8.4//Middlewares/ST/STM32_USB_Device_Library/Core/Src/usbd_ctlreq.c ****               {
 1765              		.loc 1 361 38 discriminator 1 view .LVU545
 1766 017e 802A     		cmp	r2, #128
 1767 0180 24D1     		bne	.L148
 1768              	.L147:
 363:/home/smartth/STM32Cube/Repository/STM32Cube_FW_F1_V1.8.4//Middlewares/ST/STM32_USB_Device_Library/Core/Src/usbd_ctlreq.c ****               }
 1769              		.loc 1 363 17 is_stmt 1 view .LVU546
 363:/home/smartth/STM32Cube/Repository/STM32Cube_FW_F1_V1.8.4//Middlewares/ST/STM32_USB_Device_Library/Core/Src/usbd_ctlreq.c ****               }
 1770              		.loc 1 363 29 is_stmt 0 view .LVU547
 1771 0182 0023     		movs	r3, #0
 1772 0184 2360     		str	r3, [r4]
 1773              	.LVL233:
 1774              	.L149:
 374:/home/smartth/STM32Cube/Repository/STM32Cube_FW_F1_V1.8.4//Middlewares/ST/STM32_USB_Device_Library/Core/Src/usbd_ctlreq.c ****               break;
 1775              		.loc 1 374 15 is_stmt 1 view .LVU548
 1776 0186 0222     		movs	r2, #2
 1777 0188 2146     		mov	r1, r4
ARM GAS  /tmp/ccVKyOYc.s 			page 57


 1778 018a 2846     		mov	r0, r5
 1779 018c FFF7FEFF 		bl	USBD_CtlSendData
 1780              	.LVL234:
 375:/home/smartth/STM32Cube/Repository/STM32Cube_FW_F1_V1.8.4//Middlewares/ST/STM32_USB_Device_Library/Core/Src/usbd_ctlreq.c **** 
 1781              		.loc 1 375 15 view .LVU549
 394:/home/smartth/STM32Cube/Repository/STM32Cube_FW_F1_V1.8.4//Middlewares/ST/STM32_USB_Device_Library/Core/Src/usbd_ctlreq.c **** }
 1782              		.loc 1 394 10 is_stmt 0 view .LVU550
 1783 0190 3446     		mov	r4, r6
 1784              	.LVL235:
 375:/home/smartth/STM32Cube/Repository/STM32Cube_FW_F1_V1.8.4//Middlewares/ST/STM32_USB_Device_Library/Core/Src/usbd_ctlreq.c **** 
 1785              		.loc 1 375 15 view .LVU551
 1786 0192 4BE7     		b	.L121
 1787              	.LVL236:
 1788              	.L166:
 343:/home/smartth/STM32Cube/Repository/STM32Cube_FW_F1_V1.8.4//Middlewares/ST/STM32_USB_Device_Library/Core/Src/usbd_ctlreq.c ****                 {
 1789              		.loc 1 343 17 is_stmt 1 view .LVU552
 343:/home/smartth/STM32Cube/Repository/STM32Cube_FW_F1_V1.8.4//Middlewares/ST/STM32_USB_Device_Library/Core/Src/usbd_ctlreq.c ****                 {
 1790              		.loc 1 343 41 is_stmt 0 view .LVU553
 1791 0194 02F00F00 		and	r0, r2, #15
 343:/home/smartth/STM32Cube/Repository/STM32Cube_FW_F1_V1.8.4//Middlewares/ST/STM32_USB_Device_Library/Core/Src/usbd_ctlreq.c ****                 {
 1792              		.loc 1 343 48 view .LVU554
 1793 0198 00EB8000 		add	r0, r0, r0, lsl #2
 1794 019c 05EB8000 		add	r0, r5, r0, lsl #2
 1795 01a0 8069     		ldr	r0, [r0, #24]
 343:/home/smartth/STM32Cube/Repository/STM32Cube_FW_F1_V1.8.4//Middlewares/ST/STM32_USB_Device_Library/Core/Src/usbd_ctlreq.c ****                 {
 1796              		.loc 1 343 20 view .LVU555
 1797 01a2 0028     		cmp	r0, #0
 1798 01a4 DFD1     		bne	.L144
 345:/home/smartth/STM32Cube/Repository/STM32Cube_FW_F1_V1.8.4//Middlewares/ST/STM32_USB_Device_Library/Core/Src/usbd_ctlreq.c ****                   break;
 1799              		.loc 1 345 19 is_stmt 1 view .LVU556
 1800 01a6 2846     		mov	r0, r5
 1801 01a8 FFF7FEFF 		bl	USBD_CtlError
 1802              	.LVL237:
 346:/home/smartth/STM32Cube/Repository/STM32Cube_FW_F1_V1.8.4//Middlewares/ST/STM32_USB_Device_Library/Core/Src/usbd_ctlreq.c ****                 }
 1803              		.loc 1 346 19 view .LVU557
 394:/home/smartth/STM32Cube/Repository/STM32Cube_FW_F1_V1.8.4//Middlewares/ST/STM32_USB_Device_Library/Core/Src/usbd_ctlreq.c **** }
 1804              		.loc 1 394 10 is_stmt 0 view .LVU558
 1805 01ac 3446     		mov	r4, r6
 346:/home/smartth/STM32Cube/Repository/STM32Cube_FW_F1_V1.8.4//Middlewares/ST/STM32_USB_Device_Library/Core/Src/usbd_ctlreq.c ****                 }
 1806              		.loc 1 346 19 view .LVU559
 1807 01ae 3DE7     		b	.L121
 1808              	.LVL238:
 1809              	.L167:
 353:/home/smartth/STM32Cube/Repository/STM32Cube_FW_F1_V1.8.4//Middlewares/ST/STM32_USB_Device_Library/Core/Src/usbd_ctlreq.c ****                   break;
 1810              		.loc 1 353 19 is_stmt 1 view .LVU560
 1811 01b0 2846     		mov	r0, r5
 1812 01b2 FFF7FEFF 		bl	USBD_CtlError
 1813              	.LVL239:
 354:/home/smartth/STM32Cube/Repository/STM32Cube_FW_F1_V1.8.4//Middlewares/ST/STM32_USB_Device_Library/Core/Src/usbd_ctlreq.c ****                 }
 1814              		.loc 1 354 19 view .LVU561
 394:/home/smartth/STM32Cube/Repository/STM32Cube_FW_F1_V1.8.4//Middlewares/ST/STM32_USB_Device_Library/Core/Src/usbd_ctlreq.c **** }
 1815              		.loc 1 394 10 is_stmt 0 view .LVU562
 1816 01b6 3446     		mov	r4, r6
 354:/home/smartth/STM32Cube/Repository/STM32Cube_FW_F1_V1.8.4//Middlewares/ST/STM32_USB_Device_Library/Core/Src/usbd_ctlreq.c ****                 }
 1817              		.loc 1 354 19 view .LVU563
 1818 01b8 38E7     		b	.L121
 1819              	.LVL240:
ARM GAS  /tmp/ccVKyOYc.s 			page 58


 1820              	.L168:
 358:/home/smartth/STM32Cube/Repository/STM32Cube_FW_F1_V1.8.4//Middlewares/ST/STM32_USB_Device_Library/Core/Src/usbd_ctlreq.c ****                     &pdev->ep_out[ep_addr & 0x7FU];
 1821              		.loc 1 358 73 discriminator 1 view .LVU564
 1822 01ba 02F07F03 		and	r3, r2, #127
 1823              	.LVL241:
 358:/home/smartth/STM32Cube/Repository/STM32Cube_FW_F1_V1.8.4//Middlewares/ST/STM32_USB_Device_Library/Core/Src/usbd_ctlreq.c ****                     &pdev->ep_out[ep_addr & 0x7FU];
 1824              		.loc 1 358 82 discriminator 1 view .LVU565
 1825 01be 03EB8303 		add	r3, r3, r3, lsl #2
 1826 01c2 9C00     		lsls	r4, r3, #2
 1827 01c4 1034     		adds	r4, r4, #16
 1828 01c6 2C44     		add	r4, r4, r5
 1829 01c8 0434     		adds	r4, r4, #4
 1830 01ca D7E7     		b	.L146
 1831              	.LVL242:
 1832              	.L148:
 365:/home/smartth/STM32Cube/Repository/STM32Cube_FW_F1_V1.8.4//Middlewares/ST/STM32_USB_Device_Library/Core/Src/usbd_ctlreq.c ****               {
 1833              		.loc 1 365 20 is_stmt 1 view .LVU566
 365:/home/smartth/STM32Cube/Repository/STM32Cube_FW_F1_V1.8.4//Middlewares/ST/STM32_USB_Device_Library/Core/Src/usbd_ctlreq.c ****               {
 1834              		.loc 1 365 24 is_stmt 0 view .LVU567
 1835 01cc 1146     		mov	r1, r2
 1836              	.LVL243:
 365:/home/smartth/STM32Cube/Repository/STM32Cube_FW_F1_V1.8.4//Middlewares/ST/STM32_USB_Device_Library/Core/Src/usbd_ctlreq.c ****               {
 1837              		.loc 1 365 24 view .LVU568
 1838 01ce 2846     		mov	r0, r5
 1839 01d0 FFF7FEFF 		bl	USBD_LL_IsStallEP
 1840              	.LVL244:
 365:/home/smartth/STM32Cube/Repository/STM32Cube_FW_F1_V1.8.4//Middlewares/ST/STM32_USB_Device_Library/Core/Src/usbd_ctlreq.c ****               {
 1841              		.loc 1 365 23 view .LVU569
 1842 01d4 10B1     		cbz	r0, .L150
 367:/home/smartth/STM32Cube/Repository/STM32Cube_FW_F1_V1.8.4//Middlewares/ST/STM32_USB_Device_Library/Core/Src/usbd_ctlreq.c ****               }
 1843              		.loc 1 367 17 is_stmt 1 view .LVU570
 367:/home/smartth/STM32Cube/Repository/STM32Cube_FW_F1_V1.8.4//Middlewares/ST/STM32_USB_Device_Library/Core/Src/usbd_ctlreq.c ****               }
 1844              		.loc 1 367 29 is_stmt 0 view .LVU571
 1845 01d6 0123     		movs	r3, #1
 1846 01d8 2360     		str	r3, [r4]
 1847 01da D4E7     		b	.L149
 1848              	.L150:
 371:/home/smartth/STM32Cube/Repository/STM32Cube_FW_F1_V1.8.4//Middlewares/ST/STM32_USB_Device_Library/Core/Src/usbd_ctlreq.c ****               }
 1849              		.loc 1 371 17 is_stmt 1 view .LVU572
 371:/home/smartth/STM32Cube/Repository/STM32Cube_FW_F1_V1.8.4//Middlewares/ST/STM32_USB_Device_Library/Core/Src/usbd_ctlreq.c ****               }
 1850              		.loc 1 371 29 is_stmt 0 view .LVU573
 1851 01dc 0023     		movs	r3, #0
 1852 01de 2360     		str	r3, [r4]
 1853 01e0 D1E7     		b	.L149
 1854              		.cfi_endproc
 1855              	.LFE199:
 1857              		.section	.text.USBD_GetString,"ax",%progbits
 1858              		.align	1
 1859              		.global	USBD_GetString
 1860              		.syntax unified
 1861              		.thumb
 1862              		.thumb_func
 1863              		.fpu softvfp
 1865              	USBD_GetString:
 1866              	.LVL245:
 1867              	.LFB209:
 869:/home/smartth/STM32Cube/Repository/STM32Cube_FW_F1_V1.8.4//Middlewares/ST/STM32_USB_Device_Library/Core/Src/usbd_ctlreq.c ****   uint8_t idx = 0U;
ARM GAS  /tmp/ccVKyOYc.s 			page 59


 1868              		.loc 1 869 1 is_stmt 1 view -0
 1869              		.cfi_startproc
 1870              		@ args = 0, pretend = 0, frame = 0
 1871              		@ frame_needed = 0, uses_anonymous_args = 0
 870:/home/smartth/STM32Cube/Repository/STM32Cube_FW_F1_V1.8.4//Middlewares/ST/STM32_USB_Device_Library/Core/Src/usbd_ctlreq.c **** 
 1872              		.loc 1 870 3 view .LVU575
 872:/home/smartth/STM32Cube/Repository/STM32Cube_FW_F1_V1.8.4//Middlewares/ST/STM32_USB_Device_Library/Core/Src/usbd_ctlreq.c ****   {
 1873              		.loc 1 872 3 view .LVU576
 872:/home/smartth/STM32Cube/Repository/STM32Cube_FW_F1_V1.8.4//Middlewares/ST/STM32_USB_Device_Library/Core/Src/usbd_ctlreq.c ****   {
 1874              		.loc 1 872 6 is_stmt 0 view .LVU577
 1875 0000 D0B1     		cbz	r0, .L174
 869:/home/smartth/STM32Cube/Repository/STM32Cube_FW_F1_V1.8.4//Middlewares/ST/STM32_USB_Device_Library/Core/Src/usbd_ctlreq.c ****   uint8_t idx = 0U;
 1876              		.loc 1 869 1 view .LVU578
 1877 0002 70B5     		push	{r4, r5, r6, lr}
 1878              	.LCFI14:
 1879              		.cfi_def_cfa_offset 16
 1880              		.cfi_offset 4, -16
 1881              		.cfi_offset 5, -12
 1882              		.cfi_offset 6, -8
 1883              		.cfi_offset 14, -4
 1884 0004 0D46     		mov	r5, r1
 1885 0006 1646     		mov	r6, r2
 1886 0008 0446     		mov	r4, r0
 874:/home/smartth/STM32Cube/Repository/STM32Cube_FW_F1_V1.8.4//Middlewares/ST/STM32_USB_Device_Library/Core/Src/usbd_ctlreq.c ****     unicode[idx++] = *(uint8_t *)(void *)len;
 1887              		.loc 1 874 5 is_stmt 1 view .LVU579
 874:/home/smartth/STM32Cube/Repository/STM32Cube_FW_F1_V1.8.4//Middlewares/ST/STM32_USB_Device_Library/Core/Src/usbd_ctlreq.c ****     unicode[idx++] = *(uint8_t *)(void *)len;
 1888              		.loc 1 874 22 is_stmt 0 view .LVU580
 1889 000a FFF7FEFF 		bl	USBD_GetLen
 1890              	.LVL246:
 874:/home/smartth/STM32Cube/Repository/STM32Cube_FW_F1_V1.8.4//Middlewares/ST/STM32_USB_Device_Library/Core/Src/usbd_ctlreq.c ****     unicode[idx++] = *(uint8_t *)(void *)len;
 1891              		.loc 1 874 45 view .LVU581
 1892 000e 431C     		adds	r3, r0, #1
 874:/home/smartth/STM32Cube/Repository/STM32Cube_FW_F1_V1.8.4//Middlewares/ST/STM32_USB_Device_Library/Core/Src/usbd_ctlreq.c ****     unicode[idx++] = *(uint8_t *)(void *)len;
 1893              		.loc 1 874 10 view .LVU582
 1894 0010 5B00     		lsls	r3, r3, #1
 1895 0012 9BB2     		uxth	r3, r3
 1896 0014 3380     		strh	r3, [r6]	@ movhi
 875:/home/smartth/STM32Cube/Repository/STM32Cube_FW_F1_V1.8.4//Middlewares/ST/STM32_USB_Device_Library/Core/Src/usbd_ctlreq.c ****     unicode[idx++] = USB_DESC_TYPE_STRING;
 1897              		.loc 1 875 5 is_stmt 1 view .LVU583
 1898              	.LVL247:
 875:/home/smartth/STM32Cube/Repository/STM32Cube_FW_F1_V1.8.4//Middlewares/ST/STM32_USB_Device_Library/Core/Src/usbd_ctlreq.c ****     unicode[idx++] = USB_DESC_TYPE_STRING;
 1899              		.loc 1 875 20 is_stmt 0 view .LVU584
 1900 0016 2B70     		strb	r3, [r5]
 876:/home/smartth/STM32Cube/Repository/STM32Cube_FW_F1_V1.8.4//Middlewares/ST/STM32_USB_Device_Library/Core/Src/usbd_ctlreq.c **** 
 1901              		.loc 1 876 5 is_stmt 1 view .LVU585
 1902              	.LVL248:
 876:/home/smartth/STM32Cube/Repository/STM32Cube_FW_F1_V1.8.4//Middlewares/ST/STM32_USB_Device_Library/Core/Src/usbd_ctlreq.c **** 
 1903              		.loc 1 876 20 is_stmt 0 view .LVU586
 1904 0018 0323     		movs	r3, #3
 1905 001a 6B70     		strb	r3, [r5, #1]
 878:/home/smartth/STM32Cube/Repository/STM32Cube_FW_F1_V1.8.4//Middlewares/ST/STM32_USB_Device_Library/Core/Src/usbd_ctlreq.c ****     {
 1906              		.loc 1 878 5 is_stmt 1 view .LVU587
 876:/home/smartth/STM32Cube/Repository/STM32Cube_FW_F1_V1.8.4//Middlewares/ST/STM32_USB_Device_Library/Core/Src/usbd_ctlreq.c **** 
 1907              		.loc 1 876 16 is_stmt 0 view .LVU588
 1908 001c 0223     		movs	r3, #2
 878:/home/smartth/STM32Cube/Repository/STM32Cube_FW_F1_V1.8.4//Middlewares/ST/STM32_USB_Device_Library/Core/Src/usbd_ctlreq.c ****     {
 1909              		.loc 1 878 11 view .LVU589
ARM GAS  /tmp/ccVKyOYc.s 			page 60


 1910 001e 07E0     		b	.L171
 1911              	.LVL249:
 1912              	.L172:
 880:/home/smartth/STM32Cube/Repository/STM32Cube_FW_F1_V1.8.4//Middlewares/ST/STM32_USB_Device_Library/Core/Src/usbd_ctlreq.c ****       unicode[idx++] =  0U;
 1913              		.loc 1 880 7 is_stmt 1 view .LVU590
 880:/home/smartth/STM32Cube/Repository/STM32Cube_FW_F1_V1.8.4//Middlewares/ST/STM32_USB_Device_Library/Core/Src/usbd_ctlreq.c ****       unicode[idx++] =  0U;
 1914              		.loc 1 880 29 is_stmt 0 view .LVU591
 1915 0020 0134     		adds	r4, r4, #1
 1916              	.LVL250:
 880:/home/smartth/STM32Cube/Repository/STM32Cube_FW_F1_V1.8.4//Middlewares/ST/STM32_USB_Device_Library/Core/Src/usbd_ctlreq.c ****       unicode[idx++] =  0U;
 1917              		.loc 1 880 18 view .LVU592
 1918 0022 5A1C     		adds	r2, r3, #1
 1919 0024 D2B2     		uxtb	r2, r2
 1920              	.LVL251:
 880:/home/smartth/STM32Cube/Repository/STM32Cube_FW_F1_V1.8.4//Middlewares/ST/STM32_USB_Device_Library/Core/Src/usbd_ctlreq.c ****       unicode[idx++] =  0U;
 1921              		.loc 1 880 22 view .LVU593
 1922 0026 E854     		strb	r0, [r5, r3]
 881:/home/smartth/STM32Cube/Repository/STM32Cube_FW_F1_V1.8.4//Middlewares/ST/STM32_USB_Device_Library/Core/Src/usbd_ctlreq.c ****     }
 1923              		.loc 1 881 7 is_stmt 1 view .LVU594
 881:/home/smartth/STM32Cube/Repository/STM32Cube_FW_F1_V1.8.4//Middlewares/ST/STM32_USB_Device_Library/Core/Src/usbd_ctlreq.c ****     }
 1924              		.loc 1 881 18 is_stmt 0 view .LVU595
 1925 0028 0233     		adds	r3, r3, #2
 1926 002a DBB2     		uxtb	r3, r3
 1927              	.LVL252:
 881:/home/smartth/STM32Cube/Repository/STM32Cube_FW_F1_V1.8.4//Middlewares/ST/STM32_USB_Device_Library/Core/Src/usbd_ctlreq.c ****     }
 1928              		.loc 1 881 22 view .LVU596
 1929 002c 0021     		movs	r1, #0
 1930 002e A954     		strb	r1, [r5, r2]
 1931              	.LVL253:
 1932              	.L171:
 878:/home/smartth/STM32Cube/Repository/STM32Cube_FW_F1_V1.8.4//Middlewares/ST/STM32_USB_Device_Library/Core/Src/usbd_ctlreq.c ****     {
 1933              		.loc 1 878 11 is_stmt 1 view .LVU597
 878:/home/smartth/STM32Cube/Repository/STM32Cube_FW_F1_V1.8.4//Middlewares/ST/STM32_USB_Device_Library/Core/Src/usbd_ctlreq.c ****     {
 1934              		.loc 1 878 12 is_stmt 0 view .LVU598
 1935 0030 2078     		ldrb	r0, [r4]	@ zero_extendqisi2
 878:/home/smartth/STM32Cube/Repository/STM32Cube_FW_F1_V1.8.4//Middlewares/ST/STM32_USB_Device_Library/Core/Src/usbd_ctlreq.c ****     {
 1936              		.loc 1 878 11 view .LVU599
 1937 0032 0028     		cmp	r0, #0
 1938 0034 F4D1     		bne	.L172
 884:/home/smartth/STM32Cube/Repository/STM32Cube_FW_F1_V1.8.4//Middlewares/ST/STM32_USB_Device_Library/Core/Src/usbd_ctlreq.c **** 
 1939              		.loc 1 884 1 view .LVU600
 1940 0036 70BD     		pop	{r4, r5, r6, pc}
 1941              	.LVL254:
 1942              	.L174:
 1943              	.LCFI15:
 1944              		.cfi_def_cfa_offset 0
 1945              		.cfi_restore 4
 1946              		.cfi_restore 5
 1947              		.cfi_restore 6
 1948              		.cfi_restore 14
 884:/home/smartth/STM32Cube/Repository/STM32Cube_FW_F1_V1.8.4//Middlewares/ST/STM32_USB_Device_Library/Core/Src/usbd_ctlreq.c **** 
 1949              		.loc 1 884 1 view .LVU601
 1950 0038 7047     		bx	lr
 1951              		.cfi_endproc
 1952              	.LFE209:
 1954              		.section	.bss.cfgidx.0,"aw",%nobits
 1955              		.set	.LANCHOR0,. + 0
ARM GAS  /tmp/ccVKyOYc.s 			page 61


 1958              	cfgidx.0:
 1959 0000 00       		.space	1
 1960              		.text
 1961              	.Letext0:
 1962              		.file 2 "/usr/include/newlib/machine/_default_types.h"
 1963              		.file 3 "/usr/include/newlib/sys/_stdint.h"
 1964              		.file 4 "/home/smartth/STM32Cube/Repository/STM32Cube_FW_F1_V1.8.4//Middlewares/ST/STM32_USB_Devic
 1965              		.file 5 "/home/smartth/STM32Cube/Repository/STM32Cube_FW_F1_V1.8.4//Middlewares/ST/STM32_USB_Devic
 1966              		.file 6 "/home/smartth/STM32Cube/Repository/STM32Cube_FW_F1_V1.8.4//Middlewares/ST/STM32_USB_Devic
ARM GAS  /tmp/ccVKyOYc.s 			page 62


DEFINED SYMBOLS
                            *ABS*:0000000000000000 usbd_ctlreq.c
     /tmp/ccVKyOYc.s:16     .text.USBD_GetLen:0000000000000000 $t
     /tmp/ccVKyOYc.s:23     .text.USBD_GetLen:0000000000000000 USBD_GetLen
     /tmp/ccVKyOYc.s:69     .text.USBD_SetFeature:0000000000000000 $t
     /tmp/ccVKyOYc.s:75     .text.USBD_SetFeature:0000000000000000 USBD_SetFeature
     /tmp/ccVKyOYc.s:112    .text.USBD_ParseSetupRequest:0000000000000000 $t
     /tmp/ccVKyOYc.s:119    .text.USBD_ParseSetupRequest:0000000000000000 USBD_ParseSetupRequest
     /tmp/ccVKyOYc.s:163    .text.USBD_CtlError:0000000000000000 $t
     /tmp/ccVKyOYc.s:170    .text.USBD_CtlError:0000000000000000 USBD_CtlError
     /tmp/ccVKyOYc.s:202    .text.USBD_GetDescriptor:0000000000000000 $t
     /tmp/ccVKyOYc.s:208    .text.USBD_GetDescriptor:0000000000000000 USBD_GetDescriptor
     /tmp/ccVKyOYc.s:246    .text.USBD_GetDescriptor:000000000000001e $d
     /tmp/ccVKyOYc.s:351    .text.USBD_GetDescriptor:0000000000000080 $d
     /tmp/ccVKyOYc.s:357    .text.USBD_GetDescriptor:0000000000000086 $t
     /tmp/ccVKyOYc.s:637    .text.USBD_SetAddress:0000000000000000 $t
     /tmp/ccVKyOYc.s:643    .text.USBD_SetAddress:0000000000000000 USBD_SetAddress
     /tmp/ccVKyOYc.s:734    .text.USBD_SetConfig:0000000000000000 $t
     /tmp/ccVKyOYc.s:740    .text.USBD_SetConfig:0000000000000000 USBD_SetConfig
     /tmp/ccVKyOYc.s:905    .text.USBD_SetConfig:00000000000000ac $d
     /tmp/ccVKyOYc.s:910    .text.USBD_GetConfig:0000000000000000 $t
     /tmp/ccVKyOYc.s:916    .text.USBD_GetConfig:0000000000000000 USBD_GetConfig
     /tmp/ccVKyOYc.s:991    .text.USBD_GetStatus:0000000000000000 $t
     /tmp/ccVKyOYc.s:997    .text.USBD_GetStatus:0000000000000000 USBD_GetStatus
     /tmp/ccVKyOYc.s:1067   .text.USBD_ClrFeature:0000000000000000 $t
     /tmp/ccVKyOYc.s:1073   .text.USBD_ClrFeature:0000000000000000 USBD_ClrFeature
     /tmp/ccVKyOYc.s:1126   .text.USBD_StdDevReq:0000000000000000 $t
     /tmp/ccVKyOYc.s:1133   .text.USBD_StdDevReq:0000000000000000 USBD_StdDevReq
     /tmp/ccVKyOYc.s:1188   .text.USBD_StdDevReq:000000000000002e $d
     /tmp/ccVKyOYc.s:1198   .text.USBD_StdDevReq:0000000000000038 $t
     /tmp/ccVKyOYc.s:1258   .text.USBD_StdItfReq:0000000000000000 $t
     /tmp/ccVKyOYc.s:1265   .text.USBD_StdItfReq:0000000000000000 USBD_StdItfReq
     /tmp/ccVKyOYc.s:1376   .text.USBD_StdEPReq:0000000000000000 $t
     /tmp/ccVKyOYc.s:1383   .text.USBD_StdEPReq:0000000000000000 USBD_StdEPReq
     /tmp/ccVKyOYc.s:1858   .text.USBD_GetString:0000000000000000 $t
     /tmp/ccVKyOYc.s:1865   .text.USBD_GetString:0000000000000000 USBD_GetString
     /tmp/ccVKyOYc.s:1958   .bss.cfgidx.0:0000000000000000 cfgidx.0
     /tmp/ccVKyOYc.s:1959   .bss.cfgidx.0:0000000000000000 $d
     /tmp/ccVKyOYc.s:253    .text.USBD_GetDescriptor:0000000000000025 $d
     /tmp/ccVKyOYc.s:253    .text.USBD_GetDescriptor:0000000000000026 $t

UNDEFINED SYMBOLS
USBD_CtlSendStatus
USBD_LL_StallEP
USBD_CtlSendData
USBD_LL_SetUSBAddress
USBD_ClrClassConfig
USBD_SetClassConfig
USBD_LL_ClearStallEP
USBD_LL_IsStallEP
