ARM GAS  /tmp/ccSzjua7.s 			page 1


   1              		.cpu cortex-m3
   2              		.eabi_attribute 20, 1
   3              		.eabi_attribute 21, 1
   4              		.eabi_attribute 23, 3
   5              		.eabi_attribute 24, 1
   6              		.eabi_attribute 25, 1
   7              		.eabi_attribute 26, 1
   8              		.eabi_attribute 30, 1
   9              		.eabi_attribute 34, 1
  10              		.eabi_attribute 18, 4
  11              		.file	"usbd_cdc.c"
  12              		.text
  13              	.Ltext0:
  14              		.cfi_sections	.debug_frame
  15              		.section	.text.USBD_CDC_EP0_RxReady,"ax",%progbits
  16              		.align	1
  17              		.arch armv7-m
  18              		.syntax unified
  19              		.thumb
  20              		.thumb_func
  21              		.fpu softvfp
  23              	USBD_CDC_EP0_RxReady:
  24              	.LVL0:
  25              	.LFB202:
  26              		.file 1 "/home/smartth/STM32Cube/Repository/STM32Cube_FW_F1_V1.8.4//Middlewares/ST/STM32_USB_Devic
   1:/home/smartth/STM32Cube/Repository/STM32Cube_FW_F1_V1.8.4//Middlewares/ST/STM32_USB_Device_Library/Class/CDC/Src/usbd_cdc.c **** /**
   2:/home/smartth/STM32Cube/Repository/STM32Cube_FW_F1_V1.8.4//Middlewares/ST/STM32_USB_Device_Library/Class/CDC/Src/usbd_cdc.c ****   ******************************************************************************
   3:/home/smartth/STM32Cube/Repository/STM32Cube_FW_F1_V1.8.4//Middlewares/ST/STM32_USB_Device_Library/Class/CDC/Src/usbd_cdc.c ****   * @file    usbd_cdc.c
   4:/home/smartth/STM32Cube/Repository/STM32Cube_FW_F1_V1.8.4//Middlewares/ST/STM32_USB_Device_Library/Class/CDC/Src/usbd_cdc.c ****   * @author  MCD Application Team
   5:/home/smartth/STM32Cube/Repository/STM32Cube_FW_F1_V1.8.4//Middlewares/ST/STM32_USB_Device_Library/Class/CDC/Src/usbd_cdc.c ****   * @brief   This file provides the high layer firmware functions to manage the
   6:/home/smartth/STM32Cube/Repository/STM32Cube_FW_F1_V1.8.4//Middlewares/ST/STM32_USB_Device_Library/Class/CDC/Src/usbd_cdc.c ****   *          following functionalities of the USB CDC Class:
   7:/home/smartth/STM32Cube/Repository/STM32Cube_FW_F1_V1.8.4//Middlewares/ST/STM32_USB_Device_Library/Class/CDC/Src/usbd_cdc.c ****   *           - Initialization and Configuration of high and low layer
   8:/home/smartth/STM32Cube/Repository/STM32Cube_FW_F1_V1.8.4//Middlewares/ST/STM32_USB_Device_Library/Class/CDC/Src/usbd_cdc.c ****   *           - Enumeration as CDC Device (and enumeration for each implemented memory interface)
   9:/home/smartth/STM32Cube/Repository/STM32Cube_FW_F1_V1.8.4//Middlewares/ST/STM32_USB_Device_Library/Class/CDC/Src/usbd_cdc.c ****   *           - OUT/IN data transfer
  10:/home/smartth/STM32Cube/Repository/STM32Cube_FW_F1_V1.8.4//Middlewares/ST/STM32_USB_Device_Library/Class/CDC/Src/usbd_cdc.c ****   *           - Command IN transfer (class requests management)
  11:/home/smartth/STM32Cube/Repository/STM32Cube_FW_F1_V1.8.4//Middlewares/ST/STM32_USB_Device_Library/Class/CDC/Src/usbd_cdc.c ****   *           - Error management
  12:/home/smartth/STM32Cube/Repository/STM32Cube_FW_F1_V1.8.4//Middlewares/ST/STM32_USB_Device_Library/Class/CDC/Src/usbd_cdc.c ****   *
  13:/home/smartth/STM32Cube/Repository/STM32Cube_FW_F1_V1.8.4//Middlewares/ST/STM32_USB_Device_Library/Class/CDC/Src/usbd_cdc.c ****   *  @verbatim
  14:/home/smartth/STM32Cube/Repository/STM32Cube_FW_F1_V1.8.4//Middlewares/ST/STM32_USB_Device_Library/Class/CDC/Src/usbd_cdc.c ****   *
  15:/home/smartth/STM32Cube/Repository/STM32Cube_FW_F1_V1.8.4//Middlewares/ST/STM32_USB_Device_Library/Class/CDC/Src/usbd_cdc.c ****   *          ===================================================================
  16:/home/smartth/STM32Cube/Repository/STM32Cube_FW_F1_V1.8.4//Middlewares/ST/STM32_USB_Device_Library/Class/CDC/Src/usbd_cdc.c ****   *                                CDC Class Driver Description
  17:/home/smartth/STM32Cube/Repository/STM32Cube_FW_F1_V1.8.4//Middlewares/ST/STM32_USB_Device_Library/Class/CDC/Src/usbd_cdc.c ****   *          ===================================================================
  18:/home/smartth/STM32Cube/Repository/STM32Cube_FW_F1_V1.8.4//Middlewares/ST/STM32_USB_Device_Library/Class/CDC/Src/usbd_cdc.c ****   *           This driver manages the "Universal Serial Bus Class Definitions for Communications De
  19:/home/smartth/STM32Cube/Repository/STM32Cube_FW_F1_V1.8.4//Middlewares/ST/STM32_USB_Device_Library/Class/CDC/Src/usbd_cdc.c ****   *           Revision 1.2 November 16, 2007" and the sub-protocol specification of "Universal Seri
  20:/home/smartth/STM32Cube/Repository/STM32Cube_FW_F1_V1.8.4//Middlewares/ST/STM32_USB_Device_Library/Class/CDC/Src/usbd_cdc.c ****   *           Communications Class Subclass Specification for PSTN Devices Revision 1.2 February 9,
  21:/home/smartth/STM32Cube/Repository/STM32Cube_FW_F1_V1.8.4//Middlewares/ST/STM32_USB_Device_Library/Class/CDC/Src/usbd_cdc.c ****   *           This driver implements the following aspects of the specification:
  22:/home/smartth/STM32Cube/Repository/STM32Cube_FW_F1_V1.8.4//Middlewares/ST/STM32_USB_Device_Library/Class/CDC/Src/usbd_cdc.c ****   *             - Device descriptor management
  23:/home/smartth/STM32Cube/Repository/STM32Cube_FW_F1_V1.8.4//Middlewares/ST/STM32_USB_Device_Library/Class/CDC/Src/usbd_cdc.c ****   *             - Configuration descriptor management
  24:/home/smartth/STM32Cube/Repository/STM32Cube_FW_F1_V1.8.4//Middlewares/ST/STM32_USB_Device_Library/Class/CDC/Src/usbd_cdc.c ****   *             - Enumeration as CDC device with 2 data endpoints (IN and OUT) and 1 command endpoi
  25:/home/smartth/STM32Cube/Repository/STM32Cube_FW_F1_V1.8.4//Middlewares/ST/STM32_USB_Device_Library/Class/CDC/Src/usbd_cdc.c ****   *             - Requests management (as described in section 6.2 in specification)
  26:/home/smartth/STM32Cube/Repository/STM32Cube_FW_F1_V1.8.4//Middlewares/ST/STM32_USB_Device_Library/Class/CDC/Src/usbd_cdc.c ****   *             - Abstract Control Model compliant
  27:/home/smartth/STM32Cube/Repository/STM32Cube_FW_F1_V1.8.4//Middlewares/ST/STM32_USB_Device_Library/Class/CDC/Src/usbd_cdc.c ****   *             - Union Functional collection (using 1 IN endpoint for control)
  28:/home/smartth/STM32Cube/Repository/STM32Cube_FW_F1_V1.8.4//Middlewares/ST/STM32_USB_Device_Library/Class/CDC/Src/usbd_cdc.c ****   *             - Data interface class
  29:/home/smartth/STM32Cube/Repository/STM32Cube_FW_F1_V1.8.4//Middlewares/ST/STM32_USB_Device_Library/Class/CDC/Src/usbd_cdc.c ****   *
  30:/home/smartth/STM32Cube/Repository/STM32Cube_FW_F1_V1.8.4//Middlewares/ST/STM32_USB_Device_Library/Class/CDC/Src/usbd_cdc.c ****   *           These aspects may be enriched or modified for a specific user application.
  31:/home/smartth/STM32Cube/Repository/STM32Cube_FW_F1_V1.8.4//Middlewares/ST/STM32_USB_Device_Library/Class/CDC/Src/usbd_cdc.c ****   *
  32:/home/smartth/STM32Cube/Repository/STM32Cube_FW_F1_V1.8.4//Middlewares/ST/STM32_USB_Device_Library/Class/CDC/Src/usbd_cdc.c ****   *            This driver doesn't implement the following aspects of the specification
ARM GAS  /tmp/ccSzjua7.s 			page 2


  33:/home/smartth/STM32Cube/Repository/STM32Cube_FW_F1_V1.8.4//Middlewares/ST/STM32_USB_Device_Library/Class/CDC/Src/usbd_cdc.c ****   *            (but it is possible to manage these features with some modifications on this driver)
  34:/home/smartth/STM32Cube/Repository/STM32Cube_FW_F1_V1.8.4//Middlewares/ST/STM32_USB_Device_Library/Class/CDC/Src/usbd_cdc.c ****   *             - Any class-specific aspect relative to communication classes should be managed by 
  35:/home/smartth/STM32Cube/Repository/STM32Cube_FW_F1_V1.8.4//Middlewares/ST/STM32_USB_Device_Library/Class/CDC/Src/usbd_cdc.c ****   *             - All communication classes other than PSTN are not managed
  36:/home/smartth/STM32Cube/Repository/STM32Cube_FW_F1_V1.8.4//Middlewares/ST/STM32_USB_Device_Library/Class/CDC/Src/usbd_cdc.c ****   *
  37:/home/smartth/STM32Cube/Repository/STM32Cube_FW_F1_V1.8.4//Middlewares/ST/STM32_USB_Device_Library/Class/CDC/Src/usbd_cdc.c ****   *  @endverbatim
  38:/home/smartth/STM32Cube/Repository/STM32Cube_FW_F1_V1.8.4//Middlewares/ST/STM32_USB_Device_Library/Class/CDC/Src/usbd_cdc.c ****   *
  39:/home/smartth/STM32Cube/Repository/STM32Cube_FW_F1_V1.8.4//Middlewares/ST/STM32_USB_Device_Library/Class/CDC/Src/usbd_cdc.c ****   ******************************************************************************
  40:/home/smartth/STM32Cube/Repository/STM32Cube_FW_F1_V1.8.4//Middlewares/ST/STM32_USB_Device_Library/Class/CDC/Src/usbd_cdc.c ****   * @attention
  41:/home/smartth/STM32Cube/Repository/STM32Cube_FW_F1_V1.8.4//Middlewares/ST/STM32_USB_Device_Library/Class/CDC/Src/usbd_cdc.c ****   *
  42:/home/smartth/STM32Cube/Repository/STM32Cube_FW_F1_V1.8.4//Middlewares/ST/STM32_USB_Device_Library/Class/CDC/Src/usbd_cdc.c ****   * <h2><center>&copy; Copyright (c) 2015 STMicroelectronics.
  43:/home/smartth/STM32Cube/Repository/STM32Cube_FW_F1_V1.8.4//Middlewares/ST/STM32_USB_Device_Library/Class/CDC/Src/usbd_cdc.c ****   * All rights reserved.</center></h2>
  44:/home/smartth/STM32Cube/Repository/STM32Cube_FW_F1_V1.8.4//Middlewares/ST/STM32_USB_Device_Library/Class/CDC/Src/usbd_cdc.c ****   *
  45:/home/smartth/STM32Cube/Repository/STM32Cube_FW_F1_V1.8.4//Middlewares/ST/STM32_USB_Device_Library/Class/CDC/Src/usbd_cdc.c ****   * This software component is licensed by ST under Ultimate Liberty license
  46:/home/smartth/STM32Cube/Repository/STM32Cube_FW_F1_V1.8.4//Middlewares/ST/STM32_USB_Device_Library/Class/CDC/Src/usbd_cdc.c ****   * SLA0044, the "License"; You may not use this file except in compliance with
  47:/home/smartth/STM32Cube/Repository/STM32Cube_FW_F1_V1.8.4//Middlewares/ST/STM32_USB_Device_Library/Class/CDC/Src/usbd_cdc.c ****   * the License. You may obtain a copy of the License at:
  48:/home/smartth/STM32Cube/Repository/STM32Cube_FW_F1_V1.8.4//Middlewares/ST/STM32_USB_Device_Library/Class/CDC/Src/usbd_cdc.c ****   *                      www.st.com/SLA0044
  49:/home/smartth/STM32Cube/Repository/STM32Cube_FW_F1_V1.8.4//Middlewares/ST/STM32_USB_Device_Library/Class/CDC/Src/usbd_cdc.c ****   *
  50:/home/smartth/STM32Cube/Repository/STM32Cube_FW_F1_V1.8.4//Middlewares/ST/STM32_USB_Device_Library/Class/CDC/Src/usbd_cdc.c ****   ******************************************************************************
  51:/home/smartth/STM32Cube/Repository/STM32Cube_FW_F1_V1.8.4//Middlewares/ST/STM32_USB_Device_Library/Class/CDC/Src/usbd_cdc.c ****   */
  52:/home/smartth/STM32Cube/Repository/STM32Cube_FW_F1_V1.8.4//Middlewares/ST/STM32_USB_Device_Library/Class/CDC/Src/usbd_cdc.c **** 
  53:/home/smartth/STM32Cube/Repository/STM32Cube_FW_F1_V1.8.4//Middlewares/ST/STM32_USB_Device_Library/Class/CDC/Src/usbd_cdc.c **** /* BSPDependencies
  54:/home/smartth/STM32Cube/Repository/STM32Cube_FW_F1_V1.8.4//Middlewares/ST/STM32_USB_Device_Library/Class/CDC/Src/usbd_cdc.c **** - "stm32xxxxx_{eval}{discovery}{nucleo_144}.c"
  55:/home/smartth/STM32Cube/Repository/STM32Cube_FW_F1_V1.8.4//Middlewares/ST/STM32_USB_Device_Library/Class/CDC/Src/usbd_cdc.c **** - "stm32xxxxx_{eval}{discovery}_io.c"
  56:/home/smartth/STM32Cube/Repository/STM32Cube_FW_F1_V1.8.4//Middlewares/ST/STM32_USB_Device_Library/Class/CDC/Src/usbd_cdc.c **** EndBSPDependencies */
  57:/home/smartth/STM32Cube/Repository/STM32Cube_FW_F1_V1.8.4//Middlewares/ST/STM32_USB_Device_Library/Class/CDC/Src/usbd_cdc.c **** 
  58:/home/smartth/STM32Cube/Repository/STM32Cube_FW_F1_V1.8.4//Middlewares/ST/STM32_USB_Device_Library/Class/CDC/Src/usbd_cdc.c **** /* Includes ------------------------------------------------------------------*/
  59:/home/smartth/STM32Cube/Repository/STM32Cube_FW_F1_V1.8.4//Middlewares/ST/STM32_USB_Device_Library/Class/CDC/Src/usbd_cdc.c **** #include "usbd_cdc.h"
  60:/home/smartth/STM32Cube/Repository/STM32Cube_FW_F1_V1.8.4//Middlewares/ST/STM32_USB_Device_Library/Class/CDC/Src/usbd_cdc.c **** #include "usbd_ctlreq.h"
  61:/home/smartth/STM32Cube/Repository/STM32Cube_FW_F1_V1.8.4//Middlewares/ST/STM32_USB_Device_Library/Class/CDC/Src/usbd_cdc.c **** 
  62:/home/smartth/STM32Cube/Repository/STM32Cube_FW_F1_V1.8.4//Middlewares/ST/STM32_USB_Device_Library/Class/CDC/Src/usbd_cdc.c **** 
  63:/home/smartth/STM32Cube/Repository/STM32Cube_FW_F1_V1.8.4//Middlewares/ST/STM32_USB_Device_Library/Class/CDC/Src/usbd_cdc.c **** /** @addtogroup STM32_USB_DEVICE_LIBRARY
  64:/home/smartth/STM32Cube/Repository/STM32Cube_FW_F1_V1.8.4//Middlewares/ST/STM32_USB_Device_Library/Class/CDC/Src/usbd_cdc.c ****   * @{
  65:/home/smartth/STM32Cube/Repository/STM32Cube_FW_F1_V1.8.4//Middlewares/ST/STM32_USB_Device_Library/Class/CDC/Src/usbd_cdc.c ****   */
  66:/home/smartth/STM32Cube/Repository/STM32Cube_FW_F1_V1.8.4//Middlewares/ST/STM32_USB_Device_Library/Class/CDC/Src/usbd_cdc.c **** 
  67:/home/smartth/STM32Cube/Repository/STM32Cube_FW_F1_V1.8.4//Middlewares/ST/STM32_USB_Device_Library/Class/CDC/Src/usbd_cdc.c **** 
  68:/home/smartth/STM32Cube/Repository/STM32Cube_FW_F1_V1.8.4//Middlewares/ST/STM32_USB_Device_Library/Class/CDC/Src/usbd_cdc.c **** /** @defgroup USBD_CDC
  69:/home/smartth/STM32Cube/Repository/STM32Cube_FW_F1_V1.8.4//Middlewares/ST/STM32_USB_Device_Library/Class/CDC/Src/usbd_cdc.c ****   * @brief usbd core module
  70:/home/smartth/STM32Cube/Repository/STM32Cube_FW_F1_V1.8.4//Middlewares/ST/STM32_USB_Device_Library/Class/CDC/Src/usbd_cdc.c ****   * @{
  71:/home/smartth/STM32Cube/Repository/STM32Cube_FW_F1_V1.8.4//Middlewares/ST/STM32_USB_Device_Library/Class/CDC/Src/usbd_cdc.c ****   */
  72:/home/smartth/STM32Cube/Repository/STM32Cube_FW_F1_V1.8.4//Middlewares/ST/STM32_USB_Device_Library/Class/CDC/Src/usbd_cdc.c **** 
  73:/home/smartth/STM32Cube/Repository/STM32Cube_FW_F1_V1.8.4//Middlewares/ST/STM32_USB_Device_Library/Class/CDC/Src/usbd_cdc.c **** /** @defgroup USBD_CDC_Private_TypesDefinitions
  74:/home/smartth/STM32Cube/Repository/STM32Cube_FW_F1_V1.8.4//Middlewares/ST/STM32_USB_Device_Library/Class/CDC/Src/usbd_cdc.c ****   * @{
  75:/home/smartth/STM32Cube/Repository/STM32Cube_FW_F1_V1.8.4//Middlewares/ST/STM32_USB_Device_Library/Class/CDC/Src/usbd_cdc.c ****   */
  76:/home/smartth/STM32Cube/Repository/STM32Cube_FW_F1_V1.8.4//Middlewares/ST/STM32_USB_Device_Library/Class/CDC/Src/usbd_cdc.c **** /**
  77:/home/smartth/STM32Cube/Repository/STM32Cube_FW_F1_V1.8.4//Middlewares/ST/STM32_USB_Device_Library/Class/CDC/Src/usbd_cdc.c ****   * @}
  78:/home/smartth/STM32Cube/Repository/STM32Cube_FW_F1_V1.8.4//Middlewares/ST/STM32_USB_Device_Library/Class/CDC/Src/usbd_cdc.c ****   */
  79:/home/smartth/STM32Cube/Repository/STM32Cube_FW_F1_V1.8.4//Middlewares/ST/STM32_USB_Device_Library/Class/CDC/Src/usbd_cdc.c **** 
  80:/home/smartth/STM32Cube/Repository/STM32Cube_FW_F1_V1.8.4//Middlewares/ST/STM32_USB_Device_Library/Class/CDC/Src/usbd_cdc.c **** 
  81:/home/smartth/STM32Cube/Repository/STM32Cube_FW_F1_V1.8.4//Middlewares/ST/STM32_USB_Device_Library/Class/CDC/Src/usbd_cdc.c **** /** @defgroup USBD_CDC_Private_Defines
  82:/home/smartth/STM32Cube/Repository/STM32Cube_FW_F1_V1.8.4//Middlewares/ST/STM32_USB_Device_Library/Class/CDC/Src/usbd_cdc.c ****   * @{
  83:/home/smartth/STM32Cube/Repository/STM32Cube_FW_F1_V1.8.4//Middlewares/ST/STM32_USB_Device_Library/Class/CDC/Src/usbd_cdc.c ****   */
  84:/home/smartth/STM32Cube/Repository/STM32Cube_FW_F1_V1.8.4//Middlewares/ST/STM32_USB_Device_Library/Class/CDC/Src/usbd_cdc.c **** /**
  85:/home/smartth/STM32Cube/Repository/STM32Cube_FW_F1_V1.8.4//Middlewares/ST/STM32_USB_Device_Library/Class/CDC/Src/usbd_cdc.c ****   * @}
  86:/home/smartth/STM32Cube/Repository/STM32Cube_FW_F1_V1.8.4//Middlewares/ST/STM32_USB_Device_Library/Class/CDC/Src/usbd_cdc.c ****   */
  87:/home/smartth/STM32Cube/Repository/STM32Cube_FW_F1_V1.8.4//Middlewares/ST/STM32_USB_Device_Library/Class/CDC/Src/usbd_cdc.c **** 
  88:/home/smartth/STM32Cube/Repository/STM32Cube_FW_F1_V1.8.4//Middlewares/ST/STM32_USB_Device_Library/Class/CDC/Src/usbd_cdc.c **** 
  89:/home/smartth/STM32Cube/Repository/STM32Cube_FW_F1_V1.8.4//Middlewares/ST/STM32_USB_Device_Library/Class/CDC/Src/usbd_cdc.c **** /** @defgroup USBD_CDC_Private_Macros
ARM GAS  /tmp/ccSzjua7.s 			page 3


  90:/home/smartth/STM32Cube/Repository/STM32Cube_FW_F1_V1.8.4//Middlewares/ST/STM32_USB_Device_Library/Class/CDC/Src/usbd_cdc.c ****   * @{
  91:/home/smartth/STM32Cube/Repository/STM32Cube_FW_F1_V1.8.4//Middlewares/ST/STM32_USB_Device_Library/Class/CDC/Src/usbd_cdc.c ****   */
  92:/home/smartth/STM32Cube/Repository/STM32Cube_FW_F1_V1.8.4//Middlewares/ST/STM32_USB_Device_Library/Class/CDC/Src/usbd_cdc.c **** 
  93:/home/smartth/STM32Cube/Repository/STM32Cube_FW_F1_V1.8.4//Middlewares/ST/STM32_USB_Device_Library/Class/CDC/Src/usbd_cdc.c **** /**
  94:/home/smartth/STM32Cube/Repository/STM32Cube_FW_F1_V1.8.4//Middlewares/ST/STM32_USB_Device_Library/Class/CDC/Src/usbd_cdc.c ****   * @}
  95:/home/smartth/STM32Cube/Repository/STM32Cube_FW_F1_V1.8.4//Middlewares/ST/STM32_USB_Device_Library/Class/CDC/Src/usbd_cdc.c ****   */
  96:/home/smartth/STM32Cube/Repository/STM32Cube_FW_F1_V1.8.4//Middlewares/ST/STM32_USB_Device_Library/Class/CDC/Src/usbd_cdc.c **** 
  97:/home/smartth/STM32Cube/Repository/STM32Cube_FW_F1_V1.8.4//Middlewares/ST/STM32_USB_Device_Library/Class/CDC/Src/usbd_cdc.c **** 
  98:/home/smartth/STM32Cube/Repository/STM32Cube_FW_F1_V1.8.4//Middlewares/ST/STM32_USB_Device_Library/Class/CDC/Src/usbd_cdc.c **** /** @defgroup USBD_CDC_Private_FunctionPrototypes
  99:/home/smartth/STM32Cube/Repository/STM32Cube_FW_F1_V1.8.4//Middlewares/ST/STM32_USB_Device_Library/Class/CDC/Src/usbd_cdc.c ****   * @{
 100:/home/smartth/STM32Cube/Repository/STM32Cube_FW_F1_V1.8.4//Middlewares/ST/STM32_USB_Device_Library/Class/CDC/Src/usbd_cdc.c ****   */
 101:/home/smartth/STM32Cube/Repository/STM32Cube_FW_F1_V1.8.4//Middlewares/ST/STM32_USB_Device_Library/Class/CDC/Src/usbd_cdc.c **** 
 102:/home/smartth/STM32Cube/Repository/STM32Cube_FW_F1_V1.8.4//Middlewares/ST/STM32_USB_Device_Library/Class/CDC/Src/usbd_cdc.c **** 
 103:/home/smartth/STM32Cube/Repository/STM32Cube_FW_F1_V1.8.4//Middlewares/ST/STM32_USB_Device_Library/Class/CDC/Src/usbd_cdc.c **** static uint8_t  USBD_CDC_Init(USBD_HandleTypeDef *pdev,
 104:/home/smartth/STM32Cube/Repository/STM32Cube_FW_F1_V1.8.4//Middlewares/ST/STM32_USB_Device_Library/Class/CDC/Src/usbd_cdc.c ****                               uint8_t cfgidx);
 105:/home/smartth/STM32Cube/Repository/STM32Cube_FW_F1_V1.8.4//Middlewares/ST/STM32_USB_Device_Library/Class/CDC/Src/usbd_cdc.c **** 
 106:/home/smartth/STM32Cube/Repository/STM32Cube_FW_F1_V1.8.4//Middlewares/ST/STM32_USB_Device_Library/Class/CDC/Src/usbd_cdc.c **** static uint8_t  USBD_CDC_DeInit(USBD_HandleTypeDef *pdev,
 107:/home/smartth/STM32Cube/Repository/STM32Cube_FW_F1_V1.8.4//Middlewares/ST/STM32_USB_Device_Library/Class/CDC/Src/usbd_cdc.c ****                                 uint8_t cfgidx);
 108:/home/smartth/STM32Cube/Repository/STM32Cube_FW_F1_V1.8.4//Middlewares/ST/STM32_USB_Device_Library/Class/CDC/Src/usbd_cdc.c **** 
 109:/home/smartth/STM32Cube/Repository/STM32Cube_FW_F1_V1.8.4//Middlewares/ST/STM32_USB_Device_Library/Class/CDC/Src/usbd_cdc.c **** static uint8_t  USBD_CDC_Setup(USBD_HandleTypeDef *pdev,
 110:/home/smartth/STM32Cube/Repository/STM32Cube_FW_F1_V1.8.4//Middlewares/ST/STM32_USB_Device_Library/Class/CDC/Src/usbd_cdc.c ****                                USBD_SetupReqTypedef *req);
 111:/home/smartth/STM32Cube/Repository/STM32Cube_FW_F1_V1.8.4//Middlewares/ST/STM32_USB_Device_Library/Class/CDC/Src/usbd_cdc.c **** 
 112:/home/smartth/STM32Cube/Repository/STM32Cube_FW_F1_V1.8.4//Middlewares/ST/STM32_USB_Device_Library/Class/CDC/Src/usbd_cdc.c **** static uint8_t  USBD_CDC_DataIn(USBD_HandleTypeDef *pdev,
 113:/home/smartth/STM32Cube/Repository/STM32Cube_FW_F1_V1.8.4//Middlewares/ST/STM32_USB_Device_Library/Class/CDC/Src/usbd_cdc.c ****                                 uint8_t epnum);
 114:/home/smartth/STM32Cube/Repository/STM32Cube_FW_F1_V1.8.4//Middlewares/ST/STM32_USB_Device_Library/Class/CDC/Src/usbd_cdc.c **** 
 115:/home/smartth/STM32Cube/Repository/STM32Cube_FW_F1_V1.8.4//Middlewares/ST/STM32_USB_Device_Library/Class/CDC/Src/usbd_cdc.c **** static uint8_t  USBD_CDC_DataOut(USBD_HandleTypeDef *pdev,
 116:/home/smartth/STM32Cube/Repository/STM32Cube_FW_F1_V1.8.4//Middlewares/ST/STM32_USB_Device_Library/Class/CDC/Src/usbd_cdc.c ****                                  uint8_t epnum);
 117:/home/smartth/STM32Cube/Repository/STM32Cube_FW_F1_V1.8.4//Middlewares/ST/STM32_USB_Device_Library/Class/CDC/Src/usbd_cdc.c **** 
 118:/home/smartth/STM32Cube/Repository/STM32Cube_FW_F1_V1.8.4//Middlewares/ST/STM32_USB_Device_Library/Class/CDC/Src/usbd_cdc.c **** static uint8_t  USBD_CDC_EP0_RxReady(USBD_HandleTypeDef *pdev);
 119:/home/smartth/STM32Cube/Repository/STM32Cube_FW_F1_V1.8.4//Middlewares/ST/STM32_USB_Device_Library/Class/CDC/Src/usbd_cdc.c **** 
 120:/home/smartth/STM32Cube/Repository/STM32Cube_FW_F1_V1.8.4//Middlewares/ST/STM32_USB_Device_Library/Class/CDC/Src/usbd_cdc.c **** static uint8_t  *USBD_CDC_GetFSCfgDesc(uint16_t *length);
 121:/home/smartth/STM32Cube/Repository/STM32Cube_FW_F1_V1.8.4//Middlewares/ST/STM32_USB_Device_Library/Class/CDC/Src/usbd_cdc.c **** 
 122:/home/smartth/STM32Cube/Repository/STM32Cube_FW_F1_V1.8.4//Middlewares/ST/STM32_USB_Device_Library/Class/CDC/Src/usbd_cdc.c **** static uint8_t  *USBD_CDC_GetHSCfgDesc(uint16_t *length);
 123:/home/smartth/STM32Cube/Repository/STM32Cube_FW_F1_V1.8.4//Middlewares/ST/STM32_USB_Device_Library/Class/CDC/Src/usbd_cdc.c **** 
 124:/home/smartth/STM32Cube/Repository/STM32Cube_FW_F1_V1.8.4//Middlewares/ST/STM32_USB_Device_Library/Class/CDC/Src/usbd_cdc.c **** static uint8_t  *USBD_CDC_GetOtherSpeedCfgDesc(uint16_t *length);
 125:/home/smartth/STM32Cube/Repository/STM32Cube_FW_F1_V1.8.4//Middlewares/ST/STM32_USB_Device_Library/Class/CDC/Src/usbd_cdc.c **** 
 126:/home/smartth/STM32Cube/Repository/STM32Cube_FW_F1_V1.8.4//Middlewares/ST/STM32_USB_Device_Library/Class/CDC/Src/usbd_cdc.c **** static uint8_t  *USBD_CDC_GetOtherSpeedCfgDesc(uint16_t *length);
 127:/home/smartth/STM32Cube/Repository/STM32Cube_FW_F1_V1.8.4//Middlewares/ST/STM32_USB_Device_Library/Class/CDC/Src/usbd_cdc.c **** 
 128:/home/smartth/STM32Cube/Repository/STM32Cube_FW_F1_V1.8.4//Middlewares/ST/STM32_USB_Device_Library/Class/CDC/Src/usbd_cdc.c **** uint8_t  *USBD_CDC_GetDeviceQualifierDescriptor(uint16_t *length);
 129:/home/smartth/STM32Cube/Repository/STM32Cube_FW_F1_V1.8.4//Middlewares/ST/STM32_USB_Device_Library/Class/CDC/Src/usbd_cdc.c **** 
 130:/home/smartth/STM32Cube/Repository/STM32Cube_FW_F1_V1.8.4//Middlewares/ST/STM32_USB_Device_Library/Class/CDC/Src/usbd_cdc.c **** /* USB Standard Device Descriptor */
 131:/home/smartth/STM32Cube/Repository/STM32Cube_FW_F1_V1.8.4//Middlewares/ST/STM32_USB_Device_Library/Class/CDC/Src/usbd_cdc.c **** __ALIGN_BEGIN static uint8_t USBD_CDC_DeviceQualifierDesc[USB_LEN_DEV_QUALIFIER_DESC] __ALIGN_END =
 132:/home/smartth/STM32Cube/Repository/STM32Cube_FW_F1_V1.8.4//Middlewares/ST/STM32_USB_Device_Library/Class/CDC/Src/usbd_cdc.c **** {
 133:/home/smartth/STM32Cube/Repository/STM32Cube_FW_F1_V1.8.4//Middlewares/ST/STM32_USB_Device_Library/Class/CDC/Src/usbd_cdc.c ****   USB_LEN_DEV_QUALIFIER_DESC,
 134:/home/smartth/STM32Cube/Repository/STM32Cube_FW_F1_V1.8.4//Middlewares/ST/STM32_USB_Device_Library/Class/CDC/Src/usbd_cdc.c ****   USB_DESC_TYPE_DEVICE_QUALIFIER,
 135:/home/smartth/STM32Cube/Repository/STM32Cube_FW_F1_V1.8.4//Middlewares/ST/STM32_USB_Device_Library/Class/CDC/Src/usbd_cdc.c ****   0x00,
 136:/home/smartth/STM32Cube/Repository/STM32Cube_FW_F1_V1.8.4//Middlewares/ST/STM32_USB_Device_Library/Class/CDC/Src/usbd_cdc.c ****   0x02,
 137:/home/smartth/STM32Cube/Repository/STM32Cube_FW_F1_V1.8.4//Middlewares/ST/STM32_USB_Device_Library/Class/CDC/Src/usbd_cdc.c ****   0x00,
 138:/home/smartth/STM32Cube/Repository/STM32Cube_FW_F1_V1.8.4//Middlewares/ST/STM32_USB_Device_Library/Class/CDC/Src/usbd_cdc.c ****   0x00,
 139:/home/smartth/STM32Cube/Repository/STM32Cube_FW_F1_V1.8.4//Middlewares/ST/STM32_USB_Device_Library/Class/CDC/Src/usbd_cdc.c ****   0x00,
 140:/home/smartth/STM32Cube/Repository/STM32Cube_FW_F1_V1.8.4//Middlewares/ST/STM32_USB_Device_Library/Class/CDC/Src/usbd_cdc.c ****   0x40,
 141:/home/smartth/STM32Cube/Repository/STM32Cube_FW_F1_V1.8.4//Middlewares/ST/STM32_USB_Device_Library/Class/CDC/Src/usbd_cdc.c ****   0x01,
 142:/home/smartth/STM32Cube/Repository/STM32Cube_FW_F1_V1.8.4//Middlewares/ST/STM32_USB_Device_Library/Class/CDC/Src/usbd_cdc.c ****   0x00,
 143:/home/smartth/STM32Cube/Repository/STM32Cube_FW_F1_V1.8.4//Middlewares/ST/STM32_USB_Device_Library/Class/CDC/Src/usbd_cdc.c **** };
 144:/home/smartth/STM32Cube/Repository/STM32Cube_FW_F1_V1.8.4//Middlewares/ST/STM32_USB_Device_Library/Class/CDC/Src/usbd_cdc.c **** 
 145:/home/smartth/STM32Cube/Repository/STM32Cube_FW_F1_V1.8.4//Middlewares/ST/STM32_USB_Device_Library/Class/CDC/Src/usbd_cdc.c **** /**
 146:/home/smartth/STM32Cube/Repository/STM32Cube_FW_F1_V1.8.4//Middlewares/ST/STM32_USB_Device_Library/Class/CDC/Src/usbd_cdc.c ****   * @}
ARM GAS  /tmp/ccSzjua7.s 			page 4


 147:/home/smartth/STM32Cube/Repository/STM32Cube_FW_F1_V1.8.4//Middlewares/ST/STM32_USB_Device_Library/Class/CDC/Src/usbd_cdc.c ****   */
 148:/home/smartth/STM32Cube/Repository/STM32Cube_FW_F1_V1.8.4//Middlewares/ST/STM32_USB_Device_Library/Class/CDC/Src/usbd_cdc.c **** 
 149:/home/smartth/STM32Cube/Repository/STM32Cube_FW_F1_V1.8.4//Middlewares/ST/STM32_USB_Device_Library/Class/CDC/Src/usbd_cdc.c **** /** @defgroup USBD_CDC_Private_Variables
 150:/home/smartth/STM32Cube/Repository/STM32Cube_FW_F1_V1.8.4//Middlewares/ST/STM32_USB_Device_Library/Class/CDC/Src/usbd_cdc.c ****   * @{
 151:/home/smartth/STM32Cube/Repository/STM32Cube_FW_F1_V1.8.4//Middlewares/ST/STM32_USB_Device_Library/Class/CDC/Src/usbd_cdc.c ****   */
 152:/home/smartth/STM32Cube/Repository/STM32Cube_FW_F1_V1.8.4//Middlewares/ST/STM32_USB_Device_Library/Class/CDC/Src/usbd_cdc.c **** 
 153:/home/smartth/STM32Cube/Repository/STM32Cube_FW_F1_V1.8.4//Middlewares/ST/STM32_USB_Device_Library/Class/CDC/Src/usbd_cdc.c **** 
 154:/home/smartth/STM32Cube/Repository/STM32Cube_FW_F1_V1.8.4//Middlewares/ST/STM32_USB_Device_Library/Class/CDC/Src/usbd_cdc.c **** /* CDC interface class callbacks structure */
 155:/home/smartth/STM32Cube/Repository/STM32Cube_FW_F1_V1.8.4//Middlewares/ST/STM32_USB_Device_Library/Class/CDC/Src/usbd_cdc.c **** USBD_ClassTypeDef  USBD_CDC =
 156:/home/smartth/STM32Cube/Repository/STM32Cube_FW_F1_V1.8.4//Middlewares/ST/STM32_USB_Device_Library/Class/CDC/Src/usbd_cdc.c **** {
 157:/home/smartth/STM32Cube/Repository/STM32Cube_FW_F1_V1.8.4//Middlewares/ST/STM32_USB_Device_Library/Class/CDC/Src/usbd_cdc.c ****   USBD_CDC_Init,
 158:/home/smartth/STM32Cube/Repository/STM32Cube_FW_F1_V1.8.4//Middlewares/ST/STM32_USB_Device_Library/Class/CDC/Src/usbd_cdc.c ****   USBD_CDC_DeInit,
 159:/home/smartth/STM32Cube/Repository/STM32Cube_FW_F1_V1.8.4//Middlewares/ST/STM32_USB_Device_Library/Class/CDC/Src/usbd_cdc.c ****   USBD_CDC_Setup,
 160:/home/smartth/STM32Cube/Repository/STM32Cube_FW_F1_V1.8.4//Middlewares/ST/STM32_USB_Device_Library/Class/CDC/Src/usbd_cdc.c ****   NULL,                 /* EP0_TxSent, */
 161:/home/smartth/STM32Cube/Repository/STM32Cube_FW_F1_V1.8.4//Middlewares/ST/STM32_USB_Device_Library/Class/CDC/Src/usbd_cdc.c ****   USBD_CDC_EP0_RxReady,
 162:/home/smartth/STM32Cube/Repository/STM32Cube_FW_F1_V1.8.4//Middlewares/ST/STM32_USB_Device_Library/Class/CDC/Src/usbd_cdc.c ****   USBD_CDC_DataIn,
 163:/home/smartth/STM32Cube/Repository/STM32Cube_FW_F1_V1.8.4//Middlewares/ST/STM32_USB_Device_Library/Class/CDC/Src/usbd_cdc.c ****   USBD_CDC_DataOut,
 164:/home/smartth/STM32Cube/Repository/STM32Cube_FW_F1_V1.8.4//Middlewares/ST/STM32_USB_Device_Library/Class/CDC/Src/usbd_cdc.c ****   NULL,
 165:/home/smartth/STM32Cube/Repository/STM32Cube_FW_F1_V1.8.4//Middlewares/ST/STM32_USB_Device_Library/Class/CDC/Src/usbd_cdc.c ****   NULL,
 166:/home/smartth/STM32Cube/Repository/STM32Cube_FW_F1_V1.8.4//Middlewares/ST/STM32_USB_Device_Library/Class/CDC/Src/usbd_cdc.c ****   NULL,
 167:/home/smartth/STM32Cube/Repository/STM32Cube_FW_F1_V1.8.4//Middlewares/ST/STM32_USB_Device_Library/Class/CDC/Src/usbd_cdc.c ****   USBD_CDC_GetHSCfgDesc,
 168:/home/smartth/STM32Cube/Repository/STM32Cube_FW_F1_V1.8.4//Middlewares/ST/STM32_USB_Device_Library/Class/CDC/Src/usbd_cdc.c ****   USBD_CDC_GetFSCfgDesc,
 169:/home/smartth/STM32Cube/Repository/STM32Cube_FW_F1_V1.8.4//Middlewares/ST/STM32_USB_Device_Library/Class/CDC/Src/usbd_cdc.c ****   USBD_CDC_GetOtherSpeedCfgDesc,
 170:/home/smartth/STM32Cube/Repository/STM32Cube_FW_F1_V1.8.4//Middlewares/ST/STM32_USB_Device_Library/Class/CDC/Src/usbd_cdc.c ****   USBD_CDC_GetDeviceQualifierDescriptor,
 171:/home/smartth/STM32Cube/Repository/STM32Cube_FW_F1_V1.8.4//Middlewares/ST/STM32_USB_Device_Library/Class/CDC/Src/usbd_cdc.c **** };
 172:/home/smartth/STM32Cube/Repository/STM32Cube_FW_F1_V1.8.4//Middlewares/ST/STM32_USB_Device_Library/Class/CDC/Src/usbd_cdc.c **** 
 173:/home/smartth/STM32Cube/Repository/STM32Cube_FW_F1_V1.8.4//Middlewares/ST/STM32_USB_Device_Library/Class/CDC/Src/usbd_cdc.c **** /* USB CDC device Configuration Descriptor */
 174:/home/smartth/STM32Cube/Repository/STM32Cube_FW_F1_V1.8.4//Middlewares/ST/STM32_USB_Device_Library/Class/CDC/Src/usbd_cdc.c **** __ALIGN_BEGIN uint8_t USBD_CDC_CfgHSDesc[USB_CDC_CONFIG_DESC_SIZ] __ALIGN_END =
 175:/home/smartth/STM32Cube/Repository/STM32Cube_FW_F1_V1.8.4//Middlewares/ST/STM32_USB_Device_Library/Class/CDC/Src/usbd_cdc.c **** {
 176:/home/smartth/STM32Cube/Repository/STM32Cube_FW_F1_V1.8.4//Middlewares/ST/STM32_USB_Device_Library/Class/CDC/Src/usbd_cdc.c ****   /*Configuration Descriptor*/
 177:/home/smartth/STM32Cube/Repository/STM32Cube_FW_F1_V1.8.4//Middlewares/ST/STM32_USB_Device_Library/Class/CDC/Src/usbd_cdc.c ****   0x09,   /* bLength: Configuration Descriptor size */
 178:/home/smartth/STM32Cube/Repository/STM32Cube_FW_F1_V1.8.4//Middlewares/ST/STM32_USB_Device_Library/Class/CDC/Src/usbd_cdc.c ****   USB_DESC_TYPE_CONFIGURATION,      /* bDescriptorType: Configuration */
 179:/home/smartth/STM32Cube/Repository/STM32Cube_FW_F1_V1.8.4//Middlewares/ST/STM32_USB_Device_Library/Class/CDC/Src/usbd_cdc.c ****   USB_CDC_CONFIG_DESC_SIZ,                /* wTotalLength:no of returned bytes */
 180:/home/smartth/STM32Cube/Repository/STM32Cube_FW_F1_V1.8.4//Middlewares/ST/STM32_USB_Device_Library/Class/CDC/Src/usbd_cdc.c ****   0x00,
 181:/home/smartth/STM32Cube/Repository/STM32Cube_FW_F1_V1.8.4//Middlewares/ST/STM32_USB_Device_Library/Class/CDC/Src/usbd_cdc.c ****   0x02,   /* bNumInterfaces: 2 interface */
 182:/home/smartth/STM32Cube/Repository/STM32Cube_FW_F1_V1.8.4//Middlewares/ST/STM32_USB_Device_Library/Class/CDC/Src/usbd_cdc.c ****   0x01,   /* bConfigurationValue: Configuration value */
 183:/home/smartth/STM32Cube/Repository/STM32Cube_FW_F1_V1.8.4//Middlewares/ST/STM32_USB_Device_Library/Class/CDC/Src/usbd_cdc.c ****   0x00,   /* iConfiguration: Index of string descriptor describing the configuration */
 184:/home/smartth/STM32Cube/Repository/STM32Cube_FW_F1_V1.8.4//Middlewares/ST/STM32_USB_Device_Library/Class/CDC/Src/usbd_cdc.c ****   0xC0,   /* bmAttributes: self powered */
 185:/home/smartth/STM32Cube/Repository/STM32Cube_FW_F1_V1.8.4//Middlewares/ST/STM32_USB_Device_Library/Class/CDC/Src/usbd_cdc.c ****   0x32,   /* MaxPower 0 mA */
 186:/home/smartth/STM32Cube/Repository/STM32Cube_FW_F1_V1.8.4//Middlewares/ST/STM32_USB_Device_Library/Class/CDC/Src/usbd_cdc.c **** 
 187:/home/smartth/STM32Cube/Repository/STM32Cube_FW_F1_V1.8.4//Middlewares/ST/STM32_USB_Device_Library/Class/CDC/Src/usbd_cdc.c ****   /*---------------------------------------------------------------------------*/
 188:/home/smartth/STM32Cube/Repository/STM32Cube_FW_F1_V1.8.4//Middlewares/ST/STM32_USB_Device_Library/Class/CDC/Src/usbd_cdc.c **** 
 189:/home/smartth/STM32Cube/Repository/STM32Cube_FW_F1_V1.8.4//Middlewares/ST/STM32_USB_Device_Library/Class/CDC/Src/usbd_cdc.c ****   /*Interface Descriptor */
 190:/home/smartth/STM32Cube/Repository/STM32Cube_FW_F1_V1.8.4//Middlewares/ST/STM32_USB_Device_Library/Class/CDC/Src/usbd_cdc.c ****   0x09,   /* bLength: Interface Descriptor size */
 191:/home/smartth/STM32Cube/Repository/STM32Cube_FW_F1_V1.8.4//Middlewares/ST/STM32_USB_Device_Library/Class/CDC/Src/usbd_cdc.c ****   USB_DESC_TYPE_INTERFACE,  /* bDescriptorType: Interface */
 192:/home/smartth/STM32Cube/Repository/STM32Cube_FW_F1_V1.8.4//Middlewares/ST/STM32_USB_Device_Library/Class/CDC/Src/usbd_cdc.c ****   /* Interface descriptor type */
 193:/home/smartth/STM32Cube/Repository/STM32Cube_FW_F1_V1.8.4//Middlewares/ST/STM32_USB_Device_Library/Class/CDC/Src/usbd_cdc.c ****   0x00,   /* bInterfaceNumber: Number of Interface */
 194:/home/smartth/STM32Cube/Repository/STM32Cube_FW_F1_V1.8.4//Middlewares/ST/STM32_USB_Device_Library/Class/CDC/Src/usbd_cdc.c ****   0x00,   /* bAlternateSetting: Alternate setting */
 195:/home/smartth/STM32Cube/Repository/STM32Cube_FW_F1_V1.8.4//Middlewares/ST/STM32_USB_Device_Library/Class/CDC/Src/usbd_cdc.c ****   0x01,   /* bNumEndpoints: One endpoints used */
 196:/home/smartth/STM32Cube/Repository/STM32Cube_FW_F1_V1.8.4//Middlewares/ST/STM32_USB_Device_Library/Class/CDC/Src/usbd_cdc.c ****   0x02,   /* bInterfaceClass: Communication Interface Class */
 197:/home/smartth/STM32Cube/Repository/STM32Cube_FW_F1_V1.8.4//Middlewares/ST/STM32_USB_Device_Library/Class/CDC/Src/usbd_cdc.c ****   0x02,   /* bInterfaceSubClass: Abstract Control Model */
 198:/home/smartth/STM32Cube/Repository/STM32Cube_FW_F1_V1.8.4//Middlewares/ST/STM32_USB_Device_Library/Class/CDC/Src/usbd_cdc.c ****   0x01,   /* bInterfaceProtocol: Common AT commands */
 199:/home/smartth/STM32Cube/Repository/STM32Cube_FW_F1_V1.8.4//Middlewares/ST/STM32_USB_Device_Library/Class/CDC/Src/usbd_cdc.c ****   0x00,   /* iInterface: */
 200:/home/smartth/STM32Cube/Repository/STM32Cube_FW_F1_V1.8.4//Middlewares/ST/STM32_USB_Device_Library/Class/CDC/Src/usbd_cdc.c **** 
 201:/home/smartth/STM32Cube/Repository/STM32Cube_FW_F1_V1.8.4//Middlewares/ST/STM32_USB_Device_Library/Class/CDC/Src/usbd_cdc.c ****   /*Header Functional Descriptor*/
 202:/home/smartth/STM32Cube/Repository/STM32Cube_FW_F1_V1.8.4//Middlewares/ST/STM32_USB_Device_Library/Class/CDC/Src/usbd_cdc.c ****   0x05,   /* bLength: Endpoint Descriptor size */
 203:/home/smartth/STM32Cube/Repository/STM32Cube_FW_F1_V1.8.4//Middlewares/ST/STM32_USB_Device_Library/Class/CDC/Src/usbd_cdc.c ****   0x24,   /* bDescriptorType: CS_INTERFACE */
ARM GAS  /tmp/ccSzjua7.s 			page 5


 204:/home/smartth/STM32Cube/Repository/STM32Cube_FW_F1_V1.8.4//Middlewares/ST/STM32_USB_Device_Library/Class/CDC/Src/usbd_cdc.c ****   0x00,   /* bDescriptorSubtype: Header Func Desc */
 205:/home/smartth/STM32Cube/Repository/STM32Cube_FW_F1_V1.8.4//Middlewares/ST/STM32_USB_Device_Library/Class/CDC/Src/usbd_cdc.c ****   0x10,   /* bcdCDC: spec release number */
 206:/home/smartth/STM32Cube/Repository/STM32Cube_FW_F1_V1.8.4//Middlewares/ST/STM32_USB_Device_Library/Class/CDC/Src/usbd_cdc.c ****   0x01,
 207:/home/smartth/STM32Cube/Repository/STM32Cube_FW_F1_V1.8.4//Middlewares/ST/STM32_USB_Device_Library/Class/CDC/Src/usbd_cdc.c **** 
 208:/home/smartth/STM32Cube/Repository/STM32Cube_FW_F1_V1.8.4//Middlewares/ST/STM32_USB_Device_Library/Class/CDC/Src/usbd_cdc.c ****   /*Call Management Functional Descriptor*/
 209:/home/smartth/STM32Cube/Repository/STM32Cube_FW_F1_V1.8.4//Middlewares/ST/STM32_USB_Device_Library/Class/CDC/Src/usbd_cdc.c ****   0x05,   /* bFunctionLength */
 210:/home/smartth/STM32Cube/Repository/STM32Cube_FW_F1_V1.8.4//Middlewares/ST/STM32_USB_Device_Library/Class/CDC/Src/usbd_cdc.c ****   0x24,   /* bDescriptorType: CS_INTERFACE */
 211:/home/smartth/STM32Cube/Repository/STM32Cube_FW_F1_V1.8.4//Middlewares/ST/STM32_USB_Device_Library/Class/CDC/Src/usbd_cdc.c ****   0x01,   /* bDescriptorSubtype: Call Management Func Desc */
 212:/home/smartth/STM32Cube/Repository/STM32Cube_FW_F1_V1.8.4//Middlewares/ST/STM32_USB_Device_Library/Class/CDC/Src/usbd_cdc.c ****   0x00,   /* bmCapabilities: D0+D1 */
 213:/home/smartth/STM32Cube/Repository/STM32Cube_FW_F1_V1.8.4//Middlewares/ST/STM32_USB_Device_Library/Class/CDC/Src/usbd_cdc.c ****   0x01,   /* bDataInterface: 1 */
 214:/home/smartth/STM32Cube/Repository/STM32Cube_FW_F1_V1.8.4//Middlewares/ST/STM32_USB_Device_Library/Class/CDC/Src/usbd_cdc.c **** 
 215:/home/smartth/STM32Cube/Repository/STM32Cube_FW_F1_V1.8.4//Middlewares/ST/STM32_USB_Device_Library/Class/CDC/Src/usbd_cdc.c ****   /*ACM Functional Descriptor*/
 216:/home/smartth/STM32Cube/Repository/STM32Cube_FW_F1_V1.8.4//Middlewares/ST/STM32_USB_Device_Library/Class/CDC/Src/usbd_cdc.c ****   0x04,   /* bFunctionLength */
 217:/home/smartth/STM32Cube/Repository/STM32Cube_FW_F1_V1.8.4//Middlewares/ST/STM32_USB_Device_Library/Class/CDC/Src/usbd_cdc.c ****   0x24,   /* bDescriptorType: CS_INTERFACE */
 218:/home/smartth/STM32Cube/Repository/STM32Cube_FW_F1_V1.8.4//Middlewares/ST/STM32_USB_Device_Library/Class/CDC/Src/usbd_cdc.c ****   0x02,   /* bDescriptorSubtype: Abstract Control Management desc */
 219:/home/smartth/STM32Cube/Repository/STM32Cube_FW_F1_V1.8.4//Middlewares/ST/STM32_USB_Device_Library/Class/CDC/Src/usbd_cdc.c ****   0x02,   /* bmCapabilities */
 220:/home/smartth/STM32Cube/Repository/STM32Cube_FW_F1_V1.8.4//Middlewares/ST/STM32_USB_Device_Library/Class/CDC/Src/usbd_cdc.c **** 
 221:/home/smartth/STM32Cube/Repository/STM32Cube_FW_F1_V1.8.4//Middlewares/ST/STM32_USB_Device_Library/Class/CDC/Src/usbd_cdc.c ****   /*Union Functional Descriptor*/
 222:/home/smartth/STM32Cube/Repository/STM32Cube_FW_F1_V1.8.4//Middlewares/ST/STM32_USB_Device_Library/Class/CDC/Src/usbd_cdc.c ****   0x05,   /* bFunctionLength */
 223:/home/smartth/STM32Cube/Repository/STM32Cube_FW_F1_V1.8.4//Middlewares/ST/STM32_USB_Device_Library/Class/CDC/Src/usbd_cdc.c ****   0x24,   /* bDescriptorType: CS_INTERFACE */
 224:/home/smartth/STM32Cube/Repository/STM32Cube_FW_F1_V1.8.4//Middlewares/ST/STM32_USB_Device_Library/Class/CDC/Src/usbd_cdc.c ****   0x06,   /* bDescriptorSubtype: Union func desc */
 225:/home/smartth/STM32Cube/Repository/STM32Cube_FW_F1_V1.8.4//Middlewares/ST/STM32_USB_Device_Library/Class/CDC/Src/usbd_cdc.c ****   0x00,   /* bMasterInterface: Communication class interface */
 226:/home/smartth/STM32Cube/Repository/STM32Cube_FW_F1_V1.8.4//Middlewares/ST/STM32_USB_Device_Library/Class/CDC/Src/usbd_cdc.c ****   0x01,   /* bSlaveInterface0: Data Class Interface */
 227:/home/smartth/STM32Cube/Repository/STM32Cube_FW_F1_V1.8.4//Middlewares/ST/STM32_USB_Device_Library/Class/CDC/Src/usbd_cdc.c **** 
 228:/home/smartth/STM32Cube/Repository/STM32Cube_FW_F1_V1.8.4//Middlewares/ST/STM32_USB_Device_Library/Class/CDC/Src/usbd_cdc.c ****   /*Endpoint 2 Descriptor*/
 229:/home/smartth/STM32Cube/Repository/STM32Cube_FW_F1_V1.8.4//Middlewares/ST/STM32_USB_Device_Library/Class/CDC/Src/usbd_cdc.c ****   0x07,                           /* bLength: Endpoint Descriptor size */
 230:/home/smartth/STM32Cube/Repository/STM32Cube_FW_F1_V1.8.4//Middlewares/ST/STM32_USB_Device_Library/Class/CDC/Src/usbd_cdc.c ****   USB_DESC_TYPE_ENDPOINT,   /* bDescriptorType: Endpoint */
 231:/home/smartth/STM32Cube/Repository/STM32Cube_FW_F1_V1.8.4//Middlewares/ST/STM32_USB_Device_Library/Class/CDC/Src/usbd_cdc.c ****   CDC_CMD_EP,                     /* bEndpointAddress */
 232:/home/smartth/STM32Cube/Repository/STM32Cube_FW_F1_V1.8.4//Middlewares/ST/STM32_USB_Device_Library/Class/CDC/Src/usbd_cdc.c ****   0x03,                           /* bmAttributes: Interrupt */
 233:/home/smartth/STM32Cube/Repository/STM32Cube_FW_F1_V1.8.4//Middlewares/ST/STM32_USB_Device_Library/Class/CDC/Src/usbd_cdc.c ****   LOBYTE(CDC_CMD_PACKET_SIZE),     /* wMaxPacketSize: */
 234:/home/smartth/STM32Cube/Repository/STM32Cube_FW_F1_V1.8.4//Middlewares/ST/STM32_USB_Device_Library/Class/CDC/Src/usbd_cdc.c ****   HIBYTE(CDC_CMD_PACKET_SIZE),
 235:/home/smartth/STM32Cube/Repository/STM32Cube_FW_F1_V1.8.4//Middlewares/ST/STM32_USB_Device_Library/Class/CDC/Src/usbd_cdc.c ****   CDC_HS_BINTERVAL,                           /* bInterval: */
 236:/home/smartth/STM32Cube/Repository/STM32Cube_FW_F1_V1.8.4//Middlewares/ST/STM32_USB_Device_Library/Class/CDC/Src/usbd_cdc.c ****   /*---------------------------------------------------------------------------*/
 237:/home/smartth/STM32Cube/Repository/STM32Cube_FW_F1_V1.8.4//Middlewares/ST/STM32_USB_Device_Library/Class/CDC/Src/usbd_cdc.c **** 
 238:/home/smartth/STM32Cube/Repository/STM32Cube_FW_F1_V1.8.4//Middlewares/ST/STM32_USB_Device_Library/Class/CDC/Src/usbd_cdc.c ****   /*Data class interface descriptor*/
 239:/home/smartth/STM32Cube/Repository/STM32Cube_FW_F1_V1.8.4//Middlewares/ST/STM32_USB_Device_Library/Class/CDC/Src/usbd_cdc.c ****   0x09,   /* bLength: Endpoint Descriptor size */
 240:/home/smartth/STM32Cube/Repository/STM32Cube_FW_F1_V1.8.4//Middlewares/ST/STM32_USB_Device_Library/Class/CDC/Src/usbd_cdc.c ****   USB_DESC_TYPE_INTERFACE,  /* bDescriptorType: */
 241:/home/smartth/STM32Cube/Repository/STM32Cube_FW_F1_V1.8.4//Middlewares/ST/STM32_USB_Device_Library/Class/CDC/Src/usbd_cdc.c ****   0x01,   /* bInterfaceNumber: Number of Interface */
 242:/home/smartth/STM32Cube/Repository/STM32Cube_FW_F1_V1.8.4//Middlewares/ST/STM32_USB_Device_Library/Class/CDC/Src/usbd_cdc.c ****   0x00,   /* bAlternateSetting: Alternate setting */
 243:/home/smartth/STM32Cube/Repository/STM32Cube_FW_F1_V1.8.4//Middlewares/ST/STM32_USB_Device_Library/Class/CDC/Src/usbd_cdc.c ****   0x02,   /* bNumEndpoints: Two endpoints used */
 244:/home/smartth/STM32Cube/Repository/STM32Cube_FW_F1_V1.8.4//Middlewares/ST/STM32_USB_Device_Library/Class/CDC/Src/usbd_cdc.c ****   0x0A,   /* bInterfaceClass: CDC */
 245:/home/smartth/STM32Cube/Repository/STM32Cube_FW_F1_V1.8.4//Middlewares/ST/STM32_USB_Device_Library/Class/CDC/Src/usbd_cdc.c ****   0x00,   /* bInterfaceSubClass: */
 246:/home/smartth/STM32Cube/Repository/STM32Cube_FW_F1_V1.8.4//Middlewares/ST/STM32_USB_Device_Library/Class/CDC/Src/usbd_cdc.c ****   0x00,   /* bInterfaceProtocol: */
 247:/home/smartth/STM32Cube/Repository/STM32Cube_FW_F1_V1.8.4//Middlewares/ST/STM32_USB_Device_Library/Class/CDC/Src/usbd_cdc.c ****   0x00,   /* iInterface: */
 248:/home/smartth/STM32Cube/Repository/STM32Cube_FW_F1_V1.8.4//Middlewares/ST/STM32_USB_Device_Library/Class/CDC/Src/usbd_cdc.c **** 
 249:/home/smartth/STM32Cube/Repository/STM32Cube_FW_F1_V1.8.4//Middlewares/ST/STM32_USB_Device_Library/Class/CDC/Src/usbd_cdc.c ****   /*Endpoint OUT Descriptor*/
 250:/home/smartth/STM32Cube/Repository/STM32Cube_FW_F1_V1.8.4//Middlewares/ST/STM32_USB_Device_Library/Class/CDC/Src/usbd_cdc.c ****   0x07,   /* bLength: Endpoint Descriptor size */
 251:/home/smartth/STM32Cube/Repository/STM32Cube_FW_F1_V1.8.4//Middlewares/ST/STM32_USB_Device_Library/Class/CDC/Src/usbd_cdc.c ****   USB_DESC_TYPE_ENDPOINT,      /* bDescriptorType: Endpoint */
 252:/home/smartth/STM32Cube/Repository/STM32Cube_FW_F1_V1.8.4//Middlewares/ST/STM32_USB_Device_Library/Class/CDC/Src/usbd_cdc.c ****   CDC_OUT_EP,                        /* bEndpointAddress */
 253:/home/smartth/STM32Cube/Repository/STM32Cube_FW_F1_V1.8.4//Middlewares/ST/STM32_USB_Device_Library/Class/CDC/Src/usbd_cdc.c ****   0x02,                              /* bmAttributes: Bulk */
 254:/home/smartth/STM32Cube/Repository/STM32Cube_FW_F1_V1.8.4//Middlewares/ST/STM32_USB_Device_Library/Class/CDC/Src/usbd_cdc.c ****   LOBYTE(CDC_DATA_HS_MAX_PACKET_SIZE),  /* wMaxPacketSize: */
 255:/home/smartth/STM32Cube/Repository/STM32Cube_FW_F1_V1.8.4//Middlewares/ST/STM32_USB_Device_Library/Class/CDC/Src/usbd_cdc.c ****   HIBYTE(CDC_DATA_HS_MAX_PACKET_SIZE),
 256:/home/smartth/STM32Cube/Repository/STM32Cube_FW_F1_V1.8.4//Middlewares/ST/STM32_USB_Device_Library/Class/CDC/Src/usbd_cdc.c ****   0x00,                              /* bInterval: ignore for Bulk transfer */
 257:/home/smartth/STM32Cube/Repository/STM32Cube_FW_F1_V1.8.4//Middlewares/ST/STM32_USB_Device_Library/Class/CDC/Src/usbd_cdc.c **** 
 258:/home/smartth/STM32Cube/Repository/STM32Cube_FW_F1_V1.8.4//Middlewares/ST/STM32_USB_Device_Library/Class/CDC/Src/usbd_cdc.c ****   /*Endpoint IN Descriptor*/
 259:/home/smartth/STM32Cube/Repository/STM32Cube_FW_F1_V1.8.4//Middlewares/ST/STM32_USB_Device_Library/Class/CDC/Src/usbd_cdc.c ****   0x07,   /* bLength: Endpoint Descriptor size */
 260:/home/smartth/STM32Cube/Repository/STM32Cube_FW_F1_V1.8.4//Middlewares/ST/STM32_USB_Device_Library/Class/CDC/Src/usbd_cdc.c ****   USB_DESC_TYPE_ENDPOINT,      /* bDescriptorType: Endpoint */
ARM GAS  /tmp/ccSzjua7.s 			page 6


 261:/home/smartth/STM32Cube/Repository/STM32Cube_FW_F1_V1.8.4//Middlewares/ST/STM32_USB_Device_Library/Class/CDC/Src/usbd_cdc.c ****   CDC_IN_EP,                         /* bEndpointAddress */
 262:/home/smartth/STM32Cube/Repository/STM32Cube_FW_F1_V1.8.4//Middlewares/ST/STM32_USB_Device_Library/Class/CDC/Src/usbd_cdc.c ****   0x02,                              /* bmAttributes: Bulk */
 263:/home/smartth/STM32Cube/Repository/STM32Cube_FW_F1_V1.8.4//Middlewares/ST/STM32_USB_Device_Library/Class/CDC/Src/usbd_cdc.c ****   LOBYTE(CDC_DATA_HS_MAX_PACKET_SIZE),  /* wMaxPacketSize: */
 264:/home/smartth/STM32Cube/Repository/STM32Cube_FW_F1_V1.8.4//Middlewares/ST/STM32_USB_Device_Library/Class/CDC/Src/usbd_cdc.c ****   HIBYTE(CDC_DATA_HS_MAX_PACKET_SIZE),
 265:/home/smartth/STM32Cube/Repository/STM32Cube_FW_F1_V1.8.4//Middlewares/ST/STM32_USB_Device_Library/Class/CDC/Src/usbd_cdc.c ****   0x00                               /* bInterval: ignore for Bulk transfer */
 266:/home/smartth/STM32Cube/Repository/STM32Cube_FW_F1_V1.8.4//Middlewares/ST/STM32_USB_Device_Library/Class/CDC/Src/usbd_cdc.c **** } ;
 267:/home/smartth/STM32Cube/Repository/STM32Cube_FW_F1_V1.8.4//Middlewares/ST/STM32_USB_Device_Library/Class/CDC/Src/usbd_cdc.c **** 
 268:/home/smartth/STM32Cube/Repository/STM32Cube_FW_F1_V1.8.4//Middlewares/ST/STM32_USB_Device_Library/Class/CDC/Src/usbd_cdc.c **** 
 269:/home/smartth/STM32Cube/Repository/STM32Cube_FW_F1_V1.8.4//Middlewares/ST/STM32_USB_Device_Library/Class/CDC/Src/usbd_cdc.c **** /* USB CDC device Configuration Descriptor */
 270:/home/smartth/STM32Cube/Repository/STM32Cube_FW_F1_V1.8.4//Middlewares/ST/STM32_USB_Device_Library/Class/CDC/Src/usbd_cdc.c **** __ALIGN_BEGIN uint8_t USBD_CDC_CfgFSDesc[USB_CDC_CONFIG_DESC_SIZ] __ALIGN_END =
 271:/home/smartth/STM32Cube/Repository/STM32Cube_FW_F1_V1.8.4//Middlewares/ST/STM32_USB_Device_Library/Class/CDC/Src/usbd_cdc.c **** {
 272:/home/smartth/STM32Cube/Repository/STM32Cube_FW_F1_V1.8.4//Middlewares/ST/STM32_USB_Device_Library/Class/CDC/Src/usbd_cdc.c ****   /*Configuration Descriptor*/
 273:/home/smartth/STM32Cube/Repository/STM32Cube_FW_F1_V1.8.4//Middlewares/ST/STM32_USB_Device_Library/Class/CDC/Src/usbd_cdc.c ****   0x09,   /* bLength: Configuration Descriptor size */
 274:/home/smartth/STM32Cube/Repository/STM32Cube_FW_F1_V1.8.4//Middlewares/ST/STM32_USB_Device_Library/Class/CDC/Src/usbd_cdc.c ****   USB_DESC_TYPE_CONFIGURATION,      /* bDescriptorType: Configuration */
 275:/home/smartth/STM32Cube/Repository/STM32Cube_FW_F1_V1.8.4//Middlewares/ST/STM32_USB_Device_Library/Class/CDC/Src/usbd_cdc.c ****   USB_CDC_CONFIG_DESC_SIZ,                /* wTotalLength:no of returned bytes */
 276:/home/smartth/STM32Cube/Repository/STM32Cube_FW_F1_V1.8.4//Middlewares/ST/STM32_USB_Device_Library/Class/CDC/Src/usbd_cdc.c ****   0x00,
 277:/home/smartth/STM32Cube/Repository/STM32Cube_FW_F1_V1.8.4//Middlewares/ST/STM32_USB_Device_Library/Class/CDC/Src/usbd_cdc.c ****   0x02,   /* bNumInterfaces: 2 interface */
 278:/home/smartth/STM32Cube/Repository/STM32Cube_FW_F1_V1.8.4//Middlewares/ST/STM32_USB_Device_Library/Class/CDC/Src/usbd_cdc.c ****   0x01,   /* bConfigurationValue: Configuration value */
 279:/home/smartth/STM32Cube/Repository/STM32Cube_FW_F1_V1.8.4//Middlewares/ST/STM32_USB_Device_Library/Class/CDC/Src/usbd_cdc.c ****   0x00,   /* iConfiguration: Index of string descriptor describing the configuration */
 280:/home/smartth/STM32Cube/Repository/STM32Cube_FW_F1_V1.8.4//Middlewares/ST/STM32_USB_Device_Library/Class/CDC/Src/usbd_cdc.c ****   0xC0,   /* bmAttributes: self powered */
 281:/home/smartth/STM32Cube/Repository/STM32Cube_FW_F1_V1.8.4//Middlewares/ST/STM32_USB_Device_Library/Class/CDC/Src/usbd_cdc.c ****   0x32,   /* MaxPower 0 mA */
 282:/home/smartth/STM32Cube/Repository/STM32Cube_FW_F1_V1.8.4//Middlewares/ST/STM32_USB_Device_Library/Class/CDC/Src/usbd_cdc.c **** 
 283:/home/smartth/STM32Cube/Repository/STM32Cube_FW_F1_V1.8.4//Middlewares/ST/STM32_USB_Device_Library/Class/CDC/Src/usbd_cdc.c ****   /*---------------------------------------------------------------------------*/
 284:/home/smartth/STM32Cube/Repository/STM32Cube_FW_F1_V1.8.4//Middlewares/ST/STM32_USB_Device_Library/Class/CDC/Src/usbd_cdc.c **** 
 285:/home/smartth/STM32Cube/Repository/STM32Cube_FW_F1_V1.8.4//Middlewares/ST/STM32_USB_Device_Library/Class/CDC/Src/usbd_cdc.c ****   /*Interface Descriptor */
 286:/home/smartth/STM32Cube/Repository/STM32Cube_FW_F1_V1.8.4//Middlewares/ST/STM32_USB_Device_Library/Class/CDC/Src/usbd_cdc.c ****   0x09,   /* bLength: Interface Descriptor size */
 287:/home/smartth/STM32Cube/Repository/STM32Cube_FW_F1_V1.8.4//Middlewares/ST/STM32_USB_Device_Library/Class/CDC/Src/usbd_cdc.c ****   USB_DESC_TYPE_INTERFACE,  /* bDescriptorType: Interface */
 288:/home/smartth/STM32Cube/Repository/STM32Cube_FW_F1_V1.8.4//Middlewares/ST/STM32_USB_Device_Library/Class/CDC/Src/usbd_cdc.c ****   /* Interface descriptor type */
 289:/home/smartth/STM32Cube/Repository/STM32Cube_FW_F1_V1.8.4//Middlewares/ST/STM32_USB_Device_Library/Class/CDC/Src/usbd_cdc.c ****   0x00,   /* bInterfaceNumber: Number of Interface */
 290:/home/smartth/STM32Cube/Repository/STM32Cube_FW_F1_V1.8.4//Middlewares/ST/STM32_USB_Device_Library/Class/CDC/Src/usbd_cdc.c ****   0x00,   /* bAlternateSetting: Alternate setting */
 291:/home/smartth/STM32Cube/Repository/STM32Cube_FW_F1_V1.8.4//Middlewares/ST/STM32_USB_Device_Library/Class/CDC/Src/usbd_cdc.c ****   0x01,   /* bNumEndpoints: One endpoints used */
 292:/home/smartth/STM32Cube/Repository/STM32Cube_FW_F1_V1.8.4//Middlewares/ST/STM32_USB_Device_Library/Class/CDC/Src/usbd_cdc.c ****   0x02,   /* bInterfaceClass: Communication Interface Class */
 293:/home/smartth/STM32Cube/Repository/STM32Cube_FW_F1_V1.8.4//Middlewares/ST/STM32_USB_Device_Library/Class/CDC/Src/usbd_cdc.c ****   0x02,   /* bInterfaceSubClass: Abstract Control Model */
 294:/home/smartth/STM32Cube/Repository/STM32Cube_FW_F1_V1.8.4//Middlewares/ST/STM32_USB_Device_Library/Class/CDC/Src/usbd_cdc.c ****   0x01,   /* bInterfaceProtocol: Common AT commands */
 295:/home/smartth/STM32Cube/Repository/STM32Cube_FW_F1_V1.8.4//Middlewares/ST/STM32_USB_Device_Library/Class/CDC/Src/usbd_cdc.c ****   0x00,   /* iInterface: */
 296:/home/smartth/STM32Cube/Repository/STM32Cube_FW_F1_V1.8.4//Middlewares/ST/STM32_USB_Device_Library/Class/CDC/Src/usbd_cdc.c **** 
 297:/home/smartth/STM32Cube/Repository/STM32Cube_FW_F1_V1.8.4//Middlewares/ST/STM32_USB_Device_Library/Class/CDC/Src/usbd_cdc.c ****   /*Header Functional Descriptor*/
 298:/home/smartth/STM32Cube/Repository/STM32Cube_FW_F1_V1.8.4//Middlewares/ST/STM32_USB_Device_Library/Class/CDC/Src/usbd_cdc.c ****   0x05,   /* bLength: Endpoint Descriptor size */
 299:/home/smartth/STM32Cube/Repository/STM32Cube_FW_F1_V1.8.4//Middlewares/ST/STM32_USB_Device_Library/Class/CDC/Src/usbd_cdc.c ****   0x24,   /* bDescriptorType: CS_INTERFACE */
 300:/home/smartth/STM32Cube/Repository/STM32Cube_FW_F1_V1.8.4//Middlewares/ST/STM32_USB_Device_Library/Class/CDC/Src/usbd_cdc.c ****   0x00,   /* bDescriptorSubtype: Header Func Desc */
 301:/home/smartth/STM32Cube/Repository/STM32Cube_FW_F1_V1.8.4//Middlewares/ST/STM32_USB_Device_Library/Class/CDC/Src/usbd_cdc.c ****   0x10,   /* bcdCDC: spec release number */
 302:/home/smartth/STM32Cube/Repository/STM32Cube_FW_F1_V1.8.4//Middlewares/ST/STM32_USB_Device_Library/Class/CDC/Src/usbd_cdc.c ****   0x01,
 303:/home/smartth/STM32Cube/Repository/STM32Cube_FW_F1_V1.8.4//Middlewares/ST/STM32_USB_Device_Library/Class/CDC/Src/usbd_cdc.c **** 
 304:/home/smartth/STM32Cube/Repository/STM32Cube_FW_F1_V1.8.4//Middlewares/ST/STM32_USB_Device_Library/Class/CDC/Src/usbd_cdc.c ****   /*Call Management Functional Descriptor*/
 305:/home/smartth/STM32Cube/Repository/STM32Cube_FW_F1_V1.8.4//Middlewares/ST/STM32_USB_Device_Library/Class/CDC/Src/usbd_cdc.c ****   0x05,   /* bFunctionLength */
 306:/home/smartth/STM32Cube/Repository/STM32Cube_FW_F1_V1.8.4//Middlewares/ST/STM32_USB_Device_Library/Class/CDC/Src/usbd_cdc.c ****   0x24,   /* bDescriptorType: CS_INTERFACE */
 307:/home/smartth/STM32Cube/Repository/STM32Cube_FW_F1_V1.8.4//Middlewares/ST/STM32_USB_Device_Library/Class/CDC/Src/usbd_cdc.c ****   0x01,   /* bDescriptorSubtype: Call Management Func Desc */
 308:/home/smartth/STM32Cube/Repository/STM32Cube_FW_F1_V1.8.4//Middlewares/ST/STM32_USB_Device_Library/Class/CDC/Src/usbd_cdc.c ****   0x00,   /* bmCapabilities: D0+D1 */
 309:/home/smartth/STM32Cube/Repository/STM32Cube_FW_F1_V1.8.4//Middlewares/ST/STM32_USB_Device_Library/Class/CDC/Src/usbd_cdc.c ****   0x01,   /* bDataInterface: 1 */
 310:/home/smartth/STM32Cube/Repository/STM32Cube_FW_F1_V1.8.4//Middlewares/ST/STM32_USB_Device_Library/Class/CDC/Src/usbd_cdc.c **** 
 311:/home/smartth/STM32Cube/Repository/STM32Cube_FW_F1_V1.8.4//Middlewares/ST/STM32_USB_Device_Library/Class/CDC/Src/usbd_cdc.c ****   /*ACM Functional Descriptor*/
 312:/home/smartth/STM32Cube/Repository/STM32Cube_FW_F1_V1.8.4//Middlewares/ST/STM32_USB_Device_Library/Class/CDC/Src/usbd_cdc.c ****   0x04,   /* bFunctionLength */
 313:/home/smartth/STM32Cube/Repository/STM32Cube_FW_F1_V1.8.4//Middlewares/ST/STM32_USB_Device_Library/Class/CDC/Src/usbd_cdc.c ****   0x24,   /* bDescriptorType: CS_INTERFACE */
 314:/home/smartth/STM32Cube/Repository/STM32Cube_FW_F1_V1.8.4//Middlewares/ST/STM32_USB_Device_Library/Class/CDC/Src/usbd_cdc.c ****   0x02,   /* bDescriptorSubtype: Abstract Control Management desc */
 315:/home/smartth/STM32Cube/Repository/STM32Cube_FW_F1_V1.8.4//Middlewares/ST/STM32_USB_Device_Library/Class/CDC/Src/usbd_cdc.c ****   0x02,   /* bmCapabilities */
 316:/home/smartth/STM32Cube/Repository/STM32Cube_FW_F1_V1.8.4//Middlewares/ST/STM32_USB_Device_Library/Class/CDC/Src/usbd_cdc.c **** 
 317:/home/smartth/STM32Cube/Repository/STM32Cube_FW_F1_V1.8.4//Middlewares/ST/STM32_USB_Device_Library/Class/CDC/Src/usbd_cdc.c ****   /*Union Functional Descriptor*/
ARM GAS  /tmp/ccSzjua7.s 			page 7


 318:/home/smartth/STM32Cube/Repository/STM32Cube_FW_F1_V1.8.4//Middlewares/ST/STM32_USB_Device_Library/Class/CDC/Src/usbd_cdc.c ****   0x05,   /* bFunctionLength */
 319:/home/smartth/STM32Cube/Repository/STM32Cube_FW_F1_V1.8.4//Middlewares/ST/STM32_USB_Device_Library/Class/CDC/Src/usbd_cdc.c ****   0x24,   /* bDescriptorType: CS_INTERFACE */
 320:/home/smartth/STM32Cube/Repository/STM32Cube_FW_F1_V1.8.4//Middlewares/ST/STM32_USB_Device_Library/Class/CDC/Src/usbd_cdc.c ****   0x06,   /* bDescriptorSubtype: Union func desc */
 321:/home/smartth/STM32Cube/Repository/STM32Cube_FW_F1_V1.8.4//Middlewares/ST/STM32_USB_Device_Library/Class/CDC/Src/usbd_cdc.c ****   0x00,   /* bMasterInterface: Communication class interface */
 322:/home/smartth/STM32Cube/Repository/STM32Cube_FW_F1_V1.8.4//Middlewares/ST/STM32_USB_Device_Library/Class/CDC/Src/usbd_cdc.c ****   0x01,   /* bSlaveInterface0: Data Class Interface */
 323:/home/smartth/STM32Cube/Repository/STM32Cube_FW_F1_V1.8.4//Middlewares/ST/STM32_USB_Device_Library/Class/CDC/Src/usbd_cdc.c **** 
 324:/home/smartth/STM32Cube/Repository/STM32Cube_FW_F1_V1.8.4//Middlewares/ST/STM32_USB_Device_Library/Class/CDC/Src/usbd_cdc.c ****   /*Endpoint 2 Descriptor*/
 325:/home/smartth/STM32Cube/Repository/STM32Cube_FW_F1_V1.8.4//Middlewares/ST/STM32_USB_Device_Library/Class/CDC/Src/usbd_cdc.c ****   0x07,                           /* bLength: Endpoint Descriptor size */
 326:/home/smartth/STM32Cube/Repository/STM32Cube_FW_F1_V1.8.4//Middlewares/ST/STM32_USB_Device_Library/Class/CDC/Src/usbd_cdc.c ****   USB_DESC_TYPE_ENDPOINT,   /* bDescriptorType: Endpoint */
 327:/home/smartth/STM32Cube/Repository/STM32Cube_FW_F1_V1.8.4//Middlewares/ST/STM32_USB_Device_Library/Class/CDC/Src/usbd_cdc.c ****   CDC_CMD_EP,                     /* bEndpointAddress */
 328:/home/smartth/STM32Cube/Repository/STM32Cube_FW_F1_V1.8.4//Middlewares/ST/STM32_USB_Device_Library/Class/CDC/Src/usbd_cdc.c ****   0x03,                           /* bmAttributes: Interrupt */
 329:/home/smartth/STM32Cube/Repository/STM32Cube_FW_F1_V1.8.4//Middlewares/ST/STM32_USB_Device_Library/Class/CDC/Src/usbd_cdc.c ****   LOBYTE(CDC_CMD_PACKET_SIZE),     /* wMaxPacketSize: */
 330:/home/smartth/STM32Cube/Repository/STM32Cube_FW_F1_V1.8.4//Middlewares/ST/STM32_USB_Device_Library/Class/CDC/Src/usbd_cdc.c ****   HIBYTE(CDC_CMD_PACKET_SIZE),
 331:/home/smartth/STM32Cube/Repository/STM32Cube_FW_F1_V1.8.4//Middlewares/ST/STM32_USB_Device_Library/Class/CDC/Src/usbd_cdc.c ****   CDC_FS_BINTERVAL,                           /* bInterval: */
 332:/home/smartth/STM32Cube/Repository/STM32Cube_FW_F1_V1.8.4//Middlewares/ST/STM32_USB_Device_Library/Class/CDC/Src/usbd_cdc.c ****   /*---------------------------------------------------------------------------*/
 333:/home/smartth/STM32Cube/Repository/STM32Cube_FW_F1_V1.8.4//Middlewares/ST/STM32_USB_Device_Library/Class/CDC/Src/usbd_cdc.c **** 
 334:/home/smartth/STM32Cube/Repository/STM32Cube_FW_F1_V1.8.4//Middlewares/ST/STM32_USB_Device_Library/Class/CDC/Src/usbd_cdc.c ****   /*Data class interface descriptor*/
 335:/home/smartth/STM32Cube/Repository/STM32Cube_FW_F1_V1.8.4//Middlewares/ST/STM32_USB_Device_Library/Class/CDC/Src/usbd_cdc.c ****   0x09,   /* bLength: Endpoint Descriptor size */
 336:/home/smartth/STM32Cube/Repository/STM32Cube_FW_F1_V1.8.4//Middlewares/ST/STM32_USB_Device_Library/Class/CDC/Src/usbd_cdc.c ****   USB_DESC_TYPE_INTERFACE,  /* bDescriptorType: */
 337:/home/smartth/STM32Cube/Repository/STM32Cube_FW_F1_V1.8.4//Middlewares/ST/STM32_USB_Device_Library/Class/CDC/Src/usbd_cdc.c ****   0x01,   /* bInterfaceNumber: Number of Interface */
 338:/home/smartth/STM32Cube/Repository/STM32Cube_FW_F1_V1.8.4//Middlewares/ST/STM32_USB_Device_Library/Class/CDC/Src/usbd_cdc.c ****   0x00,   /* bAlternateSetting: Alternate setting */
 339:/home/smartth/STM32Cube/Repository/STM32Cube_FW_F1_V1.8.4//Middlewares/ST/STM32_USB_Device_Library/Class/CDC/Src/usbd_cdc.c ****   0x02,   /* bNumEndpoints: Two endpoints used */
 340:/home/smartth/STM32Cube/Repository/STM32Cube_FW_F1_V1.8.4//Middlewares/ST/STM32_USB_Device_Library/Class/CDC/Src/usbd_cdc.c ****   0x0A,   /* bInterfaceClass: CDC */
 341:/home/smartth/STM32Cube/Repository/STM32Cube_FW_F1_V1.8.4//Middlewares/ST/STM32_USB_Device_Library/Class/CDC/Src/usbd_cdc.c ****   0x00,   /* bInterfaceSubClass: */
 342:/home/smartth/STM32Cube/Repository/STM32Cube_FW_F1_V1.8.4//Middlewares/ST/STM32_USB_Device_Library/Class/CDC/Src/usbd_cdc.c ****   0x00,   /* bInterfaceProtocol: */
 343:/home/smartth/STM32Cube/Repository/STM32Cube_FW_F1_V1.8.4//Middlewares/ST/STM32_USB_Device_Library/Class/CDC/Src/usbd_cdc.c ****   0x00,   /* iInterface: */
 344:/home/smartth/STM32Cube/Repository/STM32Cube_FW_F1_V1.8.4//Middlewares/ST/STM32_USB_Device_Library/Class/CDC/Src/usbd_cdc.c **** 
 345:/home/smartth/STM32Cube/Repository/STM32Cube_FW_F1_V1.8.4//Middlewares/ST/STM32_USB_Device_Library/Class/CDC/Src/usbd_cdc.c ****   /*Endpoint OUT Descriptor*/
 346:/home/smartth/STM32Cube/Repository/STM32Cube_FW_F1_V1.8.4//Middlewares/ST/STM32_USB_Device_Library/Class/CDC/Src/usbd_cdc.c ****   0x07,   /* bLength: Endpoint Descriptor size */
 347:/home/smartth/STM32Cube/Repository/STM32Cube_FW_F1_V1.8.4//Middlewares/ST/STM32_USB_Device_Library/Class/CDC/Src/usbd_cdc.c ****   USB_DESC_TYPE_ENDPOINT,      /* bDescriptorType: Endpoint */
 348:/home/smartth/STM32Cube/Repository/STM32Cube_FW_F1_V1.8.4//Middlewares/ST/STM32_USB_Device_Library/Class/CDC/Src/usbd_cdc.c ****   CDC_OUT_EP,                        /* bEndpointAddress */
 349:/home/smartth/STM32Cube/Repository/STM32Cube_FW_F1_V1.8.4//Middlewares/ST/STM32_USB_Device_Library/Class/CDC/Src/usbd_cdc.c ****   0x02,                              /* bmAttributes: Bulk */
 350:/home/smartth/STM32Cube/Repository/STM32Cube_FW_F1_V1.8.4//Middlewares/ST/STM32_USB_Device_Library/Class/CDC/Src/usbd_cdc.c ****   LOBYTE(CDC_DATA_FS_MAX_PACKET_SIZE),  /* wMaxPacketSize: */
 351:/home/smartth/STM32Cube/Repository/STM32Cube_FW_F1_V1.8.4//Middlewares/ST/STM32_USB_Device_Library/Class/CDC/Src/usbd_cdc.c ****   HIBYTE(CDC_DATA_FS_MAX_PACKET_SIZE),
 352:/home/smartth/STM32Cube/Repository/STM32Cube_FW_F1_V1.8.4//Middlewares/ST/STM32_USB_Device_Library/Class/CDC/Src/usbd_cdc.c ****   0x00,                              /* bInterval: ignore for Bulk transfer */
 353:/home/smartth/STM32Cube/Repository/STM32Cube_FW_F1_V1.8.4//Middlewares/ST/STM32_USB_Device_Library/Class/CDC/Src/usbd_cdc.c **** 
 354:/home/smartth/STM32Cube/Repository/STM32Cube_FW_F1_V1.8.4//Middlewares/ST/STM32_USB_Device_Library/Class/CDC/Src/usbd_cdc.c ****   /*Endpoint IN Descriptor*/
 355:/home/smartth/STM32Cube/Repository/STM32Cube_FW_F1_V1.8.4//Middlewares/ST/STM32_USB_Device_Library/Class/CDC/Src/usbd_cdc.c ****   0x07,   /* bLength: Endpoint Descriptor size */
 356:/home/smartth/STM32Cube/Repository/STM32Cube_FW_F1_V1.8.4//Middlewares/ST/STM32_USB_Device_Library/Class/CDC/Src/usbd_cdc.c ****   USB_DESC_TYPE_ENDPOINT,      /* bDescriptorType: Endpoint */
 357:/home/smartth/STM32Cube/Repository/STM32Cube_FW_F1_V1.8.4//Middlewares/ST/STM32_USB_Device_Library/Class/CDC/Src/usbd_cdc.c ****   CDC_IN_EP,                         /* bEndpointAddress */
 358:/home/smartth/STM32Cube/Repository/STM32Cube_FW_F1_V1.8.4//Middlewares/ST/STM32_USB_Device_Library/Class/CDC/Src/usbd_cdc.c ****   0x02,                              /* bmAttributes: Bulk */
 359:/home/smartth/STM32Cube/Repository/STM32Cube_FW_F1_V1.8.4//Middlewares/ST/STM32_USB_Device_Library/Class/CDC/Src/usbd_cdc.c ****   LOBYTE(CDC_DATA_FS_MAX_PACKET_SIZE),  /* wMaxPacketSize: */
 360:/home/smartth/STM32Cube/Repository/STM32Cube_FW_F1_V1.8.4//Middlewares/ST/STM32_USB_Device_Library/Class/CDC/Src/usbd_cdc.c ****   HIBYTE(CDC_DATA_FS_MAX_PACKET_SIZE),
 361:/home/smartth/STM32Cube/Repository/STM32Cube_FW_F1_V1.8.4//Middlewares/ST/STM32_USB_Device_Library/Class/CDC/Src/usbd_cdc.c ****   0x00                               /* bInterval: ignore for Bulk transfer */
 362:/home/smartth/STM32Cube/Repository/STM32Cube_FW_F1_V1.8.4//Middlewares/ST/STM32_USB_Device_Library/Class/CDC/Src/usbd_cdc.c **** } ;
 363:/home/smartth/STM32Cube/Repository/STM32Cube_FW_F1_V1.8.4//Middlewares/ST/STM32_USB_Device_Library/Class/CDC/Src/usbd_cdc.c **** 
 364:/home/smartth/STM32Cube/Repository/STM32Cube_FW_F1_V1.8.4//Middlewares/ST/STM32_USB_Device_Library/Class/CDC/Src/usbd_cdc.c **** __ALIGN_BEGIN uint8_t USBD_CDC_OtherSpeedCfgDesc[USB_CDC_CONFIG_DESC_SIZ] __ALIGN_END =
 365:/home/smartth/STM32Cube/Repository/STM32Cube_FW_F1_V1.8.4//Middlewares/ST/STM32_USB_Device_Library/Class/CDC/Src/usbd_cdc.c **** {
 366:/home/smartth/STM32Cube/Repository/STM32Cube_FW_F1_V1.8.4//Middlewares/ST/STM32_USB_Device_Library/Class/CDC/Src/usbd_cdc.c ****   0x09,   /* bLength: Configuation Descriptor size */
 367:/home/smartth/STM32Cube/Repository/STM32Cube_FW_F1_V1.8.4//Middlewares/ST/STM32_USB_Device_Library/Class/CDC/Src/usbd_cdc.c ****   USB_DESC_TYPE_OTHER_SPEED_CONFIGURATION,
 368:/home/smartth/STM32Cube/Repository/STM32Cube_FW_F1_V1.8.4//Middlewares/ST/STM32_USB_Device_Library/Class/CDC/Src/usbd_cdc.c ****   USB_CDC_CONFIG_DESC_SIZ,
 369:/home/smartth/STM32Cube/Repository/STM32Cube_FW_F1_V1.8.4//Middlewares/ST/STM32_USB_Device_Library/Class/CDC/Src/usbd_cdc.c ****   0x00,
 370:/home/smartth/STM32Cube/Repository/STM32Cube_FW_F1_V1.8.4//Middlewares/ST/STM32_USB_Device_Library/Class/CDC/Src/usbd_cdc.c ****   0x02,   /* bNumInterfaces: 2 interfaces */
 371:/home/smartth/STM32Cube/Repository/STM32Cube_FW_F1_V1.8.4//Middlewares/ST/STM32_USB_Device_Library/Class/CDC/Src/usbd_cdc.c ****   0x01,   /* bConfigurationValue: */
 372:/home/smartth/STM32Cube/Repository/STM32Cube_FW_F1_V1.8.4//Middlewares/ST/STM32_USB_Device_Library/Class/CDC/Src/usbd_cdc.c ****   0x04,   /* iConfiguration: */
 373:/home/smartth/STM32Cube/Repository/STM32Cube_FW_F1_V1.8.4//Middlewares/ST/STM32_USB_Device_Library/Class/CDC/Src/usbd_cdc.c ****   0xC0,   /* bmAttributes: */
 374:/home/smartth/STM32Cube/Repository/STM32Cube_FW_F1_V1.8.4//Middlewares/ST/STM32_USB_Device_Library/Class/CDC/Src/usbd_cdc.c ****   0x32,   /* MaxPower 100 mA */
ARM GAS  /tmp/ccSzjua7.s 			page 8


 375:/home/smartth/STM32Cube/Repository/STM32Cube_FW_F1_V1.8.4//Middlewares/ST/STM32_USB_Device_Library/Class/CDC/Src/usbd_cdc.c **** 
 376:/home/smartth/STM32Cube/Repository/STM32Cube_FW_F1_V1.8.4//Middlewares/ST/STM32_USB_Device_Library/Class/CDC/Src/usbd_cdc.c ****   /*Interface Descriptor */
 377:/home/smartth/STM32Cube/Repository/STM32Cube_FW_F1_V1.8.4//Middlewares/ST/STM32_USB_Device_Library/Class/CDC/Src/usbd_cdc.c ****   0x09,   /* bLength: Interface Descriptor size */
 378:/home/smartth/STM32Cube/Repository/STM32Cube_FW_F1_V1.8.4//Middlewares/ST/STM32_USB_Device_Library/Class/CDC/Src/usbd_cdc.c ****   USB_DESC_TYPE_INTERFACE,  /* bDescriptorType: Interface */
 379:/home/smartth/STM32Cube/Repository/STM32Cube_FW_F1_V1.8.4//Middlewares/ST/STM32_USB_Device_Library/Class/CDC/Src/usbd_cdc.c ****   /* Interface descriptor type */
 380:/home/smartth/STM32Cube/Repository/STM32Cube_FW_F1_V1.8.4//Middlewares/ST/STM32_USB_Device_Library/Class/CDC/Src/usbd_cdc.c ****   0x00,   /* bInterfaceNumber: Number of Interface */
 381:/home/smartth/STM32Cube/Repository/STM32Cube_FW_F1_V1.8.4//Middlewares/ST/STM32_USB_Device_Library/Class/CDC/Src/usbd_cdc.c ****   0x00,   /* bAlternateSetting: Alternate setting */
 382:/home/smartth/STM32Cube/Repository/STM32Cube_FW_F1_V1.8.4//Middlewares/ST/STM32_USB_Device_Library/Class/CDC/Src/usbd_cdc.c ****   0x01,   /* bNumEndpoints: One endpoints used */
 383:/home/smartth/STM32Cube/Repository/STM32Cube_FW_F1_V1.8.4//Middlewares/ST/STM32_USB_Device_Library/Class/CDC/Src/usbd_cdc.c ****   0x02,   /* bInterfaceClass: Communication Interface Class */
 384:/home/smartth/STM32Cube/Repository/STM32Cube_FW_F1_V1.8.4//Middlewares/ST/STM32_USB_Device_Library/Class/CDC/Src/usbd_cdc.c ****   0x02,   /* bInterfaceSubClass: Abstract Control Model */
 385:/home/smartth/STM32Cube/Repository/STM32Cube_FW_F1_V1.8.4//Middlewares/ST/STM32_USB_Device_Library/Class/CDC/Src/usbd_cdc.c ****   0x01,   /* bInterfaceProtocol: Common AT commands */
 386:/home/smartth/STM32Cube/Repository/STM32Cube_FW_F1_V1.8.4//Middlewares/ST/STM32_USB_Device_Library/Class/CDC/Src/usbd_cdc.c ****   0x00,   /* iInterface: */
 387:/home/smartth/STM32Cube/Repository/STM32Cube_FW_F1_V1.8.4//Middlewares/ST/STM32_USB_Device_Library/Class/CDC/Src/usbd_cdc.c **** 
 388:/home/smartth/STM32Cube/Repository/STM32Cube_FW_F1_V1.8.4//Middlewares/ST/STM32_USB_Device_Library/Class/CDC/Src/usbd_cdc.c ****   /*Header Functional Descriptor*/
 389:/home/smartth/STM32Cube/Repository/STM32Cube_FW_F1_V1.8.4//Middlewares/ST/STM32_USB_Device_Library/Class/CDC/Src/usbd_cdc.c ****   0x05,   /* bLength: Endpoint Descriptor size */
 390:/home/smartth/STM32Cube/Repository/STM32Cube_FW_F1_V1.8.4//Middlewares/ST/STM32_USB_Device_Library/Class/CDC/Src/usbd_cdc.c ****   0x24,   /* bDescriptorType: CS_INTERFACE */
 391:/home/smartth/STM32Cube/Repository/STM32Cube_FW_F1_V1.8.4//Middlewares/ST/STM32_USB_Device_Library/Class/CDC/Src/usbd_cdc.c ****   0x00,   /* bDescriptorSubtype: Header Func Desc */
 392:/home/smartth/STM32Cube/Repository/STM32Cube_FW_F1_V1.8.4//Middlewares/ST/STM32_USB_Device_Library/Class/CDC/Src/usbd_cdc.c ****   0x10,   /* bcdCDC: spec release number */
 393:/home/smartth/STM32Cube/Repository/STM32Cube_FW_F1_V1.8.4//Middlewares/ST/STM32_USB_Device_Library/Class/CDC/Src/usbd_cdc.c ****   0x01,
 394:/home/smartth/STM32Cube/Repository/STM32Cube_FW_F1_V1.8.4//Middlewares/ST/STM32_USB_Device_Library/Class/CDC/Src/usbd_cdc.c **** 
 395:/home/smartth/STM32Cube/Repository/STM32Cube_FW_F1_V1.8.4//Middlewares/ST/STM32_USB_Device_Library/Class/CDC/Src/usbd_cdc.c ****   /*Call Management Functional Descriptor*/
 396:/home/smartth/STM32Cube/Repository/STM32Cube_FW_F1_V1.8.4//Middlewares/ST/STM32_USB_Device_Library/Class/CDC/Src/usbd_cdc.c ****   0x05,   /* bFunctionLength */
 397:/home/smartth/STM32Cube/Repository/STM32Cube_FW_F1_V1.8.4//Middlewares/ST/STM32_USB_Device_Library/Class/CDC/Src/usbd_cdc.c ****   0x24,   /* bDescriptorType: CS_INTERFACE */
 398:/home/smartth/STM32Cube/Repository/STM32Cube_FW_F1_V1.8.4//Middlewares/ST/STM32_USB_Device_Library/Class/CDC/Src/usbd_cdc.c ****   0x01,   /* bDescriptorSubtype: Call Management Func Desc */
 399:/home/smartth/STM32Cube/Repository/STM32Cube_FW_F1_V1.8.4//Middlewares/ST/STM32_USB_Device_Library/Class/CDC/Src/usbd_cdc.c ****   0x00,   /* bmCapabilities: D0+D1 */
 400:/home/smartth/STM32Cube/Repository/STM32Cube_FW_F1_V1.8.4//Middlewares/ST/STM32_USB_Device_Library/Class/CDC/Src/usbd_cdc.c ****   0x01,   /* bDataInterface: 1 */
 401:/home/smartth/STM32Cube/Repository/STM32Cube_FW_F1_V1.8.4//Middlewares/ST/STM32_USB_Device_Library/Class/CDC/Src/usbd_cdc.c **** 
 402:/home/smartth/STM32Cube/Repository/STM32Cube_FW_F1_V1.8.4//Middlewares/ST/STM32_USB_Device_Library/Class/CDC/Src/usbd_cdc.c ****   /*ACM Functional Descriptor*/
 403:/home/smartth/STM32Cube/Repository/STM32Cube_FW_F1_V1.8.4//Middlewares/ST/STM32_USB_Device_Library/Class/CDC/Src/usbd_cdc.c ****   0x04,   /* bFunctionLength */
 404:/home/smartth/STM32Cube/Repository/STM32Cube_FW_F1_V1.8.4//Middlewares/ST/STM32_USB_Device_Library/Class/CDC/Src/usbd_cdc.c ****   0x24,   /* bDescriptorType: CS_INTERFACE */
 405:/home/smartth/STM32Cube/Repository/STM32Cube_FW_F1_V1.8.4//Middlewares/ST/STM32_USB_Device_Library/Class/CDC/Src/usbd_cdc.c ****   0x02,   /* bDescriptorSubtype: Abstract Control Management desc */
 406:/home/smartth/STM32Cube/Repository/STM32Cube_FW_F1_V1.8.4//Middlewares/ST/STM32_USB_Device_Library/Class/CDC/Src/usbd_cdc.c ****   0x02,   /* bmCapabilities */
 407:/home/smartth/STM32Cube/Repository/STM32Cube_FW_F1_V1.8.4//Middlewares/ST/STM32_USB_Device_Library/Class/CDC/Src/usbd_cdc.c **** 
 408:/home/smartth/STM32Cube/Repository/STM32Cube_FW_F1_V1.8.4//Middlewares/ST/STM32_USB_Device_Library/Class/CDC/Src/usbd_cdc.c ****   /*Union Functional Descriptor*/
 409:/home/smartth/STM32Cube/Repository/STM32Cube_FW_F1_V1.8.4//Middlewares/ST/STM32_USB_Device_Library/Class/CDC/Src/usbd_cdc.c ****   0x05,   /* bFunctionLength */
 410:/home/smartth/STM32Cube/Repository/STM32Cube_FW_F1_V1.8.4//Middlewares/ST/STM32_USB_Device_Library/Class/CDC/Src/usbd_cdc.c ****   0x24,   /* bDescriptorType: CS_INTERFACE */
 411:/home/smartth/STM32Cube/Repository/STM32Cube_FW_F1_V1.8.4//Middlewares/ST/STM32_USB_Device_Library/Class/CDC/Src/usbd_cdc.c ****   0x06,   /* bDescriptorSubtype: Union func desc */
 412:/home/smartth/STM32Cube/Repository/STM32Cube_FW_F1_V1.8.4//Middlewares/ST/STM32_USB_Device_Library/Class/CDC/Src/usbd_cdc.c ****   0x00,   /* bMasterInterface: Communication class interface */
 413:/home/smartth/STM32Cube/Repository/STM32Cube_FW_F1_V1.8.4//Middlewares/ST/STM32_USB_Device_Library/Class/CDC/Src/usbd_cdc.c ****   0x01,   /* bSlaveInterface0: Data Class Interface */
 414:/home/smartth/STM32Cube/Repository/STM32Cube_FW_F1_V1.8.4//Middlewares/ST/STM32_USB_Device_Library/Class/CDC/Src/usbd_cdc.c **** 
 415:/home/smartth/STM32Cube/Repository/STM32Cube_FW_F1_V1.8.4//Middlewares/ST/STM32_USB_Device_Library/Class/CDC/Src/usbd_cdc.c ****   /*Endpoint 2 Descriptor*/
 416:/home/smartth/STM32Cube/Repository/STM32Cube_FW_F1_V1.8.4//Middlewares/ST/STM32_USB_Device_Library/Class/CDC/Src/usbd_cdc.c ****   0x07,                           /* bLength: Endpoint Descriptor size */
 417:/home/smartth/STM32Cube/Repository/STM32Cube_FW_F1_V1.8.4//Middlewares/ST/STM32_USB_Device_Library/Class/CDC/Src/usbd_cdc.c ****   USB_DESC_TYPE_ENDPOINT,         /* bDescriptorType: Endpoint */
 418:/home/smartth/STM32Cube/Repository/STM32Cube_FW_F1_V1.8.4//Middlewares/ST/STM32_USB_Device_Library/Class/CDC/Src/usbd_cdc.c ****   CDC_CMD_EP,                     /* bEndpointAddress */
 419:/home/smartth/STM32Cube/Repository/STM32Cube_FW_F1_V1.8.4//Middlewares/ST/STM32_USB_Device_Library/Class/CDC/Src/usbd_cdc.c ****   0x03,                           /* bmAttributes: Interrupt */
 420:/home/smartth/STM32Cube/Repository/STM32Cube_FW_F1_V1.8.4//Middlewares/ST/STM32_USB_Device_Library/Class/CDC/Src/usbd_cdc.c ****   LOBYTE(CDC_CMD_PACKET_SIZE),     /* wMaxPacketSize: */
 421:/home/smartth/STM32Cube/Repository/STM32Cube_FW_F1_V1.8.4//Middlewares/ST/STM32_USB_Device_Library/Class/CDC/Src/usbd_cdc.c ****   HIBYTE(CDC_CMD_PACKET_SIZE),
 422:/home/smartth/STM32Cube/Repository/STM32Cube_FW_F1_V1.8.4//Middlewares/ST/STM32_USB_Device_Library/Class/CDC/Src/usbd_cdc.c ****   CDC_FS_BINTERVAL,                           /* bInterval: */
 423:/home/smartth/STM32Cube/Repository/STM32Cube_FW_F1_V1.8.4//Middlewares/ST/STM32_USB_Device_Library/Class/CDC/Src/usbd_cdc.c **** 
 424:/home/smartth/STM32Cube/Repository/STM32Cube_FW_F1_V1.8.4//Middlewares/ST/STM32_USB_Device_Library/Class/CDC/Src/usbd_cdc.c ****   /*---------------------------------------------------------------------------*/
 425:/home/smartth/STM32Cube/Repository/STM32Cube_FW_F1_V1.8.4//Middlewares/ST/STM32_USB_Device_Library/Class/CDC/Src/usbd_cdc.c **** 
 426:/home/smartth/STM32Cube/Repository/STM32Cube_FW_F1_V1.8.4//Middlewares/ST/STM32_USB_Device_Library/Class/CDC/Src/usbd_cdc.c ****   /*Data class interface descriptor*/
 427:/home/smartth/STM32Cube/Repository/STM32Cube_FW_F1_V1.8.4//Middlewares/ST/STM32_USB_Device_Library/Class/CDC/Src/usbd_cdc.c ****   0x09,   /* bLength: Endpoint Descriptor size */
 428:/home/smartth/STM32Cube/Repository/STM32Cube_FW_F1_V1.8.4//Middlewares/ST/STM32_USB_Device_Library/Class/CDC/Src/usbd_cdc.c ****   USB_DESC_TYPE_INTERFACE,  /* bDescriptorType: */
 429:/home/smartth/STM32Cube/Repository/STM32Cube_FW_F1_V1.8.4//Middlewares/ST/STM32_USB_Device_Library/Class/CDC/Src/usbd_cdc.c ****   0x01,   /* bInterfaceNumber: Number of Interface */
 430:/home/smartth/STM32Cube/Repository/STM32Cube_FW_F1_V1.8.4//Middlewares/ST/STM32_USB_Device_Library/Class/CDC/Src/usbd_cdc.c ****   0x00,   /* bAlternateSetting: Alternate setting */
 431:/home/smartth/STM32Cube/Repository/STM32Cube_FW_F1_V1.8.4//Middlewares/ST/STM32_USB_Device_Library/Class/CDC/Src/usbd_cdc.c ****   0x02,   /* bNumEndpoints: Two endpoints used */
ARM GAS  /tmp/ccSzjua7.s 			page 9


 432:/home/smartth/STM32Cube/Repository/STM32Cube_FW_F1_V1.8.4//Middlewares/ST/STM32_USB_Device_Library/Class/CDC/Src/usbd_cdc.c ****   0x0A,   /* bInterfaceClass: CDC */
 433:/home/smartth/STM32Cube/Repository/STM32Cube_FW_F1_V1.8.4//Middlewares/ST/STM32_USB_Device_Library/Class/CDC/Src/usbd_cdc.c ****   0x00,   /* bInterfaceSubClass: */
 434:/home/smartth/STM32Cube/Repository/STM32Cube_FW_F1_V1.8.4//Middlewares/ST/STM32_USB_Device_Library/Class/CDC/Src/usbd_cdc.c ****   0x00,   /* bInterfaceProtocol: */
 435:/home/smartth/STM32Cube/Repository/STM32Cube_FW_F1_V1.8.4//Middlewares/ST/STM32_USB_Device_Library/Class/CDC/Src/usbd_cdc.c ****   0x00,   /* iInterface: */
 436:/home/smartth/STM32Cube/Repository/STM32Cube_FW_F1_V1.8.4//Middlewares/ST/STM32_USB_Device_Library/Class/CDC/Src/usbd_cdc.c **** 
 437:/home/smartth/STM32Cube/Repository/STM32Cube_FW_F1_V1.8.4//Middlewares/ST/STM32_USB_Device_Library/Class/CDC/Src/usbd_cdc.c ****   /*Endpoint OUT Descriptor*/
 438:/home/smartth/STM32Cube/Repository/STM32Cube_FW_F1_V1.8.4//Middlewares/ST/STM32_USB_Device_Library/Class/CDC/Src/usbd_cdc.c ****   0x07,   /* bLength: Endpoint Descriptor size */
 439:/home/smartth/STM32Cube/Repository/STM32Cube_FW_F1_V1.8.4//Middlewares/ST/STM32_USB_Device_Library/Class/CDC/Src/usbd_cdc.c ****   USB_DESC_TYPE_ENDPOINT,      /* bDescriptorType: Endpoint */
 440:/home/smartth/STM32Cube/Repository/STM32Cube_FW_F1_V1.8.4//Middlewares/ST/STM32_USB_Device_Library/Class/CDC/Src/usbd_cdc.c ****   CDC_OUT_EP,                        /* bEndpointAddress */
 441:/home/smartth/STM32Cube/Repository/STM32Cube_FW_F1_V1.8.4//Middlewares/ST/STM32_USB_Device_Library/Class/CDC/Src/usbd_cdc.c ****   0x02,                              /* bmAttributes: Bulk */
 442:/home/smartth/STM32Cube/Repository/STM32Cube_FW_F1_V1.8.4//Middlewares/ST/STM32_USB_Device_Library/Class/CDC/Src/usbd_cdc.c ****   0x40,                              /* wMaxPacketSize: */
 443:/home/smartth/STM32Cube/Repository/STM32Cube_FW_F1_V1.8.4//Middlewares/ST/STM32_USB_Device_Library/Class/CDC/Src/usbd_cdc.c ****   0x00,
 444:/home/smartth/STM32Cube/Repository/STM32Cube_FW_F1_V1.8.4//Middlewares/ST/STM32_USB_Device_Library/Class/CDC/Src/usbd_cdc.c ****   0x00,                              /* bInterval: ignore for Bulk transfer */
 445:/home/smartth/STM32Cube/Repository/STM32Cube_FW_F1_V1.8.4//Middlewares/ST/STM32_USB_Device_Library/Class/CDC/Src/usbd_cdc.c **** 
 446:/home/smartth/STM32Cube/Repository/STM32Cube_FW_F1_V1.8.4//Middlewares/ST/STM32_USB_Device_Library/Class/CDC/Src/usbd_cdc.c ****   /*Endpoint IN Descriptor*/
 447:/home/smartth/STM32Cube/Repository/STM32Cube_FW_F1_V1.8.4//Middlewares/ST/STM32_USB_Device_Library/Class/CDC/Src/usbd_cdc.c ****   0x07,   /* bLength: Endpoint Descriptor size */
 448:/home/smartth/STM32Cube/Repository/STM32Cube_FW_F1_V1.8.4//Middlewares/ST/STM32_USB_Device_Library/Class/CDC/Src/usbd_cdc.c ****   USB_DESC_TYPE_ENDPOINT,     /* bDescriptorType: Endpoint */
 449:/home/smartth/STM32Cube/Repository/STM32Cube_FW_F1_V1.8.4//Middlewares/ST/STM32_USB_Device_Library/Class/CDC/Src/usbd_cdc.c ****   CDC_IN_EP,                        /* bEndpointAddress */
 450:/home/smartth/STM32Cube/Repository/STM32Cube_FW_F1_V1.8.4//Middlewares/ST/STM32_USB_Device_Library/Class/CDC/Src/usbd_cdc.c ****   0x02,                             /* bmAttributes: Bulk */
 451:/home/smartth/STM32Cube/Repository/STM32Cube_FW_F1_V1.8.4//Middlewares/ST/STM32_USB_Device_Library/Class/CDC/Src/usbd_cdc.c ****   0x40,                             /* wMaxPacketSize: */
 452:/home/smartth/STM32Cube/Repository/STM32Cube_FW_F1_V1.8.4//Middlewares/ST/STM32_USB_Device_Library/Class/CDC/Src/usbd_cdc.c ****   0x00,
 453:/home/smartth/STM32Cube/Repository/STM32Cube_FW_F1_V1.8.4//Middlewares/ST/STM32_USB_Device_Library/Class/CDC/Src/usbd_cdc.c ****   0x00                              /* bInterval */
 454:/home/smartth/STM32Cube/Repository/STM32Cube_FW_F1_V1.8.4//Middlewares/ST/STM32_USB_Device_Library/Class/CDC/Src/usbd_cdc.c **** };
 455:/home/smartth/STM32Cube/Repository/STM32Cube_FW_F1_V1.8.4//Middlewares/ST/STM32_USB_Device_Library/Class/CDC/Src/usbd_cdc.c **** 
 456:/home/smartth/STM32Cube/Repository/STM32Cube_FW_F1_V1.8.4//Middlewares/ST/STM32_USB_Device_Library/Class/CDC/Src/usbd_cdc.c **** /**
 457:/home/smartth/STM32Cube/Repository/STM32Cube_FW_F1_V1.8.4//Middlewares/ST/STM32_USB_Device_Library/Class/CDC/Src/usbd_cdc.c ****   * @}
 458:/home/smartth/STM32Cube/Repository/STM32Cube_FW_F1_V1.8.4//Middlewares/ST/STM32_USB_Device_Library/Class/CDC/Src/usbd_cdc.c ****   */
 459:/home/smartth/STM32Cube/Repository/STM32Cube_FW_F1_V1.8.4//Middlewares/ST/STM32_USB_Device_Library/Class/CDC/Src/usbd_cdc.c **** 
 460:/home/smartth/STM32Cube/Repository/STM32Cube_FW_F1_V1.8.4//Middlewares/ST/STM32_USB_Device_Library/Class/CDC/Src/usbd_cdc.c **** /** @defgroup USBD_CDC_Private_Functions
 461:/home/smartth/STM32Cube/Repository/STM32Cube_FW_F1_V1.8.4//Middlewares/ST/STM32_USB_Device_Library/Class/CDC/Src/usbd_cdc.c ****   * @{
 462:/home/smartth/STM32Cube/Repository/STM32Cube_FW_F1_V1.8.4//Middlewares/ST/STM32_USB_Device_Library/Class/CDC/Src/usbd_cdc.c ****   */
 463:/home/smartth/STM32Cube/Repository/STM32Cube_FW_F1_V1.8.4//Middlewares/ST/STM32_USB_Device_Library/Class/CDC/Src/usbd_cdc.c **** 
 464:/home/smartth/STM32Cube/Repository/STM32Cube_FW_F1_V1.8.4//Middlewares/ST/STM32_USB_Device_Library/Class/CDC/Src/usbd_cdc.c **** /**
 465:/home/smartth/STM32Cube/Repository/STM32Cube_FW_F1_V1.8.4//Middlewares/ST/STM32_USB_Device_Library/Class/CDC/Src/usbd_cdc.c ****   * @brief  USBD_CDC_Init
 466:/home/smartth/STM32Cube/Repository/STM32Cube_FW_F1_V1.8.4//Middlewares/ST/STM32_USB_Device_Library/Class/CDC/Src/usbd_cdc.c ****   *         Initialize the CDC interface
 467:/home/smartth/STM32Cube/Repository/STM32Cube_FW_F1_V1.8.4//Middlewares/ST/STM32_USB_Device_Library/Class/CDC/Src/usbd_cdc.c ****   * @param  pdev: device instance
 468:/home/smartth/STM32Cube/Repository/STM32Cube_FW_F1_V1.8.4//Middlewares/ST/STM32_USB_Device_Library/Class/CDC/Src/usbd_cdc.c ****   * @param  cfgidx: Configuration index
 469:/home/smartth/STM32Cube/Repository/STM32Cube_FW_F1_V1.8.4//Middlewares/ST/STM32_USB_Device_Library/Class/CDC/Src/usbd_cdc.c ****   * @retval status
 470:/home/smartth/STM32Cube/Repository/STM32Cube_FW_F1_V1.8.4//Middlewares/ST/STM32_USB_Device_Library/Class/CDC/Src/usbd_cdc.c ****   */
 471:/home/smartth/STM32Cube/Repository/STM32Cube_FW_F1_V1.8.4//Middlewares/ST/STM32_USB_Device_Library/Class/CDC/Src/usbd_cdc.c **** static uint8_t  USBD_CDC_Init(USBD_HandleTypeDef *pdev, uint8_t cfgidx)
 472:/home/smartth/STM32Cube/Repository/STM32Cube_FW_F1_V1.8.4//Middlewares/ST/STM32_USB_Device_Library/Class/CDC/Src/usbd_cdc.c **** {
 473:/home/smartth/STM32Cube/Repository/STM32Cube_FW_F1_V1.8.4//Middlewares/ST/STM32_USB_Device_Library/Class/CDC/Src/usbd_cdc.c ****   uint8_t ret = 0U;
 474:/home/smartth/STM32Cube/Repository/STM32Cube_FW_F1_V1.8.4//Middlewares/ST/STM32_USB_Device_Library/Class/CDC/Src/usbd_cdc.c ****   USBD_CDC_HandleTypeDef   *hcdc;
 475:/home/smartth/STM32Cube/Repository/STM32Cube_FW_F1_V1.8.4//Middlewares/ST/STM32_USB_Device_Library/Class/CDC/Src/usbd_cdc.c **** 
 476:/home/smartth/STM32Cube/Repository/STM32Cube_FW_F1_V1.8.4//Middlewares/ST/STM32_USB_Device_Library/Class/CDC/Src/usbd_cdc.c ****   if (pdev->dev_speed == USBD_SPEED_HIGH)
 477:/home/smartth/STM32Cube/Repository/STM32Cube_FW_F1_V1.8.4//Middlewares/ST/STM32_USB_Device_Library/Class/CDC/Src/usbd_cdc.c ****   {
 478:/home/smartth/STM32Cube/Repository/STM32Cube_FW_F1_V1.8.4//Middlewares/ST/STM32_USB_Device_Library/Class/CDC/Src/usbd_cdc.c ****     /* Open EP IN */
 479:/home/smartth/STM32Cube/Repository/STM32Cube_FW_F1_V1.8.4//Middlewares/ST/STM32_USB_Device_Library/Class/CDC/Src/usbd_cdc.c ****     USBD_LL_OpenEP(pdev, CDC_IN_EP, USBD_EP_TYPE_BULK,
 480:/home/smartth/STM32Cube/Repository/STM32Cube_FW_F1_V1.8.4//Middlewares/ST/STM32_USB_Device_Library/Class/CDC/Src/usbd_cdc.c ****                    CDC_DATA_HS_IN_PACKET_SIZE);
 481:/home/smartth/STM32Cube/Repository/STM32Cube_FW_F1_V1.8.4//Middlewares/ST/STM32_USB_Device_Library/Class/CDC/Src/usbd_cdc.c **** 
 482:/home/smartth/STM32Cube/Repository/STM32Cube_FW_F1_V1.8.4//Middlewares/ST/STM32_USB_Device_Library/Class/CDC/Src/usbd_cdc.c ****     pdev->ep_in[CDC_IN_EP & 0xFU].is_used = 1U;
 483:/home/smartth/STM32Cube/Repository/STM32Cube_FW_F1_V1.8.4//Middlewares/ST/STM32_USB_Device_Library/Class/CDC/Src/usbd_cdc.c **** 
 484:/home/smartth/STM32Cube/Repository/STM32Cube_FW_F1_V1.8.4//Middlewares/ST/STM32_USB_Device_Library/Class/CDC/Src/usbd_cdc.c ****     /* Open EP OUT */
 485:/home/smartth/STM32Cube/Repository/STM32Cube_FW_F1_V1.8.4//Middlewares/ST/STM32_USB_Device_Library/Class/CDC/Src/usbd_cdc.c ****     USBD_LL_OpenEP(pdev, CDC_OUT_EP, USBD_EP_TYPE_BULK,
 486:/home/smartth/STM32Cube/Repository/STM32Cube_FW_F1_V1.8.4//Middlewares/ST/STM32_USB_Device_Library/Class/CDC/Src/usbd_cdc.c ****                    CDC_DATA_HS_OUT_PACKET_SIZE);
 487:/home/smartth/STM32Cube/Repository/STM32Cube_FW_F1_V1.8.4//Middlewares/ST/STM32_USB_Device_Library/Class/CDC/Src/usbd_cdc.c **** 
 488:/home/smartth/STM32Cube/Repository/STM32Cube_FW_F1_V1.8.4//Middlewares/ST/STM32_USB_Device_Library/Class/CDC/Src/usbd_cdc.c ****     pdev->ep_out[CDC_OUT_EP & 0xFU].is_used = 1U;
ARM GAS  /tmp/ccSzjua7.s 			page 10


 489:/home/smartth/STM32Cube/Repository/STM32Cube_FW_F1_V1.8.4//Middlewares/ST/STM32_USB_Device_Library/Class/CDC/Src/usbd_cdc.c **** 
 490:/home/smartth/STM32Cube/Repository/STM32Cube_FW_F1_V1.8.4//Middlewares/ST/STM32_USB_Device_Library/Class/CDC/Src/usbd_cdc.c ****   }
 491:/home/smartth/STM32Cube/Repository/STM32Cube_FW_F1_V1.8.4//Middlewares/ST/STM32_USB_Device_Library/Class/CDC/Src/usbd_cdc.c ****   else
 492:/home/smartth/STM32Cube/Repository/STM32Cube_FW_F1_V1.8.4//Middlewares/ST/STM32_USB_Device_Library/Class/CDC/Src/usbd_cdc.c ****   {
 493:/home/smartth/STM32Cube/Repository/STM32Cube_FW_F1_V1.8.4//Middlewares/ST/STM32_USB_Device_Library/Class/CDC/Src/usbd_cdc.c ****     /* Open EP IN */
 494:/home/smartth/STM32Cube/Repository/STM32Cube_FW_F1_V1.8.4//Middlewares/ST/STM32_USB_Device_Library/Class/CDC/Src/usbd_cdc.c ****     USBD_LL_OpenEP(pdev, CDC_IN_EP, USBD_EP_TYPE_BULK,
 495:/home/smartth/STM32Cube/Repository/STM32Cube_FW_F1_V1.8.4//Middlewares/ST/STM32_USB_Device_Library/Class/CDC/Src/usbd_cdc.c ****                    CDC_DATA_FS_IN_PACKET_SIZE);
 496:/home/smartth/STM32Cube/Repository/STM32Cube_FW_F1_V1.8.4//Middlewares/ST/STM32_USB_Device_Library/Class/CDC/Src/usbd_cdc.c **** 
 497:/home/smartth/STM32Cube/Repository/STM32Cube_FW_F1_V1.8.4//Middlewares/ST/STM32_USB_Device_Library/Class/CDC/Src/usbd_cdc.c ****     pdev->ep_in[CDC_IN_EP & 0xFU].is_used = 1U;
 498:/home/smartth/STM32Cube/Repository/STM32Cube_FW_F1_V1.8.4//Middlewares/ST/STM32_USB_Device_Library/Class/CDC/Src/usbd_cdc.c **** 
 499:/home/smartth/STM32Cube/Repository/STM32Cube_FW_F1_V1.8.4//Middlewares/ST/STM32_USB_Device_Library/Class/CDC/Src/usbd_cdc.c ****     /* Open EP OUT */
 500:/home/smartth/STM32Cube/Repository/STM32Cube_FW_F1_V1.8.4//Middlewares/ST/STM32_USB_Device_Library/Class/CDC/Src/usbd_cdc.c ****     USBD_LL_OpenEP(pdev, CDC_OUT_EP, USBD_EP_TYPE_BULK,
 501:/home/smartth/STM32Cube/Repository/STM32Cube_FW_F1_V1.8.4//Middlewares/ST/STM32_USB_Device_Library/Class/CDC/Src/usbd_cdc.c ****                    CDC_DATA_FS_OUT_PACKET_SIZE);
 502:/home/smartth/STM32Cube/Repository/STM32Cube_FW_F1_V1.8.4//Middlewares/ST/STM32_USB_Device_Library/Class/CDC/Src/usbd_cdc.c **** 
 503:/home/smartth/STM32Cube/Repository/STM32Cube_FW_F1_V1.8.4//Middlewares/ST/STM32_USB_Device_Library/Class/CDC/Src/usbd_cdc.c ****     pdev->ep_out[CDC_OUT_EP & 0xFU].is_used = 1U;
 504:/home/smartth/STM32Cube/Repository/STM32Cube_FW_F1_V1.8.4//Middlewares/ST/STM32_USB_Device_Library/Class/CDC/Src/usbd_cdc.c ****   }
 505:/home/smartth/STM32Cube/Repository/STM32Cube_FW_F1_V1.8.4//Middlewares/ST/STM32_USB_Device_Library/Class/CDC/Src/usbd_cdc.c ****   /* Open Command IN EP */
 506:/home/smartth/STM32Cube/Repository/STM32Cube_FW_F1_V1.8.4//Middlewares/ST/STM32_USB_Device_Library/Class/CDC/Src/usbd_cdc.c ****   USBD_LL_OpenEP(pdev, CDC_CMD_EP, USBD_EP_TYPE_INTR, CDC_CMD_PACKET_SIZE);
 507:/home/smartth/STM32Cube/Repository/STM32Cube_FW_F1_V1.8.4//Middlewares/ST/STM32_USB_Device_Library/Class/CDC/Src/usbd_cdc.c ****   pdev->ep_in[CDC_CMD_EP & 0xFU].is_used = 1U;
 508:/home/smartth/STM32Cube/Repository/STM32Cube_FW_F1_V1.8.4//Middlewares/ST/STM32_USB_Device_Library/Class/CDC/Src/usbd_cdc.c **** 
 509:/home/smartth/STM32Cube/Repository/STM32Cube_FW_F1_V1.8.4//Middlewares/ST/STM32_USB_Device_Library/Class/CDC/Src/usbd_cdc.c ****   pdev->pClassData = USBD_malloc(sizeof(USBD_CDC_HandleTypeDef));
 510:/home/smartth/STM32Cube/Repository/STM32Cube_FW_F1_V1.8.4//Middlewares/ST/STM32_USB_Device_Library/Class/CDC/Src/usbd_cdc.c **** 
 511:/home/smartth/STM32Cube/Repository/STM32Cube_FW_F1_V1.8.4//Middlewares/ST/STM32_USB_Device_Library/Class/CDC/Src/usbd_cdc.c ****   if (pdev->pClassData == NULL)
 512:/home/smartth/STM32Cube/Repository/STM32Cube_FW_F1_V1.8.4//Middlewares/ST/STM32_USB_Device_Library/Class/CDC/Src/usbd_cdc.c ****   {
 513:/home/smartth/STM32Cube/Repository/STM32Cube_FW_F1_V1.8.4//Middlewares/ST/STM32_USB_Device_Library/Class/CDC/Src/usbd_cdc.c ****     ret = 1U;
 514:/home/smartth/STM32Cube/Repository/STM32Cube_FW_F1_V1.8.4//Middlewares/ST/STM32_USB_Device_Library/Class/CDC/Src/usbd_cdc.c ****   }
 515:/home/smartth/STM32Cube/Repository/STM32Cube_FW_F1_V1.8.4//Middlewares/ST/STM32_USB_Device_Library/Class/CDC/Src/usbd_cdc.c ****   else
 516:/home/smartth/STM32Cube/Repository/STM32Cube_FW_F1_V1.8.4//Middlewares/ST/STM32_USB_Device_Library/Class/CDC/Src/usbd_cdc.c ****   {
 517:/home/smartth/STM32Cube/Repository/STM32Cube_FW_F1_V1.8.4//Middlewares/ST/STM32_USB_Device_Library/Class/CDC/Src/usbd_cdc.c ****     hcdc = (USBD_CDC_HandleTypeDef *) pdev->pClassData;
 518:/home/smartth/STM32Cube/Repository/STM32Cube_FW_F1_V1.8.4//Middlewares/ST/STM32_USB_Device_Library/Class/CDC/Src/usbd_cdc.c **** 
 519:/home/smartth/STM32Cube/Repository/STM32Cube_FW_F1_V1.8.4//Middlewares/ST/STM32_USB_Device_Library/Class/CDC/Src/usbd_cdc.c ****     /* Init  physical Interface components */
 520:/home/smartth/STM32Cube/Repository/STM32Cube_FW_F1_V1.8.4//Middlewares/ST/STM32_USB_Device_Library/Class/CDC/Src/usbd_cdc.c ****     ((USBD_CDC_ItfTypeDef *)pdev->pUserData)->Init();
 521:/home/smartth/STM32Cube/Repository/STM32Cube_FW_F1_V1.8.4//Middlewares/ST/STM32_USB_Device_Library/Class/CDC/Src/usbd_cdc.c **** 
 522:/home/smartth/STM32Cube/Repository/STM32Cube_FW_F1_V1.8.4//Middlewares/ST/STM32_USB_Device_Library/Class/CDC/Src/usbd_cdc.c ****     /* Init Xfer states */
 523:/home/smartth/STM32Cube/Repository/STM32Cube_FW_F1_V1.8.4//Middlewares/ST/STM32_USB_Device_Library/Class/CDC/Src/usbd_cdc.c ****     hcdc->TxState = 0U;
 524:/home/smartth/STM32Cube/Repository/STM32Cube_FW_F1_V1.8.4//Middlewares/ST/STM32_USB_Device_Library/Class/CDC/Src/usbd_cdc.c ****     hcdc->RxState = 0U;
 525:/home/smartth/STM32Cube/Repository/STM32Cube_FW_F1_V1.8.4//Middlewares/ST/STM32_USB_Device_Library/Class/CDC/Src/usbd_cdc.c **** 
 526:/home/smartth/STM32Cube/Repository/STM32Cube_FW_F1_V1.8.4//Middlewares/ST/STM32_USB_Device_Library/Class/CDC/Src/usbd_cdc.c ****     if (pdev->dev_speed == USBD_SPEED_HIGH)
 527:/home/smartth/STM32Cube/Repository/STM32Cube_FW_F1_V1.8.4//Middlewares/ST/STM32_USB_Device_Library/Class/CDC/Src/usbd_cdc.c ****     {
 528:/home/smartth/STM32Cube/Repository/STM32Cube_FW_F1_V1.8.4//Middlewares/ST/STM32_USB_Device_Library/Class/CDC/Src/usbd_cdc.c ****       /* Prepare Out endpoint to receive next packet */
 529:/home/smartth/STM32Cube/Repository/STM32Cube_FW_F1_V1.8.4//Middlewares/ST/STM32_USB_Device_Library/Class/CDC/Src/usbd_cdc.c ****       USBD_LL_PrepareReceive(pdev, CDC_OUT_EP, hcdc->RxBuffer,
 530:/home/smartth/STM32Cube/Repository/STM32Cube_FW_F1_V1.8.4//Middlewares/ST/STM32_USB_Device_Library/Class/CDC/Src/usbd_cdc.c ****                              CDC_DATA_HS_OUT_PACKET_SIZE);
 531:/home/smartth/STM32Cube/Repository/STM32Cube_FW_F1_V1.8.4//Middlewares/ST/STM32_USB_Device_Library/Class/CDC/Src/usbd_cdc.c ****     }
 532:/home/smartth/STM32Cube/Repository/STM32Cube_FW_F1_V1.8.4//Middlewares/ST/STM32_USB_Device_Library/Class/CDC/Src/usbd_cdc.c ****     else
 533:/home/smartth/STM32Cube/Repository/STM32Cube_FW_F1_V1.8.4//Middlewares/ST/STM32_USB_Device_Library/Class/CDC/Src/usbd_cdc.c ****     {
 534:/home/smartth/STM32Cube/Repository/STM32Cube_FW_F1_V1.8.4//Middlewares/ST/STM32_USB_Device_Library/Class/CDC/Src/usbd_cdc.c ****       /* Prepare Out endpoint to receive next packet */
 535:/home/smartth/STM32Cube/Repository/STM32Cube_FW_F1_V1.8.4//Middlewares/ST/STM32_USB_Device_Library/Class/CDC/Src/usbd_cdc.c ****       USBD_LL_PrepareReceive(pdev, CDC_OUT_EP, hcdc->RxBuffer,
 536:/home/smartth/STM32Cube/Repository/STM32Cube_FW_F1_V1.8.4//Middlewares/ST/STM32_USB_Device_Library/Class/CDC/Src/usbd_cdc.c ****                              CDC_DATA_FS_OUT_PACKET_SIZE);
 537:/home/smartth/STM32Cube/Repository/STM32Cube_FW_F1_V1.8.4//Middlewares/ST/STM32_USB_Device_Library/Class/CDC/Src/usbd_cdc.c ****     }
 538:/home/smartth/STM32Cube/Repository/STM32Cube_FW_F1_V1.8.4//Middlewares/ST/STM32_USB_Device_Library/Class/CDC/Src/usbd_cdc.c ****   }
 539:/home/smartth/STM32Cube/Repository/STM32Cube_FW_F1_V1.8.4//Middlewares/ST/STM32_USB_Device_Library/Class/CDC/Src/usbd_cdc.c ****   return ret;
 540:/home/smartth/STM32Cube/Repository/STM32Cube_FW_F1_V1.8.4//Middlewares/ST/STM32_USB_Device_Library/Class/CDC/Src/usbd_cdc.c **** }
 541:/home/smartth/STM32Cube/Repository/STM32Cube_FW_F1_V1.8.4//Middlewares/ST/STM32_USB_Device_Library/Class/CDC/Src/usbd_cdc.c **** 
 542:/home/smartth/STM32Cube/Repository/STM32Cube_FW_F1_V1.8.4//Middlewares/ST/STM32_USB_Device_Library/Class/CDC/Src/usbd_cdc.c **** /**
 543:/home/smartth/STM32Cube/Repository/STM32Cube_FW_F1_V1.8.4//Middlewares/ST/STM32_USB_Device_Library/Class/CDC/Src/usbd_cdc.c ****   * @brief  USBD_CDC_Init
 544:/home/smartth/STM32Cube/Repository/STM32Cube_FW_F1_V1.8.4//Middlewares/ST/STM32_USB_Device_Library/Class/CDC/Src/usbd_cdc.c ****   *         DeInitialize the CDC layer
 545:/home/smartth/STM32Cube/Repository/STM32Cube_FW_F1_V1.8.4//Middlewares/ST/STM32_USB_Device_Library/Class/CDC/Src/usbd_cdc.c ****   * @param  pdev: device instance
ARM GAS  /tmp/ccSzjua7.s 			page 11


 546:/home/smartth/STM32Cube/Repository/STM32Cube_FW_F1_V1.8.4//Middlewares/ST/STM32_USB_Device_Library/Class/CDC/Src/usbd_cdc.c ****   * @param  cfgidx: Configuration index
 547:/home/smartth/STM32Cube/Repository/STM32Cube_FW_F1_V1.8.4//Middlewares/ST/STM32_USB_Device_Library/Class/CDC/Src/usbd_cdc.c ****   * @retval status
 548:/home/smartth/STM32Cube/Repository/STM32Cube_FW_F1_V1.8.4//Middlewares/ST/STM32_USB_Device_Library/Class/CDC/Src/usbd_cdc.c ****   */
 549:/home/smartth/STM32Cube/Repository/STM32Cube_FW_F1_V1.8.4//Middlewares/ST/STM32_USB_Device_Library/Class/CDC/Src/usbd_cdc.c **** static uint8_t  USBD_CDC_DeInit(USBD_HandleTypeDef *pdev, uint8_t cfgidx)
 550:/home/smartth/STM32Cube/Repository/STM32Cube_FW_F1_V1.8.4//Middlewares/ST/STM32_USB_Device_Library/Class/CDC/Src/usbd_cdc.c **** {
 551:/home/smartth/STM32Cube/Repository/STM32Cube_FW_F1_V1.8.4//Middlewares/ST/STM32_USB_Device_Library/Class/CDC/Src/usbd_cdc.c ****   uint8_t ret = 0U;
 552:/home/smartth/STM32Cube/Repository/STM32Cube_FW_F1_V1.8.4//Middlewares/ST/STM32_USB_Device_Library/Class/CDC/Src/usbd_cdc.c **** 
 553:/home/smartth/STM32Cube/Repository/STM32Cube_FW_F1_V1.8.4//Middlewares/ST/STM32_USB_Device_Library/Class/CDC/Src/usbd_cdc.c ****   /* Close EP IN */
 554:/home/smartth/STM32Cube/Repository/STM32Cube_FW_F1_V1.8.4//Middlewares/ST/STM32_USB_Device_Library/Class/CDC/Src/usbd_cdc.c ****   USBD_LL_CloseEP(pdev, CDC_IN_EP);
 555:/home/smartth/STM32Cube/Repository/STM32Cube_FW_F1_V1.8.4//Middlewares/ST/STM32_USB_Device_Library/Class/CDC/Src/usbd_cdc.c ****   pdev->ep_in[CDC_IN_EP & 0xFU].is_used = 0U;
 556:/home/smartth/STM32Cube/Repository/STM32Cube_FW_F1_V1.8.4//Middlewares/ST/STM32_USB_Device_Library/Class/CDC/Src/usbd_cdc.c **** 
 557:/home/smartth/STM32Cube/Repository/STM32Cube_FW_F1_V1.8.4//Middlewares/ST/STM32_USB_Device_Library/Class/CDC/Src/usbd_cdc.c ****   /* Close EP OUT */
 558:/home/smartth/STM32Cube/Repository/STM32Cube_FW_F1_V1.8.4//Middlewares/ST/STM32_USB_Device_Library/Class/CDC/Src/usbd_cdc.c ****   USBD_LL_CloseEP(pdev, CDC_OUT_EP);
 559:/home/smartth/STM32Cube/Repository/STM32Cube_FW_F1_V1.8.4//Middlewares/ST/STM32_USB_Device_Library/Class/CDC/Src/usbd_cdc.c ****   pdev->ep_out[CDC_OUT_EP & 0xFU].is_used = 0U;
 560:/home/smartth/STM32Cube/Repository/STM32Cube_FW_F1_V1.8.4//Middlewares/ST/STM32_USB_Device_Library/Class/CDC/Src/usbd_cdc.c **** 
 561:/home/smartth/STM32Cube/Repository/STM32Cube_FW_F1_V1.8.4//Middlewares/ST/STM32_USB_Device_Library/Class/CDC/Src/usbd_cdc.c ****   /* Close Command IN EP */
 562:/home/smartth/STM32Cube/Repository/STM32Cube_FW_F1_V1.8.4//Middlewares/ST/STM32_USB_Device_Library/Class/CDC/Src/usbd_cdc.c ****   USBD_LL_CloseEP(pdev, CDC_CMD_EP);
 563:/home/smartth/STM32Cube/Repository/STM32Cube_FW_F1_V1.8.4//Middlewares/ST/STM32_USB_Device_Library/Class/CDC/Src/usbd_cdc.c ****   pdev->ep_in[CDC_CMD_EP & 0xFU].is_used = 0U;
 564:/home/smartth/STM32Cube/Repository/STM32Cube_FW_F1_V1.8.4//Middlewares/ST/STM32_USB_Device_Library/Class/CDC/Src/usbd_cdc.c **** 
 565:/home/smartth/STM32Cube/Repository/STM32Cube_FW_F1_V1.8.4//Middlewares/ST/STM32_USB_Device_Library/Class/CDC/Src/usbd_cdc.c ****   /* DeInit  physical Interface components */
 566:/home/smartth/STM32Cube/Repository/STM32Cube_FW_F1_V1.8.4//Middlewares/ST/STM32_USB_Device_Library/Class/CDC/Src/usbd_cdc.c ****   if (pdev->pClassData != NULL)
 567:/home/smartth/STM32Cube/Repository/STM32Cube_FW_F1_V1.8.4//Middlewares/ST/STM32_USB_Device_Library/Class/CDC/Src/usbd_cdc.c ****   {
 568:/home/smartth/STM32Cube/Repository/STM32Cube_FW_F1_V1.8.4//Middlewares/ST/STM32_USB_Device_Library/Class/CDC/Src/usbd_cdc.c ****     ((USBD_CDC_ItfTypeDef *)pdev->pUserData)->DeInit();
 569:/home/smartth/STM32Cube/Repository/STM32Cube_FW_F1_V1.8.4//Middlewares/ST/STM32_USB_Device_Library/Class/CDC/Src/usbd_cdc.c ****     USBD_free(pdev->pClassData);
 570:/home/smartth/STM32Cube/Repository/STM32Cube_FW_F1_V1.8.4//Middlewares/ST/STM32_USB_Device_Library/Class/CDC/Src/usbd_cdc.c ****     pdev->pClassData = NULL;
 571:/home/smartth/STM32Cube/Repository/STM32Cube_FW_F1_V1.8.4//Middlewares/ST/STM32_USB_Device_Library/Class/CDC/Src/usbd_cdc.c ****   }
 572:/home/smartth/STM32Cube/Repository/STM32Cube_FW_F1_V1.8.4//Middlewares/ST/STM32_USB_Device_Library/Class/CDC/Src/usbd_cdc.c **** 
 573:/home/smartth/STM32Cube/Repository/STM32Cube_FW_F1_V1.8.4//Middlewares/ST/STM32_USB_Device_Library/Class/CDC/Src/usbd_cdc.c ****   return ret;
 574:/home/smartth/STM32Cube/Repository/STM32Cube_FW_F1_V1.8.4//Middlewares/ST/STM32_USB_Device_Library/Class/CDC/Src/usbd_cdc.c **** }
 575:/home/smartth/STM32Cube/Repository/STM32Cube_FW_F1_V1.8.4//Middlewares/ST/STM32_USB_Device_Library/Class/CDC/Src/usbd_cdc.c **** 
 576:/home/smartth/STM32Cube/Repository/STM32Cube_FW_F1_V1.8.4//Middlewares/ST/STM32_USB_Device_Library/Class/CDC/Src/usbd_cdc.c **** /**
 577:/home/smartth/STM32Cube/Repository/STM32Cube_FW_F1_V1.8.4//Middlewares/ST/STM32_USB_Device_Library/Class/CDC/Src/usbd_cdc.c ****   * @brief  USBD_CDC_Setup
 578:/home/smartth/STM32Cube/Repository/STM32Cube_FW_F1_V1.8.4//Middlewares/ST/STM32_USB_Device_Library/Class/CDC/Src/usbd_cdc.c ****   *         Handle the CDC specific requests
 579:/home/smartth/STM32Cube/Repository/STM32Cube_FW_F1_V1.8.4//Middlewares/ST/STM32_USB_Device_Library/Class/CDC/Src/usbd_cdc.c ****   * @param  pdev: instance
 580:/home/smartth/STM32Cube/Repository/STM32Cube_FW_F1_V1.8.4//Middlewares/ST/STM32_USB_Device_Library/Class/CDC/Src/usbd_cdc.c ****   * @param  req: usb requests
 581:/home/smartth/STM32Cube/Repository/STM32Cube_FW_F1_V1.8.4//Middlewares/ST/STM32_USB_Device_Library/Class/CDC/Src/usbd_cdc.c ****   * @retval status
 582:/home/smartth/STM32Cube/Repository/STM32Cube_FW_F1_V1.8.4//Middlewares/ST/STM32_USB_Device_Library/Class/CDC/Src/usbd_cdc.c ****   */
 583:/home/smartth/STM32Cube/Repository/STM32Cube_FW_F1_V1.8.4//Middlewares/ST/STM32_USB_Device_Library/Class/CDC/Src/usbd_cdc.c **** static uint8_t  USBD_CDC_Setup(USBD_HandleTypeDef *pdev,
 584:/home/smartth/STM32Cube/Repository/STM32Cube_FW_F1_V1.8.4//Middlewares/ST/STM32_USB_Device_Library/Class/CDC/Src/usbd_cdc.c ****                                USBD_SetupReqTypedef *req)
 585:/home/smartth/STM32Cube/Repository/STM32Cube_FW_F1_V1.8.4//Middlewares/ST/STM32_USB_Device_Library/Class/CDC/Src/usbd_cdc.c **** {
 586:/home/smartth/STM32Cube/Repository/STM32Cube_FW_F1_V1.8.4//Middlewares/ST/STM32_USB_Device_Library/Class/CDC/Src/usbd_cdc.c ****   USBD_CDC_HandleTypeDef   *hcdc = (USBD_CDC_HandleTypeDef *) pdev->pClassData;
 587:/home/smartth/STM32Cube/Repository/STM32Cube_FW_F1_V1.8.4//Middlewares/ST/STM32_USB_Device_Library/Class/CDC/Src/usbd_cdc.c ****   uint8_t ifalt = 0U;
 588:/home/smartth/STM32Cube/Repository/STM32Cube_FW_F1_V1.8.4//Middlewares/ST/STM32_USB_Device_Library/Class/CDC/Src/usbd_cdc.c ****   uint16_t status_info = 0U;
 589:/home/smartth/STM32Cube/Repository/STM32Cube_FW_F1_V1.8.4//Middlewares/ST/STM32_USB_Device_Library/Class/CDC/Src/usbd_cdc.c ****   uint8_t ret = USBD_OK;
 590:/home/smartth/STM32Cube/Repository/STM32Cube_FW_F1_V1.8.4//Middlewares/ST/STM32_USB_Device_Library/Class/CDC/Src/usbd_cdc.c **** 
 591:/home/smartth/STM32Cube/Repository/STM32Cube_FW_F1_V1.8.4//Middlewares/ST/STM32_USB_Device_Library/Class/CDC/Src/usbd_cdc.c ****   switch (req->bmRequest & USB_REQ_TYPE_MASK)
 592:/home/smartth/STM32Cube/Repository/STM32Cube_FW_F1_V1.8.4//Middlewares/ST/STM32_USB_Device_Library/Class/CDC/Src/usbd_cdc.c ****   {
 593:/home/smartth/STM32Cube/Repository/STM32Cube_FW_F1_V1.8.4//Middlewares/ST/STM32_USB_Device_Library/Class/CDC/Src/usbd_cdc.c ****     case USB_REQ_TYPE_CLASS :
 594:/home/smartth/STM32Cube/Repository/STM32Cube_FW_F1_V1.8.4//Middlewares/ST/STM32_USB_Device_Library/Class/CDC/Src/usbd_cdc.c ****       if (req->wLength)
 595:/home/smartth/STM32Cube/Repository/STM32Cube_FW_F1_V1.8.4//Middlewares/ST/STM32_USB_Device_Library/Class/CDC/Src/usbd_cdc.c ****       {
 596:/home/smartth/STM32Cube/Repository/STM32Cube_FW_F1_V1.8.4//Middlewares/ST/STM32_USB_Device_Library/Class/CDC/Src/usbd_cdc.c ****         if (req->bmRequest & 0x80U)
 597:/home/smartth/STM32Cube/Repository/STM32Cube_FW_F1_V1.8.4//Middlewares/ST/STM32_USB_Device_Library/Class/CDC/Src/usbd_cdc.c ****         {
 598:/home/smartth/STM32Cube/Repository/STM32Cube_FW_F1_V1.8.4//Middlewares/ST/STM32_USB_Device_Library/Class/CDC/Src/usbd_cdc.c ****           ((USBD_CDC_ItfTypeDef *)pdev->pUserData)->Control(req->bRequest,
 599:/home/smartth/STM32Cube/Repository/STM32Cube_FW_F1_V1.8.4//Middlewares/ST/STM32_USB_Device_Library/Class/CDC/Src/usbd_cdc.c ****                                                             (uint8_t *)(void *)hcdc->data,
 600:/home/smartth/STM32Cube/Repository/STM32Cube_FW_F1_V1.8.4//Middlewares/ST/STM32_USB_Device_Library/Class/CDC/Src/usbd_cdc.c ****                                                             req->wLength);
 601:/home/smartth/STM32Cube/Repository/STM32Cube_FW_F1_V1.8.4//Middlewares/ST/STM32_USB_Device_Library/Class/CDC/Src/usbd_cdc.c **** 
 602:/home/smartth/STM32Cube/Repository/STM32Cube_FW_F1_V1.8.4//Middlewares/ST/STM32_USB_Device_Library/Class/CDC/Src/usbd_cdc.c ****           USBD_CtlSendData(pdev, (uint8_t *)(void *)hcdc->data, req->wLength);
ARM GAS  /tmp/ccSzjua7.s 			page 12


 603:/home/smartth/STM32Cube/Repository/STM32Cube_FW_F1_V1.8.4//Middlewares/ST/STM32_USB_Device_Library/Class/CDC/Src/usbd_cdc.c ****         }
 604:/home/smartth/STM32Cube/Repository/STM32Cube_FW_F1_V1.8.4//Middlewares/ST/STM32_USB_Device_Library/Class/CDC/Src/usbd_cdc.c ****         else
 605:/home/smartth/STM32Cube/Repository/STM32Cube_FW_F1_V1.8.4//Middlewares/ST/STM32_USB_Device_Library/Class/CDC/Src/usbd_cdc.c ****         {
 606:/home/smartth/STM32Cube/Repository/STM32Cube_FW_F1_V1.8.4//Middlewares/ST/STM32_USB_Device_Library/Class/CDC/Src/usbd_cdc.c ****           hcdc->CmdOpCode = req->bRequest;
 607:/home/smartth/STM32Cube/Repository/STM32Cube_FW_F1_V1.8.4//Middlewares/ST/STM32_USB_Device_Library/Class/CDC/Src/usbd_cdc.c ****           hcdc->CmdLength = (uint8_t)req->wLength;
 608:/home/smartth/STM32Cube/Repository/STM32Cube_FW_F1_V1.8.4//Middlewares/ST/STM32_USB_Device_Library/Class/CDC/Src/usbd_cdc.c **** 
 609:/home/smartth/STM32Cube/Repository/STM32Cube_FW_F1_V1.8.4//Middlewares/ST/STM32_USB_Device_Library/Class/CDC/Src/usbd_cdc.c ****           USBD_CtlPrepareRx(pdev, (uint8_t *)(void *)hcdc->data, req->wLength);
 610:/home/smartth/STM32Cube/Repository/STM32Cube_FW_F1_V1.8.4//Middlewares/ST/STM32_USB_Device_Library/Class/CDC/Src/usbd_cdc.c ****         }
 611:/home/smartth/STM32Cube/Repository/STM32Cube_FW_F1_V1.8.4//Middlewares/ST/STM32_USB_Device_Library/Class/CDC/Src/usbd_cdc.c ****       }
 612:/home/smartth/STM32Cube/Repository/STM32Cube_FW_F1_V1.8.4//Middlewares/ST/STM32_USB_Device_Library/Class/CDC/Src/usbd_cdc.c ****       else
 613:/home/smartth/STM32Cube/Repository/STM32Cube_FW_F1_V1.8.4//Middlewares/ST/STM32_USB_Device_Library/Class/CDC/Src/usbd_cdc.c ****       {
 614:/home/smartth/STM32Cube/Repository/STM32Cube_FW_F1_V1.8.4//Middlewares/ST/STM32_USB_Device_Library/Class/CDC/Src/usbd_cdc.c ****         ((USBD_CDC_ItfTypeDef *)pdev->pUserData)->Control(req->bRequest,
 615:/home/smartth/STM32Cube/Repository/STM32Cube_FW_F1_V1.8.4//Middlewares/ST/STM32_USB_Device_Library/Class/CDC/Src/usbd_cdc.c ****                                                           (uint8_t *)(void *)req, 0U);
 616:/home/smartth/STM32Cube/Repository/STM32Cube_FW_F1_V1.8.4//Middlewares/ST/STM32_USB_Device_Library/Class/CDC/Src/usbd_cdc.c ****       }
 617:/home/smartth/STM32Cube/Repository/STM32Cube_FW_F1_V1.8.4//Middlewares/ST/STM32_USB_Device_Library/Class/CDC/Src/usbd_cdc.c ****       break;
 618:/home/smartth/STM32Cube/Repository/STM32Cube_FW_F1_V1.8.4//Middlewares/ST/STM32_USB_Device_Library/Class/CDC/Src/usbd_cdc.c **** 
 619:/home/smartth/STM32Cube/Repository/STM32Cube_FW_F1_V1.8.4//Middlewares/ST/STM32_USB_Device_Library/Class/CDC/Src/usbd_cdc.c ****     case USB_REQ_TYPE_STANDARD:
 620:/home/smartth/STM32Cube/Repository/STM32Cube_FW_F1_V1.8.4//Middlewares/ST/STM32_USB_Device_Library/Class/CDC/Src/usbd_cdc.c ****       switch (req->bRequest)
 621:/home/smartth/STM32Cube/Repository/STM32Cube_FW_F1_V1.8.4//Middlewares/ST/STM32_USB_Device_Library/Class/CDC/Src/usbd_cdc.c ****       {
 622:/home/smartth/STM32Cube/Repository/STM32Cube_FW_F1_V1.8.4//Middlewares/ST/STM32_USB_Device_Library/Class/CDC/Src/usbd_cdc.c ****         case USB_REQ_GET_STATUS:
 623:/home/smartth/STM32Cube/Repository/STM32Cube_FW_F1_V1.8.4//Middlewares/ST/STM32_USB_Device_Library/Class/CDC/Src/usbd_cdc.c ****           if (pdev->dev_state == USBD_STATE_CONFIGURED)
 624:/home/smartth/STM32Cube/Repository/STM32Cube_FW_F1_V1.8.4//Middlewares/ST/STM32_USB_Device_Library/Class/CDC/Src/usbd_cdc.c ****           {
 625:/home/smartth/STM32Cube/Repository/STM32Cube_FW_F1_V1.8.4//Middlewares/ST/STM32_USB_Device_Library/Class/CDC/Src/usbd_cdc.c ****             USBD_CtlSendData(pdev, (uint8_t *)(void *)&status_info, 2U);
 626:/home/smartth/STM32Cube/Repository/STM32Cube_FW_F1_V1.8.4//Middlewares/ST/STM32_USB_Device_Library/Class/CDC/Src/usbd_cdc.c ****           }
 627:/home/smartth/STM32Cube/Repository/STM32Cube_FW_F1_V1.8.4//Middlewares/ST/STM32_USB_Device_Library/Class/CDC/Src/usbd_cdc.c ****           else
 628:/home/smartth/STM32Cube/Repository/STM32Cube_FW_F1_V1.8.4//Middlewares/ST/STM32_USB_Device_Library/Class/CDC/Src/usbd_cdc.c ****           {
 629:/home/smartth/STM32Cube/Repository/STM32Cube_FW_F1_V1.8.4//Middlewares/ST/STM32_USB_Device_Library/Class/CDC/Src/usbd_cdc.c ****             USBD_CtlError(pdev, req);
 630:/home/smartth/STM32Cube/Repository/STM32Cube_FW_F1_V1.8.4//Middlewares/ST/STM32_USB_Device_Library/Class/CDC/Src/usbd_cdc.c ****             ret = USBD_FAIL;
 631:/home/smartth/STM32Cube/Repository/STM32Cube_FW_F1_V1.8.4//Middlewares/ST/STM32_USB_Device_Library/Class/CDC/Src/usbd_cdc.c ****           }
 632:/home/smartth/STM32Cube/Repository/STM32Cube_FW_F1_V1.8.4//Middlewares/ST/STM32_USB_Device_Library/Class/CDC/Src/usbd_cdc.c ****           break;
 633:/home/smartth/STM32Cube/Repository/STM32Cube_FW_F1_V1.8.4//Middlewares/ST/STM32_USB_Device_Library/Class/CDC/Src/usbd_cdc.c **** 
 634:/home/smartth/STM32Cube/Repository/STM32Cube_FW_F1_V1.8.4//Middlewares/ST/STM32_USB_Device_Library/Class/CDC/Src/usbd_cdc.c ****         case USB_REQ_GET_INTERFACE:
 635:/home/smartth/STM32Cube/Repository/STM32Cube_FW_F1_V1.8.4//Middlewares/ST/STM32_USB_Device_Library/Class/CDC/Src/usbd_cdc.c ****           if (pdev->dev_state == USBD_STATE_CONFIGURED)
 636:/home/smartth/STM32Cube/Repository/STM32Cube_FW_F1_V1.8.4//Middlewares/ST/STM32_USB_Device_Library/Class/CDC/Src/usbd_cdc.c ****           {
 637:/home/smartth/STM32Cube/Repository/STM32Cube_FW_F1_V1.8.4//Middlewares/ST/STM32_USB_Device_Library/Class/CDC/Src/usbd_cdc.c ****             USBD_CtlSendData(pdev, &ifalt, 1U);
 638:/home/smartth/STM32Cube/Repository/STM32Cube_FW_F1_V1.8.4//Middlewares/ST/STM32_USB_Device_Library/Class/CDC/Src/usbd_cdc.c ****           }
 639:/home/smartth/STM32Cube/Repository/STM32Cube_FW_F1_V1.8.4//Middlewares/ST/STM32_USB_Device_Library/Class/CDC/Src/usbd_cdc.c ****           else
 640:/home/smartth/STM32Cube/Repository/STM32Cube_FW_F1_V1.8.4//Middlewares/ST/STM32_USB_Device_Library/Class/CDC/Src/usbd_cdc.c ****           {
 641:/home/smartth/STM32Cube/Repository/STM32Cube_FW_F1_V1.8.4//Middlewares/ST/STM32_USB_Device_Library/Class/CDC/Src/usbd_cdc.c ****             USBD_CtlError(pdev, req);
 642:/home/smartth/STM32Cube/Repository/STM32Cube_FW_F1_V1.8.4//Middlewares/ST/STM32_USB_Device_Library/Class/CDC/Src/usbd_cdc.c ****             ret = USBD_FAIL;
 643:/home/smartth/STM32Cube/Repository/STM32Cube_FW_F1_V1.8.4//Middlewares/ST/STM32_USB_Device_Library/Class/CDC/Src/usbd_cdc.c ****           }
 644:/home/smartth/STM32Cube/Repository/STM32Cube_FW_F1_V1.8.4//Middlewares/ST/STM32_USB_Device_Library/Class/CDC/Src/usbd_cdc.c ****           break;
 645:/home/smartth/STM32Cube/Repository/STM32Cube_FW_F1_V1.8.4//Middlewares/ST/STM32_USB_Device_Library/Class/CDC/Src/usbd_cdc.c **** 
 646:/home/smartth/STM32Cube/Repository/STM32Cube_FW_F1_V1.8.4//Middlewares/ST/STM32_USB_Device_Library/Class/CDC/Src/usbd_cdc.c ****         case USB_REQ_SET_INTERFACE:
 647:/home/smartth/STM32Cube/Repository/STM32Cube_FW_F1_V1.8.4//Middlewares/ST/STM32_USB_Device_Library/Class/CDC/Src/usbd_cdc.c ****           if (pdev->dev_state != USBD_STATE_CONFIGURED)
 648:/home/smartth/STM32Cube/Repository/STM32Cube_FW_F1_V1.8.4//Middlewares/ST/STM32_USB_Device_Library/Class/CDC/Src/usbd_cdc.c ****           {
 649:/home/smartth/STM32Cube/Repository/STM32Cube_FW_F1_V1.8.4//Middlewares/ST/STM32_USB_Device_Library/Class/CDC/Src/usbd_cdc.c ****             USBD_CtlError(pdev, req);
 650:/home/smartth/STM32Cube/Repository/STM32Cube_FW_F1_V1.8.4//Middlewares/ST/STM32_USB_Device_Library/Class/CDC/Src/usbd_cdc.c ****             ret = USBD_FAIL;
 651:/home/smartth/STM32Cube/Repository/STM32Cube_FW_F1_V1.8.4//Middlewares/ST/STM32_USB_Device_Library/Class/CDC/Src/usbd_cdc.c ****           }
 652:/home/smartth/STM32Cube/Repository/STM32Cube_FW_F1_V1.8.4//Middlewares/ST/STM32_USB_Device_Library/Class/CDC/Src/usbd_cdc.c ****           break;
 653:/home/smartth/STM32Cube/Repository/STM32Cube_FW_F1_V1.8.4//Middlewares/ST/STM32_USB_Device_Library/Class/CDC/Src/usbd_cdc.c **** 
 654:/home/smartth/STM32Cube/Repository/STM32Cube_FW_F1_V1.8.4//Middlewares/ST/STM32_USB_Device_Library/Class/CDC/Src/usbd_cdc.c ****         default:
 655:/home/smartth/STM32Cube/Repository/STM32Cube_FW_F1_V1.8.4//Middlewares/ST/STM32_USB_Device_Library/Class/CDC/Src/usbd_cdc.c ****           USBD_CtlError(pdev, req);
 656:/home/smartth/STM32Cube/Repository/STM32Cube_FW_F1_V1.8.4//Middlewares/ST/STM32_USB_Device_Library/Class/CDC/Src/usbd_cdc.c ****           ret = USBD_FAIL;
 657:/home/smartth/STM32Cube/Repository/STM32Cube_FW_F1_V1.8.4//Middlewares/ST/STM32_USB_Device_Library/Class/CDC/Src/usbd_cdc.c ****           break;
 658:/home/smartth/STM32Cube/Repository/STM32Cube_FW_F1_V1.8.4//Middlewares/ST/STM32_USB_Device_Library/Class/CDC/Src/usbd_cdc.c ****       }
 659:/home/smartth/STM32Cube/Repository/STM32Cube_FW_F1_V1.8.4//Middlewares/ST/STM32_USB_Device_Library/Class/CDC/Src/usbd_cdc.c ****       break;
ARM GAS  /tmp/ccSzjua7.s 			page 13


 660:/home/smartth/STM32Cube/Repository/STM32Cube_FW_F1_V1.8.4//Middlewares/ST/STM32_USB_Device_Library/Class/CDC/Src/usbd_cdc.c **** 
 661:/home/smartth/STM32Cube/Repository/STM32Cube_FW_F1_V1.8.4//Middlewares/ST/STM32_USB_Device_Library/Class/CDC/Src/usbd_cdc.c ****     default:
 662:/home/smartth/STM32Cube/Repository/STM32Cube_FW_F1_V1.8.4//Middlewares/ST/STM32_USB_Device_Library/Class/CDC/Src/usbd_cdc.c ****       USBD_CtlError(pdev, req);
 663:/home/smartth/STM32Cube/Repository/STM32Cube_FW_F1_V1.8.4//Middlewares/ST/STM32_USB_Device_Library/Class/CDC/Src/usbd_cdc.c ****       ret = USBD_FAIL;
 664:/home/smartth/STM32Cube/Repository/STM32Cube_FW_F1_V1.8.4//Middlewares/ST/STM32_USB_Device_Library/Class/CDC/Src/usbd_cdc.c ****       break;
 665:/home/smartth/STM32Cube/Repository/STM32Cube_FW_F1_V1.8.4//Middlewares/ST/STM32_USB_Device_Library/Class/CDC/Src/usbd_cdc.c ****   }
 666:/home/smartth/STM32Cube/Repository/STM32Cube_FW_F1_V1.8.4//Middlewares/ST/STM32_USB_Device_Library/Class/CDC/Src/usbd_cdc.c **** 
 667:/home/smartth/STM32Cube/Repository/STM32Cube_FW_F1_V1.8.4//Middlewares/ST/STM32_USB_Device_Library/Class/CDC/Src/usbd_cdc.c ****   return ret;
 668:/home/smartth/STM32Cube/Repository/STM32Cube_FW_F1_V1.8.4//Middlewares/ST/STM32_USB_Device_Library/Class/CDC/Src/usbd_cdc.c **** }
 669:/home/smartth/STM32Cube/Repository/STM32Cube_FW_F1_V1.8.4//Middlewares/ST/STM32_USB_Device_Library/Class/CDC/Src/usbd_cdc.c **** 
 670:/home/smartth/STM32Cube/Repository/STM32Cube_FW_F1_V1.8.4//Middlewares/ST/STM32_USB_Device_Library/Class/CDC/Src/usbd_cdc.c **** /**
 671:/home/smartth/STM32Cube/Repository/STM32Cube_FW_F1_V1.8.4//Middlewares/ST/STM32_USB_Device_Library/Class/CDC/Src/usbd_cdc.c ****   * @brief  USBD_CDC_DataIn
 672:/home/smartth/STM32Cube/Repository/STM32Cube_FW_F1_V1.8.4//Middlewares/ST/STM32_USB_Device_Library/Class/CDC/Src/usbd_cdc.c ****   *         Data sent on non-control IN endpoint
 673:/home/smartth/STM32Cube/Repository/STM32Cube_FW_F1_V1.8.4//Middlewares/ST/STM32_USB_Device_Library/Class/CDC/Src/usbd_cdc.c ****   * @param  pdev: device instance
 674:/home/smartth/STM32Cube/Repository/STM32Cube_FW_F1_V1.8.4//Middlewares/ST/STM32_USB_Device_Library/Class/CDC/Src/usbd_cdc.c ****   * @param  epnum: endpoint number
 675:/home/smartth/STM32Cube/Repository/STM32Cube_FW_F1_V1.8.4//Middlewares/ST/STM32_USB_Device_Library/Class/CDC/Src/usbd_cdc.c ****   * @retval status
 676:/home/smartth/STM32Cube/Repository/STM32Cube_FW_F1_V1.8.4//Middlewares/ST/STM32_USB_Device_Library/Class/CDC/Src/usbd_cdc.c ****   */
 677:/home/smartth/STM32Cube/Repository/STM32Cube_FW_F1_V1.8.4//Middlewares/ST/STM32_USB_Device_Library/Class/CDC/Src/usbd_cdc.c **** static uint8_t  USBD_CDC_DataIn(USBD_HandleTypeDef *pdev, uint8_t epnum)
 678:/home/smartth/STM32Cube/Repository/STM32Cube_FW_F1_V1.8.4//Middlewares/ST/STM32_USB_Device_Library/Class/CDC/Src/usbd_cdc.c **** {
 679:/home/smartth/STM32Cube/Repository/STM32Cube_FW_F1_V1.8.4//Middlewares/ST/STM32_USB_Device_Library/Class/CDC/Src/usbd_cdc.c ****   USBD_CDC_HandleTypeDef *hcdc = (USBD_CDC_HandleTypeDef *)pdev->pClassData;
 680:/home/smartth/STM32Cube/Repository/STM32Cube_FW_F1_V1.8.4//Middlewares/ST/STM32_USB_Device_Library/Class/CDC/Src/usbd_cdc.c ****   PCD_HandleTypeDef *hpcd = pdev->pData;
 681:/home/smartth/STM32Cube/Repository/STM32Cube_FW_F1_V1.8.4//Middlewares/ST/STM32_USB_Device_Library/Class/CDC/Src/usbd_cdc.c **** 
 682:/home/smartth/STM32Cube/Repository/STM32Cube_FW_F1_V1.8.4//Middlewares/ST/STM32_USB_Device_Library/Class/CDC/Src/usbd_cdc.c ****   if (pdev->pClassData != NULL)
 683:/home/smartth/STM32Cube/Repository/STM32Cube_FW_F1_V1.8.4//Middlewares/ST/STM32_USB_Device_Library/Class/CDC/Src/usbd_cdc.c ****   {
 684:/home/smartth/STM32Cube/Repository/STM32Cube_FW_F1_V1.8.4//Middlewares/ST/STM32_USB_Device_Library/Class/CDC/Src/usbd_cdc.c ****     if ((pdev->ep_in[epnum].total_length > 0U) && ((pdev->ep_in[epnum].total_length % hpcd->IN_ep[e
 685:/home/smartth/STM32Cube/Repository/STM32Cube_FW_F1_V1.8.4//Middlewares/ST/STM32_USB_Device_Library/Class/CDC/Src/usbd_cdc.c ****     {
 686:/home/smartth/STM32Cube/Repository/STM32Cube_FW_F1_V1.8.4//Middlewares/ST/STM32_USB_Device_Library/Class/CDC/Src/usbd_cdc.c ****       /* Update the packet total length */
 687:/home/smartth/STM32Cube/Repository/STM32Cube_FW_F1_V1.8.4//Middlewares/ST/STM32_USB_Device_Library/Class/CDC/Src/usbd_cdc.c ****       pdev->ep_in[epnum].total_length = 0U;
 688:/home/smartth/STM32Cube/Repository/STM32Cube_FW_F1_V1.8.4//Middlewares/ST/STM32_USB_Device_Library/Class/CDC/Src/usbd_cdc.c **** 
 689:/home/smartth/STM32Cube/Repository/STM32Cube_FW_F1_V1.8.4//Middlewares/ST/STM32_USB_Device_Library/Class/CDC/Src/usbd_cdc.c ****       /* Send ZLP */
 690:/home/smartth/STM32Cube/Repository/STM32Cube_FW_F1_V1.8.4//Middlewares/ST/STM32_USB_Device_Library/Class/CDC/Src/usbd_cdc.c ****       USBD_LL_Transmit(pdev, epnum, NULL, 0U);
 691:/home/smartth/STM32Cube/Repository/STM32Cube_FW_F1_V1.8.4//Middlewares/ST/STM32_USB_Device_Library/Class/CDC/Src/usbd_cdc.c ****     }
 692:/home/smartth/STM32Cube/Repository/STM32Cube_FW_F1_V1.8.4//Middlewares/ST/STM32_USB_Device_Library/Class/CDC/Src/usbd_cdc.c ****     else
 693:/home/smartth/STM32Cube/Repository/STM32Cube_FW_F1_V1.8.4//Middlewares/ST/STM32_USB_Device_Library/Class/CDC/Src/usbd_cdc.c ****     {
 694:/home/smartth/STM32Cube/Repository/STM32Cube_FW_F1_V1.8.4//Middlewares/ST/STM32_USB_Device_Library/Class/CDC/Src/usbd_cdc.c ****       hcdc->TxState = 0U;
 695:/home/smartth/STM32Cube/Repository/STM32Cube_FW_F1_V1.8.4//Middlewares/ST/STM32_USB_Device_Library/Class/CDC/Src/usbd_cdc.c ****     }
 696:/home/smartth/STM32Cube/Repository/STM32Cube_FW_F1_V1.8.4//Middlewares/ST/STM32_USB_Device_Library/Class/CDC/Src/usbd_cdc.c ****     return USBD_OK;
 697:/home/smartth/STM32Cube/Repository/STM32Cube_FW_F1_V1.8.4//Middlewares/ST/STM32_USB_Device_Library/Class/CDC/Src/usbd_cdc.c ****   }
 698:/home/smartth/STM32Cube/Repository/STM32Cube_FW_F1_V1.8.4//Middlewares/ST/STM32_USB_Device_Library/Class/CDC/Src/usbd_cdc.c ****   else
 699:/home/smartth/STM32Cube/Repository/STM32Cube_FW_F1_V1.8.4//Middlewares/ST/STM32_USB_Device_Library/Class/CDC/Src/usbd_cdc.c ****   {
 700:/home/smartth/STM32Cube/Repository/STM32Cube_FW_F1_V1.8.4//Middlewares/ST/STM32_USB_Device_Library/Class/CDC/Src/usbd_cdc.c ****     return USBD_FAIL;
 701:/home/smartth/STM32Cube/Repository/STM32Cube_FW_F1_V1.8.4//Middlewares/ST/STM32_USB_Device_Library/Class/CDC/Src/usbd_cdc.c ****   }
 702:/home/smartth/STM32Cube/Repository/STM32Cube_FW_F1_V1.8.4//Middlewares/ST/STM32_USB_Device_Library/Class/CDC/Src/usbd_cdc.c **** }
 703:/home/smartth/STM32Cube/Repository/STM32Cube_FW_F1_V1.8.4//Middlewares/ST/STM32_USB_Device_Library/Class/CDC/Src/usbd_cdc.c **** 
 704:/home/smartth/STM32Cube/Repository/STM32Cube_FW_F1_V1.8.4//Middlewares/ST/STM32_USB_Device_Library/Class/CDC/Src/usbd_cdc.c **** /**
 705:/home/smartth/STM32Cube/Repository/STM32Cube_FW_F1_V1.8.4//Middlewares/ST/STM32_USB_Device_Library/Class/CDC/Src/usbd_cdc.c ****   * @brief  USBD_CDC_DataOut
 706:/home/smartth/STM32Cube/Repository/STM32Cube_FW_F1_V1.8.4//Middlewares/ST/STM32_USB_Device_Library/Class/CDC/Src/usbd_cdc.c ****   *         Data received on non-control Out endpoint
 707:/home/smartth/STM32Cube/Repository/STM32Cube_FW_F1_V1.8.4//Middlewares/ST/STM32_USB_Device_Library/Class/CDC/Src/usbd_cdc.c ****   * @param  pdev: device instance
 708:/home/smartth/STM32Cube/Repository/STM32Cube_FW_F1_V1.8.4//Middlewares/ST/STM32_USB_Device_Library/Class/CDC/Src/usbd_cdc.c ****   * @param  epnum: endpoint number
 709:/home/smartth/STM32Cube/Repository/STM32Cube_FW_F1_V1.8.4//Middlewares/ST/STM32_USB_Device_Library/Class/CDC/Src/usbd_cdc.c ****   * @retval status
 710:/home/smartth/STM32Cube/Repository/STM32Cube_FW_F1_V1.8.4//Middlewares/ST/STM32_USB_Device_Library/Class/CDC/Src/usbd_cdc.c ****   */
 711:/home/smartth/STM32Cube/Repository/STM32Cube_FW_F1_V1.8.4//Middlewares/ST/STM32_USB_Device_Library/Class/CDC/Src/usbd_cdc.c **** static uint8_t  USBD_CDC_DataOut(USBD_HandleTypeDef *pdev, uint8_t epnum)
 712:/home/smartth/STM32Cube/Repository/STM32Cube_FW_F1_V1.8.4//Middlewares/ST/STM32_USB_Device_Library/Class/CDC/Src/usbd_cdc.c **** {
 713:/home/smartth/STM32Cube/Repository/STM32Cube_FW_F1_V1.8.4//Middlewares/ST/STM32_USB_Device_Library/Class/CDC/Src/usbd_cdc.c ****   USBD_CDC_HandleTypeDef   *hcdc = (USBD_CDC_HandleTypeDef *) pdev->pClassData;
 714:/home/smartth/STM32Cube/Repository/STM32Cube_FW_F1_V1.8.4//Middlewares/ST/STM32_USB_Device_Library/Class/CDC/Src/usbd_cdc.c **** 
 715:/home/smartth/STM32Cube/Repository/STM32Cube_FW_F1_V1.8.4//Middlewares/ST/STM32_USB_Device_Library/Class/CDC/Src/usbd_cdc.c ****   /* Get the received data length */
 716:/home/smartth/STM32Cube/Repository/STM32Cube_FW_F1_V1.8.4//Middlewares/ST/STM32_USB_Device_Library/Class/CDC/Src/usbd_cdc.c ****   hcdc->RxLength = USBD_LL_GetRxDataSize(pdev, epnum);
ARM GAS  /tmp/ccSzjua7.s 			page 14


 717:/home/smartth/STM32Cube/Repository/STM32Cube_FW_F1_V1.8.4//Middlewares/ST/STM32_USB_Device_Library/Class/CDC/Src/usbd_cdc.c **** 
 718:/home/smartth/STM32Cube/Repository/STM32Cube_FW_F1_V1.8.4//Middlewares/ST/STM32_USB_Device_Library/Class/CDC/Src/usbd_cdc.c ****   /* USB data will be immediately processed, this allow next USB traffic being
 719:/home/smartth/STM32Cube/Repository/STM32Cube_FW_F1_V1.8.4//Middlewares/ST/STM32_USB_Device_Library/Class/CDC/Src/usbd_cdc.c ****   NAKed till the end of the application Xfer */
 720:/home/smartth/STM32Cube/Repository/STM32Cube_FW_F1_V1.8.4//Middlewares/ST/STM32_USB_Device_Library/Class/CDC/Src/usbd_cdc.c ****   if (pdev->pClassData != NULL)
 721:/home/smartth/STM32Cube/Repository/STM32Cube_FW_F1_V1.8.4//Middlewares/ST/STM32_USB_Device_Library/Class/CDC/Src/usbd_cdc.c ****   {
 722:/home/smartth/STM32Cube/Repository/STM32Cube_FW_F1_V1.8.4//Middlewares/ST/STM32_USB_Device_Library/Class/CDC/Src/usbd_cdc.c ****     ((USBD_CDC_ItfTypeDef *)pdev->pUserData)->Receive(hcdc->RxBuffer, &hcdc->RxLength);
 723:/home/smartth/STM32Cube/Repository/STM32Cube_FW_F1_V1.8.4//Middlewares/ST/STM32_USB_Device_Library/Class/CDC/Src/usbd_cdc.c **** 
 724:/home/smartth/STM32Cube/Repository/STM32Cube_FW_F1_V1.8.4//Middlewares/ST/STM32_USB_Device_Library/Class/CDC/Src/usbd_cdc.c ****     return USBD_OK;
 725:/home/smartth/STM32Cube/Repository/STM32Cube_FW_F1_V1.8.4//Middlewares/ST/STM32_USB_Device_Library/Class/CDC/Src/usbd_cdc.c ****   }
 726:/home/smartth/STM32Cube/Repository/STM32Cube_FW_F1_V1.8.4//Middlewares/ST/STM32_USB_Device_Library/Class/CDC/Src/usbd_cdc.c ****   else
 727:/home/smartth/STM32Cube/Repository/STM32Cube_FW_F1_V1.8.4//Middlewares/ST/STM32_USB_Device_Library/Class/CDC/Src/usbd_cdc.c ****   {
 728:/home/smartth/STM32Cube/Repository/STM32Cube_FW_F1_V1.8.4//Middlewares/ST/STM32_USB_Device_Library/Class/CDC/Src/usbd_cdc.c ****     return USBD_FAIL;
 729:/home/smartth/STM32Cube/Repository/STM32Cube_FW_F1_V1.8.4//Middlewares/ST/STM32_USB_Device_Library/Class/CDC/Src/usbd_cdc.c ****   }
 730:/home/smartth/STM32Cube/Repository/STM32Cube_FW_F1_V1.8.4//Middlewares/ST/STM32_USB_Device_Library/Class/CDC/Src/usbd_cdc.c **** }
 731:/home/smartth/STM32Cube/Repository/STM32Cube_FW_F1_V1.8.4//Middlewares/ST/STM32_USB_Device_Library/Class/CDC/Src/usbd_cdc.c **** 
 732:/home/smartth/STM32Cube/Repository/STM32Cube_FW_F1_V1.8.4//Middlewares/ST/STM32_USB_Device_Library/Class/CDC/Src/usbd_cdc.c **** /**
 733:/home/smartth/STM32Cube/Repository/STM32Cube_FW_F1_V1.8.4//Middlewares/ST/STM32_USB_Device_Library/Class/CDC/Src/usbd_cdc.c ****   * @brief  USBD_CDC_EP0_RxReady
 734:/home/smartth/STM32Cube/Repository/STM32Cube_FW_F1_V1.8.4//Middlewares/ST/STM32_USB_Device_Library/Class/CDC/Src/usbd_cdc.c ****   *         Handle EP0 Rx Ready event
 735:/home/smartth/STM32Cube/Repository/STM32Cube_FW_F1_V1.8.4//Middlewares/ST/STM32_USB_Device_Library/Class/CDC/Src/usbd_cdc.c ****   * @param  pdev: device instance
 736:/home/smartth/STM32Cube/Repository/STM32Cube_FW_F1_V1.8.4//Middlewares/ST/STM32_USB_Device_Library/Class/CDC/Src/usbd_cdc.c ****   * @retval status
 737:/home/smartth/STM32Cube/Repository/STM32Cube_FW_F1_V1.8.4//Middlewares/ST/STM32_USB_Device_Library/Class/CDC/Src/usbd_cdc.c ****   */
 738:/home/smartth/STM32Cube/Repository/STM32Cube_FW_F1_V1.8.4//Middlewares/ST/STM32_USB_Device_Library/Class/CDC/Src/usbd_cdc.c **** static uint8_t  USBD_CDC_EP0_RxReady(USBD_HandleTypeDef *pdev)
 739:/home/smartth/STM32Cube/Repository/STM32Cube_FW_F1_V1.8.4//Middlewares/ST/STM32_USB_Device_Library/Class/CDC/Src/usbd_cdc.c **** {
  27              		.loc 1 739 1 view -0
  28              		.cfi_startproc
  29              		@ args = 0, pretend = 0, frame = 0
  30              		@ frame_needed = 0, uses_anonymous_args = 0
  31              		.loc 1 739 1 is_stmt 0 view .LVU1
  32 0000 10B5     		push	{r4, lr}
  33              	.LCFI0:
  34              		.cfi_def_cfa_offset 8
  35              		.cfi_offset 4, -8
  36              		.cfi_offset 14, -4
 740:/home/smartth/STM32Cube/Repository/STM32Cube_FW_F1_V1.8.4//Middlewares/ST/STM32_USB_Device_Library/Class/CDC/Src/usbd_cdc.c ****   USBD_CDC_HandleTypeDef   *hcdc = (USBD_CDC_HandleTypeDef *) pdev->pClassData;
  37              		.loc 1 740 3 is_stmt 1 view .LVU2
  38              		.loc 1 740 29 is_stmt 0 view .LVU3
  39 0002 D0F8B842 		ldr	r4, [r0, #696]
  40              	.LVL1:
 741:/home/smartth/STM32Cube/Repository/STM32Cube_FW_F1_V1.8.4//Middlewares/ST/STM32_USB_Device_Library/Class/CDC/Src/usbd_cdc.c **** 
 742:/home/smartth/STM32Cube/Repository/STM32Cube_FW_F1_V1.8.4//Middlewares/ST/STM32_USB_Device_Library/Class/CDC/Src/usbd_cdc.c ****   if ((pdev->pUserData != NULL) && (hcdc->CmdOpCode != 0xFFU))
  41              		.loc 1 742 3 is_stmt 1 view .LVU4
  42              		.loc 1 742 12 is_stmt 0 view .LVU5
  43 0006 D0F8BC32 		ldr	r3, [r0, #700]
  44              		.loc 1 742 6 view .LVU6
  45 000a 5BB1     		cbz	r3, .L2
  46              		.loc 1 742 41 discriminator 1 view .LVU7
  47 000c 94F80002 		ldrb	r0, [r4, #512]	@ zero_extendqisi2
  48              	.LVL2:
  49              		.loc 1 742 33 discriminator 1 view .LVU8
  50 0010 FF28     		cmp	r0, #255
  51 0012 07D0     		beq	.L2
 743:/home/smartth/STM32Cube/Repository/STM32Cube_FW_F1_V1.8.4//Middlewares/ST/STM32_USB_Device_Library/Class/CDC/Src/usbd_cdc.c ****   {
 744:/home/smartth/STM32Cube/Repository/STM32Cube_FW_F1_V1.8.4//Middlewares/ST/STM32_USB_Device_Library/Class/CDC/Src/usbd_cdc.c ****     ((USBD_CDC_ItfTypeDef *)pdev->pUserData)->Control(hcdc->CmdOpCode,
  52              		.loc 1 744 5 is_stmt 1 view .LVU9
  53              		.loc 1 744 45 is_stmt 0 view .LVU10
  54 0014 9B68     		ldr	r3, [r3, #8]
  55              		.loc 1 744 6 view .LVU11
ARM GAS  /tmp/ccSzjua7.s 			page 15


  56 0016 94F80122 		ldrb	r2, [r4, #513]	@ zero_extendqisi2
  57 001a 2146     		mov	r1, r4
  58 001c 9847     		blx	r3
  59              	.LVL3:
 745:/home/smartth/STM32Cube/Repository/STM32Cube_FW_F1_V1.8.4//Middlewares/ST/STM32_USB_Device_Library/Class/CDC/Src/usbd_cdc.c ****                                                       (uint8_t *)(void *)hcdc->data,
 746:/home/smartth/STM32Cube/Repository/STM32Cube_FW_F1_V1.8.4//Middlewares/ST/STM32_USB_Device_Library/Class/CDC/Src/usbd_cdc.c ****                                                       (uint16_t)hcdc->CmdLength);
 747:/home/smartth/STM32Cube/Repository/STM32Cube_FW_F1_V1.8.4//Middlewares/ST/STM32_USB_Device_Library/Class/CDC/Src/usbd_cdc.c ****     hcdc->CmdOpCode = 0xFFU;
  60              		.loc 1 747 5 is_stmt 1 view .LVU12
  61              		.loc 1 747 21 is_stmt 0 view .LVU13
  62 001e FF23     		movs	r3, #255
  63 0020 84F80032 		strb	r3, [r4, #512]
  64              	.L2:
 748:/home/smartth/STM32Cube/Repository/STM32Cube_FW_F1_V1.8.4//Middlewares/ST/STM32_USB_Device_Library/Class/CDC/Src/usbd_cdc.c **** 
 749:/home/smartth/STM32Cube/Repository/STM32Cube_FW_F1_V1.8.4//Middlewares/ST/STM32_USB_Device_Library/Class/CDC/Src/usbd_cdc.c ****   }
 750:/home/smartth/STM32Cube/Repository/STM32Cube_FW_F1_V1.8.4//Middlewares/ST/STM32_USB_Device_Library/Class/CDC/Src/usbd_cdc.c ****   return USBD_OK;
  65              		.loc 1 750 3 is_stmt 1 view .LVU14
 751:/home/smartth/STM32Cube/Repository/STM32Cube_FW_F1_V1.8.4//Middlewares/ST/STM32_USB_Device_Library/Class/CDC/Src/usbd_cdc.c **** }
  66              		.loc 1 751 1 is_stmt 0 view .LVU15
  67 0024 0020     		movs	r0, #0
  68 0026 10BD     		pop	{r4, pc}
  69              		.loc 1 751 1 view .LVU16
  70              		.cfi_endproc
  71              	.LFE202:
  73              		.section	.text.USBD_CDC_GetFSCfgDesc,"ax",%progbits
  74              		.align	1
  75              		.syntax unified
  76              		.thumb
  77              		.thumb_func
  78              		.fpu softvfp
  80              	USBD_CDC_GetFSCfgDesc:
  81              	.LVL4:
  82              	.LFB203:
 752:/home/smartth/STM32Cube/Repository/STM32Cube_FW_F1_V1.8.4//Middlewares/ST/STM32_USB_Device_Library/Class/CDC/Src/usbd_cdc.c **** 
 753:/home/smartth/STM32Cube/Repository/STM32Cube_FW_F1_V1.8.4//Middlewares/ST/STM32_USB_Device_Library/Class/CDC/Src/usbd_cdc.c **** /**
 754:/home/smartth/STM32Cube/Repository/STM32Cube_FW_F1_V1.8.4//Middlewares/ST/STM32_USB_Device_Library/Class/CDC/Src/usbd_cdc.c ****   * @brief  USBD_CDC_GetFSCfgDesc
 755:/home/smartth/STM32Cube/Repository/STM32Cube_FW_F1_V1.8.4//Middlewares/ST/STM32_USB_Device_Library/Class/CDC/Src/usbd_cdc.c ****   *         Return configuration descriptor
 756:/home/smartth/STM32Cube/Repository/STM32Cube_FW_F1_V1.8.4//Middlewares/ST/STM32_USB_Device_Library/Class/CDC/Src/usbd_cdc.c ****   * @param  speed : current device speed
 757:/home/smartth/STM32Cube/Repository/STM32Cube_FW_F1_V1.8.4//Middlewares/ST/STM32_USB_Device_Library/Class/CDC/Src/usbd_cdc.c ****   * @param  length : pointer data length
 758:/home/smartth/STM32Cube/Repository/STM32Cube_FW_F1_V1.8.4//Middlewares/ST/STM32_USB_Device_Library/Class/CDC/Src/usbd_cdc.c ****   * @retval pointer to descriptor buffer
 759:/home/smartth/STM32Cube/Repository/STM32Cube_FW_F1_V1.8.4//Middlewares/ST/STM32_USB_Device_Library/Class/CDC/Src/usbd_cdc.c ****   */
 760:/home/smartth/STM32Cube/Repository/STM32Cube_FW_F1_V1.8.4//Middlewares/ST/STM32_USB_Device_Library/Class/CDC/Src/usbd_cdc.c **** static uint8_t  *USBD_CDC_GetFSCfgDesc(uint16_t *length)
 761:/home/smartth/STM32Cube/Repository/STM32Cube_FW_F1_V1.8.4//Middlewares/ST/STM32_USB_Device_Library/Class/CDC/Src/usbd_cdc.c **** {
  83              		.loc 1 761 1 is_stmt 1 view -0
  84              		.cfi_startproc
  85              		@ args = 0, pretend = 0, frame = 0
  86              		@ frame_needed = 0, uses_anonymous_args = 0
  87              		@ link register save eliminated.
 762:/home/smartth/STM32Cube/Repository/STM32Cube_FW_F1_V1.8.4//Middlewares/ST/STM32_USB_Device_Library/Class/CDC/Src/usbd_cdc.c ****   *length = sizeof(USBD_CDC_CfgFSDesc);
  88              		.loc 1 762 3 view .LVU18
  89              		.loc 1 762 11 is_stmt 0 view .LVU19
  90 0000 4323     		movs	r3, #67
  91 0002 0380     		strh	r3, [r0]	@ movhi
 763:/home/smartth/STM32Cube/Repository/STM32Cube_FW_F1_V1.8.4//Middlewares/ST/STM32_USB_Device_Library/Class/CDC/Src/usbd_cdc.c ****   return USBD_CDC_CfgFSDesc;
  92              		.loc 1 763 3 is_stmt 1 view .LVU20
 764:/home/smartth/STM32Cube/Repository/STM32Cube_FW_F1_V1.8.4//Middlewares/ST/STM32_USB_Device_Library/Class/CDC/Src/usbd_cdc.c **** }
  93              		.loc 1 764 1 is_stmt 0 view .LVU21
  94 0004 0048     		ldr	r0, .L5
ARM GAS  /tmp/ccSzjua7.s 			page 16


  95              	.LVL5:
  96              		.loc 1 764 1 view .LVU22
  97 0006 7047     		bx	lr
  98              	.L6:
  99              		.align	2
 100              	.L5:
 101 0008 00000000 		.word	.LANCHOR0
 102              		.cfi_endproc
 103              	.LFE203:
 105              		.section	.text.USBD_CDC_GetHSCfgDesc,"ax",%progbits
 106              		.align	1
 107              		.syntax unified
 108              		.thumb
 109              		.thumb_func
 110              		.fpu softvfp
 112              	USBD_CDC_GetHSCfgDesc:
 113              	.LVL6:
 114              	.LFB204:
 765:/home/smartth/STM32Cube/Repository/STM32Cube_FW_F1_V1.8.4//Middlewares/ST/STM32_USB_Device_Library/Class/CDC/Src/usbd_cdc.c **** 
 766:/home/smartth/STM32Cube/Repository/STM32Cube_FW_F1_V1.8.4//Middlewares/ST/STM32_USB_Device_Library/Class/CDC/Src/usbd_cdc.c **** /**
 767:/home/smartth/STM32Cube/Repository/STM32Cube_FW_F1_V1.8.4//Middlewares/ST/STM32_USB_Device_Library/Class/CDC/Src/usbd_cdc.c ****   * @brief  USBD_CDC_GetHSCfgDesc
 768:/home/smartth/STM32Cube/Repository/STM32Cube_FW_F1_V1.8.4//Middlewares/ST/STM32_USB_Device_Library/Class/CDC/Src/usbd_cdc.c ****   *         Return configuration descriptor
 769:/home/smartth/STM32Cube/Repository/STM32Cube_FW_F1_V1.8.4//Middlewares/ST/STM32_USB_Device_Library/Class/CDC/Src/usbd_cdc.c ****   * @param  speed : current device speed
 770:/home/smartth/STM32Cube/Repository/STM32Cube_FW_F1_V1.8.4//Middlewares/ST/STM32_USB_Device_Library/Class/CDC/Src/usbd_cdc.c ****   * @param  length : pointer data length
 771:/home/smartth/STM32Cube/Repository/STM32Cube_FW_F1_V1.8.4//Middlewares/ST/STM32_USB_Device_Library/Class/CDC/Src/usbd_cdc.c ****   * @retval pointer to descriptor buffer
 772:/home/smartth/STM32Cube/Repository/STM32Cube_FW_F1_V1.8.4//Middlewares/ST/STM32_USB_Device_Library/Class/CDC/Src/usbd_cdc.c ****   */
 773:/home/smartth/STM32Cube/Repository/STM32Cube_FW_F1_V1.8.4//Middlewares/ST/STM32_USB_Device_Library/Class/CDC/Src/usbd_cdc.c **** static uint8_t  *USBD_CDC_GetHSCfgDesc(uint16_t *length)
 774:/home/smartth/STM32Cube/Repository/STM32Cube_FW_F1_V1.8.4//Middlewares/ST/STM32_USB_Device_Library/Class/CDC/Src/usbd_cdc.c **** {
 115              		.loc 1 774 1 is_stmt 1 view -0
 116              		.cfi_startproc
 117              		@ args = 0, pretend = 0, frame = 0
 118              		@ frame_needed = 0, uses_anonymous_args = 0
 119              		@ link register save eliminated.
 775:/home/smartth/STM32Cube/Repository/STM32Cube_FW_F1_V1.8.4//Middlewares/ST/STM32_USB_Device_Library/Class/CDC/Src/usbd_cdc.c ****   *length = sizeof(USBD_CDC_CfgHSDesc);
 120              		.loc 1 775 3 view .LVU24
 121              		.loc 1 775 11 is_stmt 0 view .LVU25
 122 0000 4323     		movs	r3, #67
 123 0002 0380     		strh	r3, [r0]	@ movhi
 776:/home/smartth/STM32Cube/Repository/STM32Cube_FW_F1_V1.8.4//Middlewares/ST/STM32_USB_Device_Library/Class/CDC/Src/usbd_cdc.c ****   return USBD_CDC_CfgHSDesc;
 124              		.loc 1 776 3 is_stmt 1 view .LVU26
 777:/home/smartth/STM32Cube/Repository/STM32Cube_FW_F1_V1.8.4//Middlewares/ST/STM32_USB_Device_Library/Class/CDC/Src/usbd_cdc.c **** }
 125              		.loc 1 777 1 is_stmt 0 view .LVU27
 126 0004 0048     		ldr	r0, .L8
 127              	.LVL7:
 128              		.loc 1 777 1 view .LVU28
 129 0006 7047     		bx	lr
 130              	.L9:
 131              		.align	2
 132              	.L8:
 133 0008 00000000 		.word	.LANCHOR1
 134              		.cfi_endproc
 135              	.LFE204:
 137              		.section	.text.USBD_CDC_GetOtherSpeedCfgDesc,"ax",%progbits
 138              		.align	1
 139              		.syntax unified
 140              		.thumb
 141              		.thumb_func
ARM GAS  /tmp/ccSzjua7.s 			page 17


 142              		.fpu softvfp
 144              	USBD_CDC_GetOtherSpeedCfgDesc:
 145              	.LVL8:
 146              	.LFB205:
 778:/home/smartth/STM32Cube/Repository/STM32Cube_FW_F1_V1.8.4//Middlewares/ST/STM32_USB_Device_Library/Class/CDC/Src/usbd_cdc.c **** 
 779:/home/smartth/STM32Cube/Repository/STM32Cube_FW_F1_V1.8.4//Middlewares/ST/STM32_USB_Device_Library/Class/CDC/Src/usbd_cdc.c **** /**
 780:/home/smartth/STM32Cube/Repository/STM32Cube_FW_F1_V1.8.4//Middlewares/ST/STM32_USB_Device_Library/Class/CDC/Src/usbd_cdc.c ****   * @brief  USBD_CDC_GetCfgDesc
 781:/home/smartth/STM32Cube/Repository/STM32Cube_FW_F1_V1.8.4//Middlewares/ST/STM32_USB_Device_Library/Class/CDC/Src/usbd_cdc.c ****   *         Return configuration descriptor
 782:/home/smartth/STM32Cube/Repository/STM32Cube_FW_F1_V1.8.4//Middlewares/ST/STM32_USB_Device_Library/Class/CDC/Src/usbd_cdc.c ****   * @param  speed : current device speed
 783:/home/smartth/STM32Cube/Repository/STM32Cube_FW_F1_V1.8.4//Middlewares/ST/STM32_USB_Device_Library/Class/CDC/Src/usbd_cdc.c ****   * @param  length : pointer data length
 784:/home/smartth/STM32Cube/Repository/STM32Cube_FW_F1_V1.8.4//Middlewares/ST/STM32_USB_Device_Library/Class/CDC/Src/usbd_cdc.c ****   * @retval pointer to descriptor buffer
 785:/home/smartth/STM32Cube/Repository/STM32Cube_FW_F1_V1.8.4//Middlewares/ST/STM32_USB_Device_Library/Class/CDC/Src/usbd_cdc.c ****   */
 786:/home/smartth/STM32Cube/Repository/STM32Cube_FW_F1_V1.8.4//Middlewares/ST/STM32_USB_Device_Library/Class/CDC/Src/usbd_cdc.c **** static uint8_t  *USBD_CDC_GetOtherSpeedCfgDesc(uint16_t *length)
 787:/home/smartth/STM32Cube/Repository/STM32Cube_FW_F1_V1.8.4//Middlewares/ST/STM32_USB_Device_Library/Class/CDC/Src/usbd_cdc.c **** {
 147              		.loc 1 787 1 is_stmt 1 view -0
 148              		.cfi_startproc
 149              		@ args = 0, pretend = 0, frame = 0
 150              		@ frame_needed = 0, uses_anonymous_args = 0
 151              		@ link register save eliminated.
 788:/home/smartth/STM32Cube/Repository/STM32Cube_FW_F1_V1.8.4//Middlewares/ST/STM32_USB_Device_Library/Class/CDC/Src/usbd_cdc.c ****   *length = sizeof(USBD_CDC_OtherSpeedCfgDesc);
 152              		.loc 1 788 3 view .LVU30
 153              		.loc 1 788 11 is_stmt 0 view .LVU31
 154 0000 4323     		movs	r3, #67
 155 0002 0380     		strh	r3, [r0]	@ movhi
 789:/home/smartth/STM32Cube/Repository/STM32Cube_FW_F1_V1.8.4//Middlewares/ST/STM32_USB_Device_Library/Class/CDC/Src/usbd_cdc.c ****   return USBD_CDC_OtherSpeedCfgDesc;
 156              		.loc 1 789 3 is_stmt 1 view .LVU32
 790:/home/smartth/STM32Cube/Repository/STM32Cube_FW_F1_V1.8.4//Middlewares/ST/STM32_USB_Device_Library/Class/CDC/Src/usbd_cdc.c **** }
 157              		.loc 1 790 1 is_stmt 0 view .LVU33
 158 0004 0048     		ldr	r0, .L11
 159              	.LVL9:
 160              		.loc 1 790 1 view .LVU34
 161 0006 7047     		bx	lr
 162              	.L12:
 163              		.align	2
 164              	.L11:
 165 0008 00000000 		.word	.LANCHOR2
 166              		.cfi_endproc
 167              	.LFE205:
 169              		.section	.text.USBD_CDC_GetDeviceQualifierDescriptor,"ax",%progbits
 170              		.align	1
 171              		.global	USBD_CDC_GetDeviceQualifierDescriptor
 172              		.syntax unified
 173              		.thumb
 174              		.thumb_func
 175              		.fpu softvfp
 177              	USBD_CDC_GetDeviceQualifierDescriptor:
 178              	.LVL10:
 179              	.LFB206:
 791:/home/smartth/STM32Cube/Repository/STM32Cube_FW_F1_V1.8.4//Middlewares/ST/STM32_USB_Device_Library/Class/CDC/Src/usbd_cdc.c **** 
 792:/home/smartth/STM32Cube/Repository/STM32Cube_FW_F1_V1.8.4//Middlewares/ST/STM32_USB_Device_Library/Class/CDC/Src/usbd_cdc.c **** /**
 793:/home/smartth/STM32Cube/Repository/STM32Cube_FW_F1_V1.8.4//Middlewares/ST/STM32_USB_Device_Library/Class/CDC/Src/usbd_cdc.c **** * @brief  DeviceQualifierDescriptor
 794:/home/smartth/STM32Cube/Repository/STM32Cube_FW_F1_V1.8.4//Middlewares/ST/STM32_USB_Device_Library/Class/CDC/Src/usbd_cdc.c **** *         return Device Qualifier descriptor
 795:/home/smartth/STM32Cube/Repository/STM32Cube_FW_F1_V1.8.4//Middlewares/ST/STM32_USB_Device_Library/Class/CDC/Src/usbd_cdc.c **** * @param  length : pointer data length
 796:/home/smartth/STM32Cube/Repository/STM32Cube_FW_F1_V1.8.4//Middlewares/ST/STM32_USB_Device_Library/Class/CDC/Src/usbd_cdc.c **** * @retval pointer to descriptor buffer
 797:/home/smartth/STM32Cube/Repository/STM32Cube_FW_F1_V1.8.4//Middlewares/ST/STM32_USB_Device_Library/Class/CDC/Src/usbd_cdc.c **** */
 798:/home/smartth/STM32Cube/Repository/STM32Cube_FW_F1_V1.8.4//Middlewares/ST/STM32_USB_Device_Library/Class/CDC/Src/usbd_cdc.c **** uint8_t  *USBD_CDC_GetDeviceQualifierDescriptor(uint16_t *length)
 799:/home/smartth/STM32Cube/Repository/STM32Cube_FW_F1_V1.8.4//Middlewares/ST/STM32_USB_Device_Library/Class/CDC/Src/usbd_cdc.c **** {
ARM GAS  /tmp/ccSzjua7.s 			page 18


 180              		.loc 1 799 1 is_stmt 1 view -0
 181              		.cfi_startproc
 182              		@ args = 0, pretend = 0, frame = 0
 183              		@ frame_needed = 0, uses_anonymous_args = 0
 184              		@ link register save eliminated.
 800:/home/smartth/STM32Cube/Repository/STM32Cube_FW_F1_V1.8.4//Middlewares/ST/STM32_USB_Device_Library/Class/CDC/Src/usbd_cdc.c ****   *length = sizeof(USBD_CDC_DeviceQualifierDesc);
 185              		.loc 1 800 3 view .LVU36
 186              		.loc 1 800 11 is_stmt 0 view .LVU37
 187 0000 0A23     		movs	r3, #10
 188 0002 0380     		strh	r3, [r0]	@ movhi
 801:/home/smartth/STM32Cube/Repository/STM32Cube_FW_F1_V1.8.4//Middlewares/ST/STM32_USB_Device_Library/Class/CDC/Src/usbd_cdc.c ****   return USBD_CDC_DeviceQualifierDesc;
 189              		.loc 1 801 3 is_stmt 1 view .LVU38
 802:/home/smartth/STM32Cube/Repository/STM32Cube_FW_F1_V1.8.4//Middlewares/ST/STM32_USB_Device_Library/Class/CDC/Src/usbd_cdc.c **** }
 190              		.loc 1 802 1 is_stmt 0 view .LVU39
 191 0004 0048     		ldr	r0, .L14
 192              	.LVL11:
 193              		.loc 1 802 1 view .LVU40
 194 0006 7047     		bx	lr
 195              	.L15:
 196              		.align	2
 197              	.L14:
 198 0008 00000000 		.word	.LANCHOR3
 199              		.cfi_endproc
 200              	.LFE206:
 202              		.section	.text.USBD_CDC_DataOut,"ax",%progbits
 203              		.align	1
 204              		.syntax unified
 205              		.thumb
 206              		.thumb_func
 207              		.fpu softvfp
 209              	USBD_CDC_DataOut:
 210              	.LVL12:
 211              	.LFB201:
 712:/home/smartth/STM32Cube/Repository/STM32Cube_FW_F1_V1.8.4//Middlewares/ST/STM32_USB_Device_Library/Class/CDC/Src/usbd_cdc.c ****   USBD_CDC_HandleTypeDef   *hcdc = (USBD_CDC_HandleTypeDef *) pdev->pClassData;
 212              		.loc 1 712 1 is_stmt 1 view -0
 213              		.cfi_startproc
 214              		@ args = 0, pretend = 0, frame = 0
 215              		@ frame_needed = 0, uses_anonymous_args = 0
 712:/home/smartth/STM32Cube/Repository/STM32Cube_FW_F1_V1.8.4//Middlewares/ST/STM32_USB_Device_Library/Class/CDC/Src/usbd_cdc.c ****   USBD_CDC_HandleTypeDef   *hcdc = (USBD_CDC_HandleTypeDef *) pdev->pClassData;
 216              		.loc 1 712 1 is_stmt 0 view .LVU42
 217 0000 38B5     		push	{r3, r4, r5, lr}
 218              	.LCFI1:
 219              		.cfi_def_cfa_offset 16
 220              		.cfi_offset 3, -16
 221              		.cfi_offset 4, -12
 222              		.cfi_offset 5, -8
 223              		.cfi_offset 14, -4
 224 0002 0446     		mov	r4, r0
 713:/home/smartth/STM32Cube/Repository/STM32Cube_FW_F1_V1.8.4//Middlewares/ST/STM32_USB_Device_Library/Class/CDC/Src/usbd_cdc.c **** 
 225              		.loc 1 713 3 is_stmt 1 view .LVU43
 713:/home/smartth/STM32Cube/Repository/STM32Cube_FW_F1_V1.8.4//Middlewares/ST/STM32_USB_Device_Library/Class/CDC/Src/usbd_cdc.c **** 
 226              		.loc 1 713 29 is_stmt 0 view .LVU44
 227 0004 D0F8B852 		ldr	r5, [r0, #696]
 228              	.LVL13:
 716:/home/smartth/STM32Cube/Repository/STM32Cube_FW_F1_V1.8.4//Middlewares/ST/STM32_USB_Device_Library/Class/CDC/Src/usbd_cdc.c **** 
 229              		.loc 1 716 3 is_stmt 1 view .LVU45
 716:/home/smartth/STM32Cube/Repository/STM32Cube_FW_F1_V1.8.4//Middlewares/ST/STM32_USB_Device_Library/Class/CDC/Src/usbd_cdc.c **** 
ARM GAS  /tmp/ccSzjua7.s 			page 19


 230              		.loc 1 716 20 is_stmt 0 view .LVU46
 231 0008 FFF7FEFF 		bl	USBD_LL_GetRxDataSize
 232              	.LVL14:
 716:/home/smartth/STM32Cube/Repository/STM32Cube_FW_F1_V1.8.4//Middlewares/ST/STM32_USB_Device_Library/Class/CDC/Src/usbd_cdc.c **** 
 233              		.loc 1 716 18 view .LVU47
 234 000c C5F80C02 		str	r0, [r5, #524]
 720:/home/smartth/STM32Cube/Repository/STM32Cube_FW_F1_V1.8.4//Middlewares/ST/STM32_USB_Device_Library/Class/CDC/Src/usbd_cdc.c ****   {
 235              		.loc 1 720 3 is_stmt 1 view .LVU48
 720:/home/smartth/STM32Cube/Repository/STM32Cube_FW_F1_V1.8.4//Middlewares/ST/STM32_USB_Device_Library/Class/CDC/Src/usbd_cdc.c ****   {
 236              		.loc 1 720 11 is_stmt 0 view .LVU49
 237 0010 D4F8B832 		ldr	r3, [r4, #696]
 720:/home/smartth/STM32Cube/Repository/STM32Cube_FW_F1_V1.8.4//Middlewares/ST/STM32_USB_Device_Library/Class/CDC/Src/usbd_cdc.c ****   {
 238              		.loc 1 720 6 view .LVU50
 239 0014 4BB1     		cbz	r3, .L18
 722:/home/smartth/STM32Cube/Repository/STM32Cube_FW_F1_V1.8.4//Middlewares/ST/STM32_USB_Device_Library/Class/CDC/Src/usbd_cdc.c **** 
 240              		.loc 1 722 5 is_stmt 1 view .LVU51
 722:/home/smartth/STM32Cube/Repository/STM32Cube_FW_F1_V1.8.4//Middlewares/ST/STM32_USB_Device_Library/Class/CDC/Src/usbd_cdc.c **** 
 241              		.loc 1 722 33 is_stmt 0 view .LVU52
 242 0016 D4F8BC32 		ldr	r3, [r4, #700]
 722:/home/smartth/STM32Cube/Repository/STM32Cube_FW_F1_V1.8.4//Middlewares/ST/STM32_USB_Device_Library/Class/CDC/Src/usbd_cdc.c **** 
 243              		.loc 1 722 45 view .LVU53
 244 001a DB68     		ldr	r3, [r3, #12]
 722:/home/smartth/STM32Cube/Repository/STM32Cube_FW_F1_V1.8.4//Middlewares/ST/STM32_USB_Device_Library/Class/CDC/Src/usbd_cdc.c **** 
 245              		.loc 1 722 6 view .LVU54
 246 001c 05F50371 		add	r1, r5, #524
 247 0020 D5F80402 		ldr	r0, [r5, #516]
 248 0024 9847     		blx	r3
 249              	.LVL15:
 724:/home/smartth/STM32Cube/Repository/STM32Cube_FW_F1_V1.8.4//Middlewares/ST/STM32_USB_Device_Library/Class/CDC/Src/usbd_cdc.c ****   }
 250              		.loc 1 724 5 is_stmt 1 view .LVU55
 724:/home/smartth/STM32Cube/Repository/STM32Cube_FW_F1_V1.8.4//Middlewares/ST/STM32_USB_Device_Library/Class/CDC/Src/usbd_cdc.c ****   }
 251              		.loc 1 724 12 is_stmt 0 view .LVU56
 252 0026 0020     		movs	r0, #0
 253              	.L17:
 730:/home/smartth/STM32Cube/Repository/STM32Cube_FW_F1_V1.8.4//Middlewares/ST/STM32_USB_Device_Library/Class/CDC/Src/usbd_cdc.c **** 
 254              		.loc 1 730 1 view .LVU57
 255 0028 38BD     		pop	{r3, r4, r5, pc}
 256              	.LVL16:
 257              	.L18:
 728:/home/smartth/STM32Cube/Repository/STM32Cube_FW_F1_V1.8.4//Middlewares/ST/STM32_USB_Device_Library/Class/CDC/Src/usbd_cdc.c ****   }
 258              		.loc 1 728 12 view .LVU58
 259 002a 0220     		movs	r0, #2
 260 002c FCE7     		b	.L17
 261              		.cfi_endproc
 262              	.LFE201:
 264              		.section	.text.USBD_CDC_DataIn,"ax",%progbits
 265              		.align	1
 266              		.syntax unified
 267              		.thumb
 268              		.thumb_func
 269              		.fpu softvfp
 271              	USBD_CDC_DataIn:
 272              	.LVL17:
 273              	.LFB200:
 678:/home/smartth/STM32Cube/Repository/STM32Cube_FW_F1_V1.8.4//Middlewares/ST/STM32_USB_Device_Library/Class/CDC/Src/usbd_cdc.c ****   USBD_CDC_HandleTypeDef *hcdc = (USBD_CDC_HandleTypeDef *)pdev->pClassData;
 274              		.loc 1 678 1 is_stmt 1 view -0
 275              		.cfi_startproc
ARM GAS  /tmp/ccSzjua7.s 			page 20


 276              		@ args = 0, pretend = 0, frame = 0
 277              		@ frame_needed = 0, uses_anonymous_args = 0
 678:/home/smartth/STM32Cube/Repository/STM32Cube_FW_F1_V1.8.4//Middlewares/ST/STM32_USB_Device_Library/Class/CDC/Src/usbd_cdc.c ****   USBD_CDC_HandleTypeDef *hcdc = (USBD_CDC_HandleTypeDef *)pdev->pClassData;
 278              		.loc 1 678 1 is_stmt 0 view .LVU60
 279 0000 10B5     		push	{r4, lr}
 280              	.LCFI2:
 281              		.cfi_def_cfa_offset 8
 282              		.cfi_offset 4, -8
 283              		.cfi_offset 14, -4
 679:/home/smartth/STM32Cube/Repository/STM32Cube_FW_F1_V1.8.4//Middlewares/ST/STM32_USB_Device_Library/Class/CDC/Src/usbd_cdc.c ****   PCD_HandleTypeDef *hpcd = pdev->pData;
 284              		.loc 1 679 3 is_stmt 1 view .LVU61
 679:/home/smartth/STM32Cube/Repository/STM32Cube_FW_F1_V1.8.4//Middlewares/ST/STM32_USB_Device_Library/Class/CDC/Src/usbd_cdc.c ****   PCD_HandleTypeDef *hpcd = pdev->pData;
 285              		.loc 1 679 27 is_stmt 0 view .LVU62
 286 0002 D0F8B822 		ldr	r2, [r0, #696]
 287              	.LVL18:
 680:/home/smartth/STM32Cube/Repository/STM32Cube_FW_F1_V1.8.4//Middlewares/ST/STM32_USB_Device_Library/Class/CDC/Src/usbd_cdc.c **** 
 288              		.loc 1 680 3 is_stmt 1 view .LVU63
 680:/home/smartth/STM32Cube/Repository/STM32Cube_FW_F1_V1.8.4//Middlewares/ST/STM32_USB_Device_Library/Class/CDC/Src/usbd_cdc.c **** 
 289              		.loc 1 680 22 is_stmt 0 view .LVU64
 290 0006 D0F8C042 		ldr	r4, [r0, #704]
 291              	.LVL19:
 682:/home/smartth/STM32Cube/Repository/STM32Cube_FW_F1_V1.8.4//Middlewares/ST/STM32_USB_Device_Library/Class/CDC/Src/usbd_cdc.c ****   {
 292              		.loc 1 682 3 is_stmt 1 view .LVU65
 682:/home/smartth/STM32Cube/Repository/STM32Cube_FW_F1_V1.8.4//Middlewares/ST/STM32_USB_Device_Library/Class/CDC/Src/usbd_cdc.c ****   {
 293              		.loc 1 682 6 is_stmt 0 view .LVU66
 294 000a F2B1     		cbz	r2, .L24
 684:/home/smartth/STM32Cube/Repository/STM32Cube_FW_F1_V1.8.4//Middlewares/ST/STM32_USB_Device_Library/Class/CDC/Src/usbd_cdc.c ****     {
 295              		.loc 1 684 5 is_stmt 1 view .LVU67
 684:/home/smartth/STM32Cube/Repository/STM32Cube_FW_F1_V1.8.4//Middlewares/ST/STM32_USB_Device_Library/Class/CDC/Src/usbd_cdc.c ****     {
 296              		.loc 1 684 28 is_stmt 0 view .LVU68
 297 000c 01EB8103 		add	r3, r1, r1, lsl #2
 298 0010 00EB8303 		add	r3, r0, r3, lsl #2
 299 0014 DB69     		ldr	r3, [r3, #28]
 684:/home/smartth/STM32Cube/Repository/STM32Cube_FW_F1_V1.8.4//Middlewares/ST/STM32_USB_Device_Library/Class/CDC/Src/usbd_cdc.c ****     {
 300              		.loc 1 684 8 view .LVU69
 301 0016 4BB1     		cbz	r3, .L22
 684:/home/smartth/STM32Cube/Repository/STM32Cube_FW_F1_V1.8.4//Middlewares/ST/STM32_USB_Device_Library/Class/CDC/Src/usbd_cdc.c ****     {
 302              		.loc 1 684 105 discriminator 1 view .LVU70
 303 0018 01EB810C 		add	ip, r1, r1, lsl #2
 304 001c 04EBCC04 		add	r4, r4, ip, lsl #3
 305              	.LVL20:
 684:/home/smartth/STM32Cube/Repository/STM32Cube_FW_F1_V1.8.4//Middlewares/ST/STM32_USB_Device_Library/Class/CDC/Src/usbd_cdc.c ****     {
 306              		.loc 1 684 105 discriminator 1 view .LVU71
 307 0020 A46B     		ldr	r4, [r4, #56]
 684:/home/smartth/STM32Cube/Repository/STM32Cube_FW_F1_V1.8.4//Middlewares/ST/STM32_USB_Device_Library/Class/CDC/Src/usbd_cdc.c ****     {
 308              		.loc 1 684 85 discriminator 1 view .LVU72
 309 0022 B3FBF4FC 		udiv	ip, r3, r4
 310 0026 04FB1C33 		mls	r3, r4, ip, r3
 684:/home/smartth/STM32Cube/Repository/STM32Cube_FW_F1_V1.8.4//Middlewares/ST/STM32_USB_Device_Library/Class/CDC/Src/usbd_cdc.c ****     {
 311              		.loc 1 684 48 discriminator 1 view .LVU73
 312 002a 23B1     		cbz	r3, .L26
 313              	.L22:
 694:/home/smartth/STM32Cube/Repository/STM32Cube_FW_F1_V1.8.4//Middlewares/ST/STM32_USB_Device_Library/Class/CDC/Src/usbd_cdc.c ****     }
 314              		.loc 1 694 7 is_stmt 1 view .LVU74
 694:/home/smartth/STM32Cube/Repository/STM32Cube_FW_F1_V1.8.4//Middlewares/ST/STM32_USB_Device_Library/Class/CDC/Src/usbd_cdc.c ****     }
 315              		.loc 1 694 21 is_stmt 0 view .LVU75
 316 002c 0023     		movs	r3, #0
ARM GAS  /tmp/ccSzjua7.s 			page 21


 317 002e C2F81432 		str	r3, [r2, #532]
 318              	.LVL21:
 319              	.L23:
 696:/home/smartth/STM32Cube/Repository/STM32Cube_FW_F1_V1.8.4//Middlewares/ST/STM32_USB_Device_Library/Class/CDC/Src/usbd_cdc.c ****   }
 320              		.loc 1 696 5 is_stmt 1 view .LVU76
 696:/home/smartth/STM32Cube/Repository/STM32Cube_FW_F1_V1.8.4//Middlewares/ST/STM32_USB_Device_Library/Class/CDC/Src/usbd_cdc.c ****   }
 321              		.loc 1 696 12 is_stmt 0 view .LVU77
 322 0032 0020     		movs	r0, #0
 323              	.L21:
 702:/home/smartth/STM32Cube/Repository/STM32Cube_FW_F1_V1.8.4//Middlewares/ST/STM32_USB_Device_Library/Class/CDC/Src/usbd_cdc.c **** 
 324              		.loc 1 702 1 view .LVU78
 325 0034 10BD     		pop	{r4, pc}
 326              	.LVL22:
 327              	.L26:
 687:/home/smartth/STM32Cube/Repository/STM32Cube_FW_F1_V1.8.4//Middlewares/ST/STM32_USB_Device_Library/Class/CDC/Src/usbd_cdc.c **** 
 328              		.loc 1 687 7 is_stmt 1 view .LVU79
 687:/home/smartth/STM32Cube/Repository/STM32Cube_FW_F1_V1.8.4//Middlewares/ST/STM32_USB_Device_Library/Class/CDC/Src/usbd_cdc.c **** 
 329              		.loc 1 687 39 is_stmt 0 view .LVU80
 330 0036 01EB8103 		add	r3, r1, r1, lsl #2
 331 003a 00EB8303 		add	r3, r0, r3, lsl #2
 332 003e 0022     		movs	r2, #0
 333              	.LVL23:
 687:/home/smartth/STM32Cube/Repository/STM32Cube_FW_F1_V1.8.4//Middlewares/ST/STM32_USB_Device_Library/Class/CDC/Src/usbd_cdc.c **** 
 334              		.loc 1 687 39 view .LVU81
 335 0040 DA61     		str	r2, [r3, #28]
 336              	.LVL24:
 690:/home/smartth/STM32Cube/Repository/STM32Cube_FW_F1_V1.8.4//Middlewares/ST/STM32_USB_Device_Library/Class/CDC/Src/usbd_cdc.c ****     }
 337              		.loc 1 690 7 is_stmt 1 view .LVU82
 338 0042 1346     		mov	r3, r2
 339 0044 FFF7FEFF 		bl	USBD_LL_Transmit
 340              	.LVL25:
 690:/home/smartth/STM32Cube/Repository/STM32Cube_FW_F1_V1.8.4//Middlewares/ST/STM32_USB_Device_Library/Class/CDC/Src/usbd_cdc.c ****     }
 341              		.loc 1 690 7 is_stmt 0 view .LVU83
 342 0048 F3E7     		b	.L23
 343              	.LVL26:
 344              	.L24:
 700:/home/smartth/STM32Cube/Repository/STM32Cube_FW_F1_V1.8.4//Middlewares/ST/STM32_USB_Device_Library/Class/CDC/Src/usbd_cdc.c ****   }
 345              		.loc 1 700 12 view .LVU84
 346 004a 0220     		movs	r0, #2
 347              	.LVL27:
 700:/home/smartth/STM32Cube/Repository/STM32Cube_FW_F1_V1.8.4//Middlewares/ST/STM32_USB_Device_Library/Class/CDC/Src/usbd_cdc.c ****   }
 348              		.loc 1 700 12 view .LVU85
 349 004c F2E7     		b	.L21
 350              		.cfi_endproc
 351              	.LFE200:
 353              		.section	.text.USBD_CDC_Setup,"ax",%progbits
 354              		.align	1
 355              		.syntax unified
 356              		.thumb
 357              		.thumb_func
 358              		.fpu softvfp
 360              	USBD_CDC_Setup:
 361              	.LVL28:
 362              	.LFB199:
 585:/home/smartth/STM32Cube/Repository/STM32Cube_FW_F1_V1.8.4//Middlewares/ST/STM32_USB_Device_Library/Class/CDC/Src/usbd_cdc.c ****   USBD_CDC_HandleTypeDef   *hcdc = (USBD_CDC_HandleTypeDef *) pdev->pClassData;
 363              		.loc 1 585 1 is_stmt 1 view -0
 364              		.cfi_startproc
ARM GAS  /tmp/ccSzjua7.s 			page 22


 365              		@ args = 0, pretend = 0, frame = 8
 366              		@ frame_needed = 0, uses_anonymous_args = 0
 585:/home/smartth/STM32Cube/Repository/STM32Cube_FW_F1_V1.8.4//Middlewares/ST/STM32_USB_Device_Library/Class/CDC/Src/usbd_cdc.c ****   USBD_CDC_HandleTypeDef   *hcdc = (USBD_CDC_HandleTypeDef *) pdev->pClassData;
 367              		.loc 1 585 1 is_stmt 0 view .LVU87
 368 0000 F0B5     		push	{r4, r5, r6, r7, lr}
 369              	.LCFI3:
 370              		.cfi_def_cfa_offset 20
 371              		.cfi_offset 4, -20
 372              		.cfi_offset 5, -16
 373              		.cfi_offset 6, -12
 374              		.cfi_offset 7, -8
 375              		.cfi_offset 14, -4
 376 0002 83B0     		sub	sp, sp, #12
 377              	.LCFI4:
 378              		.cfi_def_cfa_offset 32
 379 0004 0646     		mov	r6, r0
 380 0006 0C46     		mov	r4, r1
 586:/home/smartth/STM32Cube/Repository/STM32Cube_FW_F1_V1.8.4//Middlewares/ST/STM32_USB_Device_Library/Class/CDC/Src/usbd_cdc.c ****   uint8_t ifalt = 0U;
 381              		.loc 1 586 3 is_stmt 1 view .LVU88
 586:/home/smartth/STM32Cube/Repository/STM32Cube_FW_F1_V1.8.4//Middlewares/ST/STM32_USB_Device_Library/Class/CDC/Src/usbd_cdc.c ****   uint8_t ifalt = 0U;
 382              		.loc 1 586 29 is_stmt 0 view .LVU89
 383 0008 D0F8B872 		ldr	r7, [r0, #696]
 384              	.LVL29:
 587:/home/smartth/STM32Cube/Repository/STM32Cube_FW_F1_V1.8.4//Middlewares/ST/STM32_USB_Device_Library/Class/CDC/Src/usbd_cdc.c ****   uint16_t status_info = 0U;
 385              		.loc 1 587 3 is_stmt 1 view .LVU90
 587:/home/smartth/STM32Cube/Repository/STM32Cube_FW_F1_V1.8.4//Middlewares/ST/STM32_USB_Device_Library/Class/CDC/Src/usbd_cdc.c ****   uint16_t status_info = 0U;
 386              		.loc 1 587 11 is_stmt 0 view .LVU91
 387 000c 0023     		movs	r3, #0
 388 000e 8DF80730 		strb	r3, [sp, #7]
 588:/home/smartth/STM32Cube/Repository/STM32Cube_FW_F1_V1.8.4//Middlewares/ST/STM32_USB_Device_Library/Class/CDC/Src/usbd_cdc.c ****   uint8_t ret = USBD_OK;
 389              		.loc 1 588 3 is_stmt 1 view .LVU92
 588:/home/smartth/STM32Cube/Repository/STM32Cube_FW_F1_V1.8.4//Middlewares/ST/STM32_USB_Device_Library/Class/CDC/Src/usbd_cdc.c ****   uint8_t ret = USBD_OK;
 390              		.loc 1 588 12 is_stmt 0 view .LVU93
 391 0012 ADF80430 		strh	r3, [sp, #4]	@ movhi
 589:/home/smartth/STM32Cube/Repository/STM32Cube_FW_F1_V1.8.4//Middlewares/ST/STM32_USB_Device_Library/Class/CDC/Src/usbd_cdc.c **** 
 392              		.loc 1 589 3 is_stmt 1 view .LVU94
 393              	.LVL30:
 591:/home/smartth/STM32Cube/Repository/STM32Cube_FW_F1_V1.8.4//Middlewares/ST/STM32_USB_Device_Library/Class/CDC/Src/usbd_cdc.c ****   {
 394              		.loc 1 591 3 view .LVU95
 591:/home/smartth/STM32Cube/Repository/STM32Cube_FW_F1_V1.8.4//Middlewares/ST/STM32_USB_Device_Library/Class/CDC/Src/usbd_cdc.c ****   {
 395              		.loc 1 591 14 is_stmt 0 view .LVU96
 396 0016 0B78     		ldrb	r3, [r1]	@ zero_extendqisi2
 591:/home/smartth/STM32Cube/Repository/STM32Cube_FW_F1_V1.8.4//Middlewares/ST/STM32_USB_Device_Library/Class/CDC/Src/usbd_cdc.c ****   {
 397              		.loc 1 591 3 view .LVU97
 398 0018 13F06005 		ands	r5, r3, #96
 399 001c 27D0     		beq	.L28
 400 001e 202D     		cmp	r5, #32
 401 0020 53D1     		bne	.L29
 594:/home/smartth/STM32Cube/Repository/STM32Cube_FW_F1_V1.8.4//Middlewares/ST/STM32_USB_Device_Library/Class/CDC/Src/usbd_cdc.c ****       {
 402              		.loc 1 594 7 is_stmt 1 view .LVU98
 594:/home/smartth/STM32Cube/Repository/STM32Cube_FW_F1_V1.8.4//Middlewares/ST/STM32_USB_Device_Library/Class/CDC/Src/usbd_cdc.c ****       {
 403              		.loc 1 594 14 is_stmt 0 view .LVU99
 404 0022 CA88     		ldrh	r2, [r1, #6]
 594:/home/smartth/STM32Cube/Repository/STM32Cube_FW_F1_V1.8.4//Middlewares/ST/STM32_USB_Device_Library/Class/CDC/Src/usbd_cdc.c ****       {
 405              		.loc 1 594 10 view .LVU100
 406 0024 DAB1     		cbz	r2, .L30
 596:/home/smartth/STM32Cube/Repository/STM32Cube_FW_F1_V1.8.4//Middlewares/ST/STM32_USB_Device_Library/Class/CDC/Src/usbd_cdc.c ****         {
ARM GAS  /tmp/ccSzjua7.s 			page 23


 407              		.loc 1 596 9 is_stmt 1 view .LVU101
 596:/home/smartth/STM32Cube/Repository/STM32Cube_FW_F1_V1.8.4//Middlewares/ST/STM32_USB_Device_Library/Class/CDC/Src/usbd_cdc.c ****         {
 408              		.loc 1 596 12 is_stmt 0 view .LVU102
 409 0026 13F0800F 		tst	r3, #128
 410 002a 0CD0     		beq	.L31
 598:/home/smartth/STM32Cube/Repository/STM32Cube_FW_F1_V1.8.4//Middlewares/ST/STM32_USB_Device_Library/Class/CDC/Src/usbd_cdc.c ****                                                             (uint8_t *)(void *)hcdc->data,
 411              		.loc 1 598 11 is_stmt 1 view .LVU103
 598:/home/smartth/STM32Cube/Repository/STM32Cube_FW_F1_V1.8.4//Middlewares/ST/STM32_USB_Device_Library/Class/CDC/Src/usbd_cdc.c ****                                                             (uint8_t *)(void *)hcdc->data,
 412              		.loc 1 598 39 is_stmt 0 view .LVU104
 413 002c D0F8BC32 		ldr	r3, [r0, #700]
 598:/home/smartth/STM32Cube/Repository/STM32Cube_FW_F1_V1.8.4//Middlewares/ST/STM32_USB_Device_Library/Class/CDC/Src/usbd_cdc.c ****                                                             (uint8_t *)(void *)hcdc->data,
 414              		.loc 1 598 51 view .LVU105
 415 0030 9B68     		ldr	r3, [r3, #8]
 598:/home/smartth/STM32Cube/Repository/STM32Cube_FW_F1_V1.8.4//Middlewares/ST/STM32_USB_Device_Library/Class/CDC/Src/usbd_cdc.c ****                                                             (uint8_t *)(void *)hcdc->data,
 416              		.loc 1 598 12 view .LVU106
 417 0032 3946     		mov	r1, r7
 418              	.LVL31:
 598:/home/smartth/STM32Cube/Repository/STM32Cube_FW_F1_V1.8.4//Middlewares/ST/STM32_USB_Device_Library/Class/CDC/Src/usbd_cdc.c ****                                                             (uint8_t *)(void *)hcdc->data,
 419              		.loc 1 598 12 view .LVU107
 420 0034 6078     		ldrb	r0, [r4, #1]	@ zero_extendqisi2
 421              	.LVL32:
 598:/home/smartth/STM32Cube/Repository/STM32Cube_FW_F1_V1.8.4//Middlewares/ST/STM32_USB_Device_Library/Class/CDC/Src/usbd_cdc.c ****                                                             (uint8_t *)(void *)hcdc->data,
 422              		.loc 1 598 12 view .LVU108
 423 0036 9847     		blx	r3
 424              	.LVL33:
 602:/home/smartth/STM32Cube/Repository/STM32Cube_FW_F1_V1.8.4//Middlewares/ST/STM32_USB_Device_Library/Class/CDC/Src/usbd_cdc.c ****         }
 425              		.loc 1 602 11 is_stmt 1 view .LVU109
 426 0038 E288     		ldrh	r2, [r4, #6]
 427 003a 3946     		mov	r1, r7
 428 003c 3046     		mov	r0, r6
 429 003e FFF7FEFF 		bl	USBD_CtlSendData
 430              	.LVL34:
 589:/home/smartth/STM32Cube/Repository/STM32Cube_FW_F1_V1.8.4//Middlewares/ST/STM32_USB_Device_Library/Class/CDC/Src/usbd_cdc.c **** 
 431              		.loc 1 589 11 is_stmt 0 view .LVU110
 432 0042 0025     		movs	r5, #0
 433 0044 44E0     		b	.L32
 434              	.LVL35:
 435              	.L31:
 606:/home/smartth/STM32Cube/Repository/STM32Cube_FW_F1_V1.8.4//Middlewares/ST/STM32_USB_Device_Library/Class/CDC/Src/usbd_cdc.c ****           hcdc->CmdLength = (uint8_t)req->wLength;
 436              		.loc 1 606 11 is_stmt 1 view .LVU111
 606:/home/smartth/STM32Cube/Repository/STM32Cube_FW_F1_V1.8.4//Middlewares/ST/STM32_USB_Device_Library/Class/CDC/Src/usbd_cdc.c ****           hcdc->CmdLength = (uint8_t)req->wLength;
 437              		.loc 1 606 32 is_stmt 0 view .LVU112
 438 0046 4B78     		ldrb	r3, [r1, #1]	@ zero_extendqisi2
 606:/home/smartth/STM32Cube/Repository/STM32Cube_FW_F1_V1.8.4//Middlewares/ST/STM32_USB_Device_Library/Class/CDC/Src/usbd_cdc.c ****           hcdc->CmdLength = (uint8_t)req->wLength;
 439              		.loc 1 606 27 view .LVU113
 440 0048 87F80032 		strb	r3, [r7, #512]
 607:/home/smartth/STM32Cube/Repository/STM32Cube_FW_F1_V1.8.4//Middlewares/ST/STM32_USB_Device_Library/Class/CDC/Src/usbd_cdc.c **** 
 441              		.loc 1 607 11 is_stmt 1 view .LVU114
 607:/home/smartth/STM32Cube/Repository/STM32Cube_FW_F1_V1.8.4//Middlewares/ST/STM32_USB_Device_Library/Class/CDC/Src/usbd_cdc.c **** 
 442              		.loc 1 607 29 is_stmt 0 view .LVU115
 443 004c 8B79     		ldrb	r3, [r1, #6]	@ zero_extendqisi2
 607:/home/smartth/STM32Cube/Repository/STM32Cube_FW_F1_V1.8.4//Middlewares/ST/STM32_USB_Device_Library/Class/CDC/Src/usbd_cdc.c **** 
 444              		.loc 1 607 27 view .LVU116
 445 004e 87F80132 		strb	r3, [r7, #513]
 609:/home/smartth/STM32Cube/Repository/STM32Cube_FW_F1_V1.8.4//Middlewares/ST/STM32_USB_Device_Library/Class/CDC/Src/usbd_cdc.c ****         }
 446              		.loc 1 609 11 is_stmt 1 view .LVU117
 447 0052 CA88     		ldrh	r2, [r1, #6]
ARM GAS  /tmp/ccSzjua7.s 			page 24


 448 0054 3946     		mov	r1, r7
 449              	.LVL36:
 609:/home/smartth/STM32Cube/Repository/STM32Cube_FW_F1_V1.8.4//Middlewares/ST/STM32_USB_Device_Library/Class/CDC/Src/usbd_cdc.c ****         }
 450              		.loc 1 609 11 is_stmt 0 view .LVU118
 451 0056 FFF7FEFF 		bl	USBD_CtlPrepareRx
 452              	.LVL37:
 589:/home/smartth/STM32Cube/Repository/STM32Cube_FW_F1_V1.8.4//Middlewares/ST/STM32_USB_Device_Library/Class/CDC/Src/usbd_cdc.c **** 
 453              		.loc 1 589 11 view .LVU119
 454 005a 0025     		movs	r5, #0
 455 005c 38E0     		b	.L32
 456              	.LVL38:
 457              	.L30:
 614:/home/smartth/STM32Cube/Repository/STM32Cube_FW_F1_V1.8.4//Middlewares/ST/STM32_USB_Device_Library/Class/CDC/Src/usbd_cdc.c ****                                                           (uint8_t *)(void *)req, 0U);
 458              		.loc 1 614 9 is_stmt 1 view .LVU120
 614:/home/smartth/STM32Cube/Repository/STM32Cube_FW_F1_V1.8.4//Middlewares/ST/STM32_USB_Device_Library/Class/CDC/Src/usbd_cdc.c ****                                                           (uint8_t *)(void *)req, 0U);
 459              		.loc 1 614 37 is_stmt 0 view .LVU121
 460 005e D0F8BC32 		ldr	r3, [r0, #700]
 614:/home/smartth/STM32Cube/Repository/STM32Cube_FW_F1_V1.8.4//Middlewares/ST/STM32_USB_Device_Library/Class/CDC/Src/usbd_cdc.c ****                                                           (uint8_t *)(void *)req, 0U);
 461              		.loc 1 614 49 view .LVU122
 462 0062 9B68     		ldr	r3, [r3, #8]
 614:/home/smartth/STM32Cube/Repository/STM32Cube_FW_F1_V1.8.4//Middlewares/ST/STM32_USB_Device_Library/Class/CDC/Src/usbd_cdc.c ****                                                           (uint8_t *)(void *)req, 0U);
 463              		.loc 1 614 10 view .LVU123
 464 0064 0022     		movs	r2, #0
 465 0066 4878     		ldrb	r0, [r1, #1]	@ zero_extendqisi2
 466              	.LVL39:
 614:/home/smartth/STM32Cube/Repository/STM32Cube_FW_F1_V1.8.4//Middlewares/ST/STM32_USB_Device_Library/Class/CDC/Src/usbd_cdc.c ****                                                           (uint8_t *)(void *)req, 0U);
 467              		.loc 1 614 10 view .LVU124
 468 0068 9847     		blx	r3
 469              	.LVL40:
 589:/home/smartth/STM32Cube/Repository/STM32Cube_FW_F1_V1.8.4//Middlewares/ST/STM32_USB_Device_Library/Class/CDC/Src/usbd_cdc.c **** 
 470              		.loc 1 589 11 view .LVU125
 471 006a 0025     		movs	r5, #0
 472 006c 30E0     		b	.L32
 473              	.LVL41:
 474              	.L28:
 620:/home/smartth/STM32Cube/Repository/STM32Cube_FW_F1_V1.8.4//Middlewares/ST/STM32_USB_Device_Library/Class/CDC/Src/usbd_cdc.c ****       {
 475              		.loc 1 620 7 is_stmt 1 view .LVU126
 620:/home/smartth/STM32Cube/Repository/STM32Cube_FW_F1_V1.8.4//Middlewares/ST/STM32_USB_Device_Library/Class/CDC/Src/usbd_cdc.c ****       {
 476              		.loc 1 620 18 is_stmt 0 view .LVU127
 477 006e 4F78     		ldrb	r7, [r1, #1]	@ zero_extendqisi2
 478              	.LVL42:
 620:/home/smartth/STM32Cube/Repository/STM32Cube_FW_F1_V1.8.4//Middlewares/ST/STM32_USB_Device_Library/Class/CDC/Src/usbd_cdc.c ****       {
 479              		.loc 1 620 18 view .LVU128
 480 0070 0A2F     		cmp	r7, #10
 481 0072 14D0     		beq	.L33
 482 0074 0B2F     		cmp	r7, #11
 483 0076 20D0     		beq	.L34
 484 0078 1FB1     		cbz	r7, .L39
 655:/home/smartth/STM32Cube/Repository/STM32Cube_FW_F1_V1.8.4//Middlewares/ST/STM32_USB_Device_Library/Class/CDC/Src/usbd_cdc.c ****           ret = USBD_FAIL;
 485              		.loc 1 655 11 is_stmt 1 view .LVU129
 486 007a FFF7FEFF 		bl	USBD_CtlError
 487              	.LVL43:
 656:/home/smartth/STM32Cube/Repository/STM32Cube_FW_F1_V1.8.4//Middlewares/ST/STM32_USB_Device_Library/Class/CDC/Src/usbd_cdc.c ****           break;
 488              		.loc 1 656 11 view .LVU130
 657:/home/smartth/STM32Cube/Repository/STM32Cube_FW_F1_V1.8.4//Middlewares/ST/STM32_USB_Device_Library/Class/CDC/Src/usbd_cdc.c ****       }
 489              		.loc 1 657 11 view .LVU131
 656:/home/smartth/STM32Cube/Repository/STM32Cube_FW_F1_V1.8.4//Middlewares/ST/STM32_USB_Device_Library/Class/CDC/Src/usbd_cdc.c ****           break;
ARM GAS  /tmp/ccSzjua7.s 			page 25


 490              		.loc 1 656 15 is_stmt 0 view .LVU132
 491 007e 0225     		movs	r5, #2
 657:/home/smartth/STM32Cube/Repository/STM32Cube_FW_F1_V1.8.4//Middlewares/ST/STM32_USB_Device_Library/Class/CDC/Src/usbd_cdc.c ****       }
 492              		.loc 1 657 11 view .LVU133
 493 0080 26E0     		b	.L32
 494              	.LVL44:
 495              	.L39:
 623:/home/smartth/STM32Cube/Repository/STM32Cube_FW_F1_V1.8.4//Middlewares/ST/STM32_USB_Device_Library/Class/CDC/Src/usbd_cdc.c ****           {
 496              		.loc 1 623 11 is_stmt 1 view .LVU134
 623:/home/smartth/STM32Cube/Repository/STM32Cube_FW_F1_V1.8.4//Middlewares/ST/STM32_USB_Device_Library/Class/CDC/Src/usbd_cdc.c ****           {
 497              		.loc 1 623 19 is_stmt 0 view .LVU135
 498 0082 90F89C32 		ldrb	r3, [r0, #668]	@ zero_extendqisi2
 623:/home/smartth/STM32Cube/Repository/STM32Cube_FW_F1_V1.8.4//Middlewares/ST/STM32_USB_Device_Library/Class/CDC/Src/usbd_cdc.c ****           {
 499              		.loc 1 623 14 view .LVU136
 500 0086 032B     		cmp	r3, #3
 501 0088 03D0     		beq	.L40
 629:/home/smartth/STM32Cube/Repository/STM32Cube_FW_F1_V1.8.4//Middlewares/ST/STM32_USB_Device_Library/Class/CDC/Src/usbd_cdc.c ****             ret = USBD_FAIL;
 502              		.loc 1 629 13 is_stmt 1 view .LVU137
 503 008a FFF7FEFF 		bl	USBD_CtlError
 504              	.LVL45:
 630:/home/smartth/STM32Cube/Repository/STM32Cube_FW_F1_V1.8.4//Middlewares/ST/STM32_USB_Device_Library/Class/CDC/Src/usbd_cdc.c ****           }
 505              		.loc 1 630 13 view .LVU138
 630:/home/smartth/STM32Cube/Repository/STM32Cube_FW_F1_V1.8.4//Middlewares/ST/STM32_USB_Device_Library/Class/CDC/Src/usbd_cdc.c ****           }
 506              		.loc 1 630 17 is_stmt 0 view .LVU139
 507 008e 0225     		movs	r5, #2
 508 0090 1EE0     		b	.L32
 509              	.LVL46:
 510              	.L40:
 625:/home/smartth/STM32Cube/Repository/STM32Cube_FW_F1_V1.8.4//Middlewares/ST/STM32_USB_Device_Library/Class/CDC/Src/usbd_cdc.c ****           }
 511              		.loc 1 625 13 is_stmt 1 view .LVU140
 512 0092 0222     		movs	r2, #2
 513 0094 01A9     		add	r1, sp, #4
 514              	.LVL47:
 625:/home/smartth/STM32Cube/Repository/STM32Cube_FW_F1_V1.8.4//Middlewares/ST/STM32_USB_Device_Library/Class/CDC/Src/usbd_cdc.c ****           }
 515              		.loc 1 625 13 is_stmt 0 view .LVU141
 516 0096 FFF7FEFF 		bl	USBD_CtlSendData
 517              	.LVL48:
 589:/home/smartth/STM32Cube/Repository/STM32Cube_FW_F1_V1.8.4//Middlewares/ST/STM32_USB_Device_Library/Class/CDC/Src/usbd_cdc.c **** 
 518              		.loc 1 589 11 view .LVU142
 519 009a 3D46     		mov	r5, r7
 520 009c 18E0     		b	.L32
 521              	.LVL49:
 522              	.L33:
 635:/home/smartth/STM32Cube/Repository/STM32Cube_FW_F1_V1.8.4//Middlewares/ST/STM32_USB_Device_Library/Class/CDC/Src/usbd_cdc.c ****           {
 523              		.loc 1 635 11 is_stmt 1 view .LVU143
 635:/home/smartth/STM32Cube/Repository/STM32Cube_FW_F1_V1.8.4//Middlewares/ST/STM32_USB_Device_Library/Class/CDC/Src/usbd_cdc.c ****           {
 524              		.loc 1 635 19 is_stmt 0 view .LVU144
 525 009e 90F89C32 		ldrb	r3, [r0, #668]	@ zero_extendqisi2
 635:/home/smartth/STM32Cube/Repository/STM32Cube_FW_F1_V1.8.4//Middlewares/ST/STM32_USB_Device_Library/Class/CDC/Src/usbd_cdc.c ****           {
 526              		.loc 1 635 14 view .LVU145
 527 00a2 032B     		cmp	r3, #3
 528 00a4 03D0     		beq	.L41
 641:/home/smartth/STM32Cube/Repository/STM32Cube_FW_F1_V1.8.4//Middlewares/ST/STM32_USB_Device_Library/Class/CDC/Src/usbd_cdc.c ****             ret = USBD_FAIL;
 529              		.loc 1 641 13 is_stmt 1 view .LVU146
 530 00a6 FFF7FEFF 		bl	USBD_CtlError
 531              	.LVL50:
 642:/home/smartth/STM32Cube/Repository/STM32Cube_FW_F1_V1.8.4//Middlewares/ST/STM32_USB_Device_Library/Class/CDC/Src/usbd_cdc.c ****           }
ARM GAS  /tmp/ccSzjua7.s 			page 26


 532              		.loc 1 642 13 view .LVU147
 642:/home/smartth/STM32Cube/Repository/STM32Cube_FW_F1_V1.8.4//Middlewares/ST/STM32_USB_Device_Library/Class/CDC/Src/usbd_cdc.c ****           }
 533              		.loc 1 642 17 is_stmt 0 view .LVU148
 534 00aa 0225     		movs	r5, #2
 535 00ac 10E0     		b	.L32
 536              	.LVL51:
 537              	.L41:
 637:/home/smartth/STM32Cube/Repository/STM32Cube_FW_F1_V1.8.4//Middlewares/ST/STM32_USB_Device_Library/Class/CDC/Src/usbd_cdc.c ****           }
 538              		.loc 1 637 13 is_stmt 1 view .LVU149
 539 00ae 0122     		movs	r2, #1
 540 00b0 0DF10701 		add	r1, sp, #7
 541              	.LVL52:
 637:/home/smartth/STM32Cube/Repository/STM32Cube_FW_F1_V1.8.4//Middlewares/ST/STM32_USB_Device_Library/Class/CDC/Src/usbd_cdc.c ****           }
 542              		.loc 1 637 13 is_stmt 0 view .LVU150
 543 00b4 FFF7FEFF 		bl	USBD_CtlSendData
 544              	.LVL53:
 637:/home/smartth/STM32Cube/Repository/STM32Cube_FW_F1_V1.8.4//Middlewares/ST/STM32_USB_Device_Library/Class/CDC/Src/usbd_cdc.c ****           }
 545              		.loc 1 637 13 view .LVU151
 546 00b8 0AE0     		b	.L32
 547              	.LVL54:
 548              	.L34:
 647:/home/smartth/STM32Cube/Repository/STM32Cube_FW_F1_V1.8.4//Middlewares/ST/STM32_USB_Device_Library/Class/CDC/Src/usbd_cdc.c ****           {
 549              		.loc 1 647 11 is_stmt 1 view .LVU152
 647:/home/smartth/STM32Cube/Repository/STM32Cube_FW_F1_V1.8.4//Middlewares/ST/STM32_USB_Device_Library/Class/CDC/Src/usbd_cdc.c ****           {
 550              		.loc 1 647 19 is_stmt 0 view .LVU153
 551 00ba 90F89C32 		ldrb	r3, [r0, #668]	@ zero_extendqisi2
 647:/home/smartth/STM32Cube/Repository/STM32Cube_FW_F1_V1.8.4//Middlewares/ST/STM32_USB_Device_Library/Class/CDC/Src/usbd_cdc.c ****           {
 552              		.loc 1 647 14 view .LVU154
 553 00be 032B     		cmp	r3, #3
 554 00c0 06D0     		beq	.L32
 649:/home/smartth/STM32Cube/Repository/STM32Cube_FW_F1_V1.8.4//Middlewares/ST/STM32_USB_Device_Library/Class/CDC/Src/usbd_cdc.c ****             ret = USBD_FAIL;
 555              		.loc 1 649 13 is_stmt 1 view .LVU155
 556 00c2 FFF7FEFF 		bl	USBD_CtlError
 557              	.LVL55:
 650:/home/smartth/STM32Cube/Repository/STM32Cube_FW_F1_V1.8.4//Middlewares/ST/STM32_USB_Device_Library/Class/CDC/Src/usbd_cdc.c ****           }
 558              		.loc 1 650 13 view .LVU156
 650:/home/smartth/STM32Cube/Repository/STM32Cube_FW_F1_V1.8.4//Middlewares/ST/STM32_USB_Device_Library/Class/CDC/Src/usbd_cdc.c ****           }
 559              		.loc 1 650 17 is_stmt 0 view .LVU157
 560 00c6 0225     		movs	r5, #2
 561 00c8 02E0     		b	.L32
 562              	.LVL56:
 563              	.L29:
 662:/home/smartth/STM32Cube/Repository/STM32Cube_FW_F1_V1.8.4//Middlewares/ST/STM32_USB_Device_Library/Class/CDC/Src/usbd_cdc.c ****       ret = USBD_FAIL;
 564              		.loc 1 662 7 is_stmt 1 view .LVU158
 565 00ca FFF7FEFF 		bl	USBD_CtlError
 566              	.LVL57:
 663:/home/smartth/STM32Cube/Repository/STM32Cube_FW_F1_V1.8.4//Middlewares/ST/STM32_USB_Device_Library/Class/CDC/Src/usbd_cdc.c ****       break;
 567              		.loc 1 663 7 view .LVU159
 664:/home/smartth/STM32Cube/Repository/STM32Cube_FW_F1_V1.8.4//Middlewares/ST/STM32_USB_Device_Library/Class/CDC/Src/usbd_cdc.c ****   }
 568              		.loc 1 664 7 view .LVU160
 663:/home/smartth/STM32Cube/Repository/STM32Cube_FW_F1_V1.8.4//Middlewares/ST/STM32_USB_Device_Library/Class/CDC/Src/usbd_cdc.c ****       break;
 569              		.loc 1 663 11 is_stmt 0 view .LVU161
 570 00ce 0225     		movs	r5, #2
 571              	.LVL58:
 572              	.L32:
 667:/home/smartth/STM32Cube/Repository/STM32Cube_FW_F1_V1.8.4//Middlewares/ST/STM32_USB_Device_Library/Class/CDC/Src/usbd_cdc.c **** }
 573              		.loc 1 667 3 is_stmt 1 view .LVU162
ARM GAS  /tmp/ccSzjua7.s 			page 27


 668:/home/smartth/STM32Cube/Repository/STM32Cube_FW_F1_V1.8.4//Middlewares/ST/STM32_USB_Device_Library/Class/CDC/Src/usbd_cdc.c **** 
 574              		.loc 1 668 1 is_stmt 0 view .LVU163
 575 00d0 2846     		mov	r0, r5
 576 00d2 03B0     		add	sp, sp, #12
 577              	.LCFI5:
 578              		.cfi_def_cfa_offset 20
 579              		@ sp needed
 580 00d4 F0BD     		pop	{r4, r5, r6, r7, pc}
 668:/home/smartth/STM32Cube/Repository/STM32Cube_FW_F1_V1.8.4//Middlewares/ST/STM32_USB_Device_Library/Class/CDC/Src/usbd_cdc.c **** 
 581              		.loc 1 668 1 view .LVU164
 582              		.cfi_endproc
 583              	.LFE199:
 585              		.section	.text.USBD_CDC_DeInit,"ax",%progbits
 586              		.align	1
 587              		.syntax unified
 588              		.thumb
 589              		.thumb_func
 590              		.fpu softvfp
 592              	USBD_CDC_DeInit:
 593              	.LVL59:
 594              	.LFB198:
 550:/home/smartth/STM32Cube/Repository/STM32Cube_FW_F1_V1.8.4//Middlewares/ST/STM32_USB_Device_Library/Class/CDC/Src/usbd_cdc.c ****   uint8_t ret = 0U;
 595              		.loc 1 550 1 is_stmt 1 view -0
 596              		.cfi_startproc
 597              		@ args = 0, pretend = 0, frame = 0
 598              		@ frame_needed = 0, uses_anonymous_args = 0
 550:/home/smartth/STM32Cube/Repository/STM32Cube_FW_F1_V1.8.4//Middlewares/ST/STM32_USB_Device_Library/Class/CDC/Src/usbd_cdc.c ****   uint8_t ret = 0U;
 599              		.loc 1 550 1 is_stmt 0 view .LVU166
 600 0000 38B5     		push	{r3, r4, r5, lr}
 601              	.LCFI6:
 602              		.cfi_def_cfa_offset 16
 603              		.cfi_offset 3, -16
 604              		.cfi_offset 4, -12
 605              		.cfi_offset 5, -8
 606              		.cfi_offset 14, -4
 607 0002 0446     		mov	r4, r0
 551:/home/smartth/STM32Cube/Repository/STM32Cube_FW_F1_V1.8.4//Middlewares/ST/STM32_USB_Device_Library/Class/CDC/Src/usbd_cdc.c **** 
 608              		.loc 1 551 3 is_stmt 1 view .LVU167
 609              	.LVL60:
 554:/home/smartth/STM32Cube/Repository/STM32Cube_FW_F1_V1.8.4//Middlewares/ST/STM32_USB_Device_Library/Class/CDC/Src/usbd_cdc.c ****   pdev->ep_in[CDC_IN_EP & 0xFU].is_used = 0U;
 610              		.loc 1 554 3 view .LVU168
 611 0004 8121     		movs	r1, #129
 612              	.LVL61:
 554:/home/smartth/STM32Cube/Repository/STM32Cube_FW_F1_V1.8.4//Middlewares/ST/STM32_USB_Device_Library/Class/CDC/Src/usbd_cdc.c ****   pdev->ep_in[CDC_IN_EP & 0xFU].is_used = 0U;
 613              		.loc 1 554 3 is_stmt 0 view .LVU169
 614 0006 FFF7FEFF 		bl	USBD_LL_CloseEP
 615              	.LVL62:
 555:/home/smartth/STM32Cube/Repository/STM32Cube_FW_F1_V1.8.4//Middlewares/ST/STM32_USB_Device_Library/Class/CDC/Src/usbd_cdc.c **** 
 616              		.loc 1 555 3 is_stmt 1 view .LVU170
 555:/home/smartth/STM32Cube/Repository/STM32Cube_FW_F1_V1.8.4//Middlewares/ST/STM32_USB_Device_Library/Class/CDC/Src/usbd_cdc.c **** 
 617              		.loc 1 555 41 is_stmt 0 view .LVU171
 618 000a 0025     		movs	r5, #0
 619 000c E562     		str	r5, [r4, #44]
 558:/home/smartth/STM32Cube/Repository/STM32Cube_FW_F1_V1.8.4//Middlewares/ST/STM32_USB_Device_Library/Class/CDC/Src/usbd_cdc.c ****   pdev->ep_out[CDC_OUT_EP & 0xFU].is_used = 0U;
 620              		.loc 1 558 3 is_stmt 1 view .LVU172
 621 000e 0121     		movs	r1, #1
 622 0010 2046     		mov	r0, r4
ARM GAS  /tmp/ccSzjua7.s 			page 28


 623 0012 FFF7FEFF 		bl	USBD_LL_CloseEP
 624              	.LVL63:
 559:/home/smartth/STM32Cube/Repository/STM32Cube_FW_F1_V1.8.4//Middlewares/ST/STM32_USB_Device_Library/Class/CDC/Src/usbd_cdc.c **** 
 625              		.loc 1 559 3 view .LVU173
 559:/home/smartth/STM32Cube/Repository/STM32Cube_FW_F1_V1.8.4//Middlewares/ST/STM32_USB_Device_Library/Class/CDC/Src/usbd_cdc.c **** 
 626              		.loc 1 559 43 is_stmt 0 view .LVU174
 627 0016 C4F86C51 		str	r5, [r4, #364]
 562:/home/smartth/STM32Cube/Repository/STM32Cube_FW_F1_V1.8.4//Middlewares/ST/STM32_USB_Device_Library/Class/CDC/Src/usbd_cdc.c ****   pdev->ep_in[CDC_CMD_EP & 0xFU].is_used = 0U;
 628              		.loc 1 562 3 is_stmt 1 view .LVU175
 629 001a 8221     		movs	r1, #130
 630 001c 2046     		mov	r0, r4
 631 001e FFF7FEFF 		bl	USBD_LL_CloseEP
 632              	.LVL64:
 563:/home/smartth/STM32Cube/Repository/STM32Cube_FW_F1_V1.8.4//Middlewares/ST/STM32_USB_Device_Library/Class/CDC/Src/usbd_cdc.c **** 
 633              		.loc 1 563 3 view .LVU176
 563:/home/smartth/STM32Cube/Repository/STM32Cube_FW_F1_V1.8.4//Middlewares/ST/STM32_USB_Device_Library/Class/CDC/Src/usbd_cdc.c **** 
 634              		.loc 1 563 42 is_stmt 0 view .LVU177
 635 0022 2564     		str	r5, [r4, #64]
 566:/home/smartth/STM32Cube/Repository/STM32Cube_FW_F1_V1.8.4//Middlewares/ST/STM32_USB_Device_Library/Class/CDC/Src/usbd_cdc.c ****   {
 636              		.loc 1 566 3 is_stmt 1 view .LVU178
 566:/home/smartth/STM32Cube/Repository/STM32Cube_FW_F1_V1.8.4//Middlewares/ST/STM32_USB_Device_Library/Class/CDC/Src/usbd_cdc.c ****   {
 637              		.loc 1 566 11 is_stmt 0 view .LVU179
 638 0024 D4F8B832 		ldr	r3, [r4, #696]
 566:/home/smartth/STM32Cube/Repository/STM32Cube_FW_F1_V1.8.4//Middlewares/ST/STM32_USB_Device_Library/Class/CDC/Src/usbd_cdc.c ****   {
 639              		.loc 1 566 6 view .LVU180
 640 0028 4BB1     		cbz	r3, .L43
 568:/home/smartth/STM32Cube/Repository/STM32Cube_FW_F1_V1.8.4//Middlewares/ST/STM32_USB_Device_Library/Class/CDC/Src/usbd_cdc.c ****     USBD_free(pdev->pClassData);
 641              		.loc 1 568 5 is_stmt 1 view .LVU181
 568:/home/smartth/STM32Cube/Repository/STM32Cube_FW_F1_V1.8.4//Middlewares/ST/STM32_USB_Device_Library/Class/CDC/Src/usbd_cdc.c ****     USBD_free(pdev->pClassData);
 642              		.loc 1 568 33 is_stmt 0 view .LVU182
 643 002a D4F8BC32 		ldr	r3, [r4, #700]
 568:/home/smartth/STM32Cube/Repository/STM32Cube_FW_F1_V1.8.4//Middlewares/ST/STM32_USB_Device_Library/Class/CDC/Src/usbd_cdc.c ****     USBD_free(pdev->pClassData);
 644              		.loc 1 568 45 view .LVU183
 645 002e 5B68     		ldr	r3, [r3, #4]
 568:/home/smartth/STM32Cube/Repository/STM32Cube_FW_F1_V1.8.4//Middlewares/ST/STM32_USB_Device_Library/Class/CDC/Src/usbd_cdc.c ****     USBD_free(pdev->pClassData);
 646              		.loc 1 568 6 view .LVU184
 647 0030 9847     		blx	r3
 648              	.LVL65:
 569:/home/smartth/STM32Cube/Repository/STM32Cube_FW_F1_V1.8.4//Middlewares/ST/STM32_USB_Device_Library/Class/CDC/Src/usbd_cdc.c ****     pdev->pClassData = NULL;
 649              		.loc 1 569 5 is_stmt 1 view .LVU185
 650 0032 D4F8B802 		ldr	r0, [r4, #696]
 651 0036 FFF7FEFF 		bl	USBD_static_free
 652              	.LVL66:
 570:/home/smartth/STM32Cube/Repository/STM32Cube_FW_F1_V1.8.4//Middlewares/ST/STM32_USB_Device_Library/Class/CDC/Src/usbd_cdc.c ****   }
 653              		.loc 1 570 5 view .LVU186
 570:/home/smartth/STM32Cube/Repository/STM32Cube_FW_F1_V1.8.4//Middlewares/ST/STM32_USB_Device_Library/Class/CDC/Src/usbd_cdc.c ****   }
 654              		.loc 1 570 22 is_stmt 0 view .LVU187
 655 003a C4F8B852 		str	r5, [r4, #696]
 656              	.L43:
 573:/home/smartth/STM32Cube/Repository/STM32Cube_FW_F1_V1.8.4//Middlewares/ST/STM32_USB_Device_Library/Class/CDC/Src/usbd_cdc.c **** }
 657              		.loc 1 573 3 is_stmt 1 view .LVU188
 574:/home/smartth/STM32Cube/Repository/STM32Cube_FW_F1_V1.8.4//Middlewares/ST/STM32_USB_Device_Library/Class/CDC/Src/usbd_cdc.c **** 
 658              		.loc 1 574 1 is_stmt 0 view .LVU189
 659 003e 0020     		movs	r0, #0
 660 0040 38BD     		pop	{r3, r4, r5, pc}
 574:/home/smartth/STM32Cube/Repository/STM32Cube_FW_F1_V1.8.4//Middlewares/ST/STM32_USB_Device_Library/Class/CDC/Src/usbd_cdc.c **** 
 661              		.loc 1 574 1 view .LVU190
ARM GAS  /tmp/ccSzjua7.s 			page 29


 662              		.cfi_endproc
 663              	.LFE198:
 665              		.section	.text.USBD_CDC_Init,"ax",%progbits
 666              		.align	1
 667              		.syntax unified
 668              		.thumb
 669              		.thumb_func
 670              		.fpu softvfp
 672              	USBD_CDC_Init:
 673              	.LVL67:
 674              	.LFB197:
 472:/home/smartth/STM32Cube/Repository/STM32Cube_FW_F1_V1.8.4//Middlewares/ST/STM32_USB_Device_Library/Class/CDC/Src/usbd_cdc.c ****   uint8_t ret = 0U;
 675              		.loc 1 472 1 is_stmt 1 view -0
 676              		.cfi_startproc
 677              		@ args = 0, pretend = 0, frame = 0
 678              		@ frame_needed = 0, uses_anonymous_args = 0
 472:/home/smartth/STM32Cube/Repository/STM32Cube_FW_F1_V1.8.4//Middlewares/ST/STM32_USB_Device_Library/Class/CDC/Src/usbd_cdc.c ****   uint8_t ret = 0U;
 679              		.loc 1 472 1 is_stmt 0 view .LVU192
 680 0000 70B5     		push	{r4, r5, r6, lr}
 681              	.LCFI7:
 682              		.cfi_def_cfa_offset 16
 683              		.cfi_offset 4, -16
 684              		.cfi_offset 5, -12
 685              		.cfi_offset 6, -8
 686              		.cfi_offset 14, -4
 687 0002 0446     		mov	r4, r0
 473:/home/smartth/STM32Cube/Repository/STM32Cube_FW_F1_V1.8.4//Middlewares/ST/STM32_USB_Device_Library/Class/CDC/Src/usbd_cdc.c ****   USBD_CDC_HandleTypeDef   *hcdc;
 688              		.loc 1 473 3 is_stmt 1 view .LVU193
 689              	.LVL68:
 474:/home/smartth/STM32Cube/Repository/STM32Cube_FW_F1_V1.8.4//Middlewares/ST/STM32_USB_Device_Library/Class/CDC/Src/usbd_cdc.c **** 
 690              		.loc 1 474 3 view .LVU194
 476:/home/smartth/STM32Cube/Repository/STM32Cube_FW_F1_V1.8.4//Middlewares/ST/STM32_USB_Device_Library/Class/CDC/Src/usbd_cdc.c ****   {
 691              		.loc 1 476 3 view .LVU195
 476:/home/smartth/STM32Cube/Repository/STM32Cube_FW_F1_V1.8.4//Middlewares/ST/STM32_USB_Device_Library/Class/CDC/Src/usbd_cdc.c ****   {
 692              		.loc 1 476 11 is_stmt 0 view .LVU196
 693 0004 037C     		ldrb	r3, [r0, #16]	@ zero_extendqisi2
 476:/home/smartth/STM32Cube/Repository/STM32Cube_FW_F1_V1.8.4//Middlewares/ST/STM32_USB_Device_Library/Class/CDC/Src/usbd_cdc.c ****   {
 694              		.loc 1 476 6 view .LVU197
 695 0006 ABBB     		cbnz	r3, .L46
 479:/home/smartth/STM32Cube/Repository/STM32Cube_FW_F1_V1.8.4//Middlewares/ST/STM32_USB_Device_Library/Class/CDC/Src/usbd_cdc.c ****                    CDC_DATA_HS_IN_PACKET_SIZE);
 696              		.loc 1 479 5 is_stmt 1 view .LVU198
 697 0008 4FF40073 		mov	r3, #512
 698 000c 0222     		movs	r2, #2
 699 000e 8121     		movs	r1, #129
 700              	.LVL69:
 479:/home/smartth/STM32Cube/Repository/STM32Cube_FW_F1_V1.8.4//Middlewares/ST/STM32_USB_Device_Library/Class/CDC/Src/usbd_cdc.c ****                    CDC_DATA_HS_IN_PACKET_SIZE);
 701              		.loc 1 479 5 is_stmt 0 view .LVU199
 702 0010 FFF7FEFF 		bl	USBD_LL_OpenEP
 703              	.LVL70:
 482:/home/smartth/STM32Cube/Repository/STM32Cube_FW_F1_V1.8.4//Middlewares/ST/STM32_USB_Device_Library/Class/CDC/Src/usbd_cdc.c **** 
 704              		.loc 1 482 5 is_stmt 1 view .LVU200
 482:/home/smartth/STM32Cube/Repository/STM32Cube_FW_F1_V1.8.4//Middlewares/ST/STM32_USB_Device_Library/Class/CDC/Src/usbd_cdc.c **** 
 705              		.loc 1 482 43 is_stmt 0 view .LVU201
 706 0014 0125     		movs	r5, #1
 707 0016 E562     		str	r5, [r4, #44]
 485:/home/smartth/STM32Cube/Repository/STM32Cube_FW_F1_V1.8.4//Middlewares/ST/STM32_USB_Device_Library/Class/CDC/Src/usbd_cdc.c ****                    CDC_DATA_HS_OUT_PACKET_SIZE);
 708              		.loc 1 485 5 is_stmt 1 view .LVU202
ARM GAS  /tmp/ccSzjua7.s 			page 30


 709 0018 4FF40073 		mov	r3, #512
 710 001c 0222     		movs	r2, #2
 711 001e 2946     		mov	r1, r5
 712 0020 2046     		mov	r0, r4
 713 0022 FFF7FEFF 		bl	USBD_LL_OpenEP
 714              	.LVL71:
 488:/home/smartth/STM32Cube/Repository/STM32Cube_FW_F1_V1.8.4//Middlewares/ST/STM32_USB_Device_Library/Class/CDC/Src/usbd_cdc.c **** 
 715              		.loc 1 488 5 view .LVU203
 488:/home/smartth/STM32Cube/Repository/STM32Cube_FW_F1_V1.8.4//Middlewares/ST/STM32_USB_Device_Library/Class/CDC/Src/usbd_cdc.c **** 
 716              		.loc 1 488 45 is_stmt 0 view .LVU204
 717 0026 C4F86C51 		str	r5, [r4, #364]
 718              	.L47:
 506:/home/smartth/STM32Cube/Repository/STM32Cube_FW_F1_V1.8.4//Middlewares/ST/STM32_USB_Device_Library/Class/CDC/Src/usbd_cdc.c ****   pdev->ep_in[CDC_CMD_EP & 0xFU].is_used = 1U;
 719              		.loc 1 506 3 is_stmt 1 view .LVU205
 720 002a 0823     		movs	r3, #8
 721 002c 0322     		movs	r2, #3
 722 002e 8221     		movs	r1, #130
 723 0030 2046     		mov	r0, r4
 724 0032 FFF7FEFF 		bl	USBD_LL_OpenEP
 725              	.LVL72:
 507:/home/smartth/STM32Cube/Repository/STM32Cube_FW_F1_V1.8.4//Middlewares/ST/STM32_USB_Device_Library/Class/CDC/Src/usbd_cdc.c **** 
 726              		.loc 1 507 3 view .LVU206
 507:/home/smartth/STM32Cube/Repository/STM32Cube_FW_F1_V1.8.4//Middlewares/ST/STM32_USB_Device_Library/Class/CDC/Src/usbd_cdc.c **** 
 727              		.loc 1 507 42 is_stmt 0 view .LVU207
 728 0036 0123     		movs	r3, #1
 729 0038 2364     		str	r3, [r4, #64]
 509:/home/smartth/STM32Cube/Repository/STM32Cube_FW_F1_V1.8.4//Middlewares/ST/STM32_USB_Device_Library/Class/CDC/Src/usbd_cdc.c **** 
 730              		.loc 1 509 3 is_stmt 1 view .LVU208
 509:/home/smartth/STM32Cube/Repository/STM32Cube_FW_F1_V1.8.4//Middlewares/ST/STM32_USB_Device_Library/Class/CDC/Src/usbd_cdc.c **** 
 731              		.loc 1 509 22 is_stmt 0 view .LVU209
 732 003a 4FF40770 		mov	r0, #540
 733 003e FFF7FEFF 		bl	USBD_static_malloc
 734              	.LVL73:
 735 0042 0546     		mov	r5, r0
 509:/home/smartth/STM32Cube/Repository/STM32Cube_FW_F1_V1.8.4//Middlewares/ST/STM32_USB_Device_Library/Class/CDC/Src/usbd_cdc.c **** 
 736              		.loc 1 509 20 view .LVU210
 737 0044 C4F8B802 		str	r0, [r4, #696]
 511:/home/smartth/STM32Cube/Repository/STM32Cube_FW_F1_V1.8.4//Middlewares/ST/STM32_USB_Device_Library/Class/CDC/Src/usbd_cdc.c ****   {
 738              		.loc 1 511 3 is_stmt 1 view .LVU211
 511:/home/smartth/STM32Cube/Repository/STM32Cube_FW_F1_V1.8.4//Middlewares/ST/STM32_USB_Device_Library/Class/CDC/Src/usbd_cdc.c ****   {
 739              		.loc 1 511 6 is_stmt 0 view .LVU212
 740 0048 68B3     		cbz	r0, .L50
 517:/home/smartth/STM32Cube/Repository/STM32Cube_FW_F1_V1.8.4//Middlewares/ST/STM32_USB_Device_Library/Class/CDC/Src/usbd_cdc.c **** 
 741              		.loc 1 517 5 is_stmt 1 view .LVU213
 742              	.LVL74:
 520:/home/smartth/STM32Cube/Repository/STM32Cube_FW_F1_V1.8.4//Middlewares/ST/STM32_USB_Device_Library/Class/CDC/Src/usbd_cdc.c **** 
 743              		.loc 1 520 5 view .LVU214
 520:/home/smartth/STM32Cube/Repository/STM32Cube_FW_F1_V1.8.4//Middlewares/ST/STM32_USB_Device_Library/Class/CDC/Src/usbd_cdc.c **** 
 744              		.loc 1 520 33 is_stmt 0 view .LVU215
 745 004a D4F8BC32 		ldr	r3, [r4, #700]
 520:/home/smartth/STM32Cube/Repository/STM32Cube_FW_F1_V1.8.4//Middlewares/ST/STM32_USB_Device_Library/Class/CDC/Src/usbd_cdc.c **** 
 746              		.loc 1 520 45 view .LVU216
 747 004e 1B68     		ldr	r3, [r3]
 520:/home/smartth/STM32Cube/Repository/STM32Cube_FW_F1_V1.8.4//Middlewares/ST/STM32_USB_Device_Library/Class/CDC/Src/usbd_cdc.c **** 
 748              		.loc 1 520 6 view .LVU217
 749 0050 9847     		blx	r3
 750              	.LVL75:
ARM GAS  /tmp/ccSzjua7.s 			page 31


 523:/home/smartth/STM32Cube/Repository/STM32Cube_FW_F1_V1.8.4//Middlewares/ST/STM32_USB_Device_Library/Class/CDC/Src/usbd_cdc.c ****     hcdc->RxState = 0U;
 751              		.loc 1 523 5 is_stmt 1 view .LVU218
 523:/home/smartth/STM32Cube/Repository/STM32Cube_FW_F1_V1.8.4//Middlewares/ST/STM32_USB_Device_Library/Class/CDC/Src/usbd_cdc.c ****     hcdc->RxState = 0U;
 752              		.loc 1 523 19 is_stmt 0 view .LVU219
 753 0052 0023     		movs	r3, #0
 754 0054 C5F81432 		str	r3, [r5, #532]
 524:/home/smartth/STM32Cube/Repository/STM32Cube_FW_F1_V1.8.4//Middlewares/ST/STM32_USB_Device_Library/Class/CDC/Src/usbd_cdc.c **** 
 755              		.loc 1 524 5 is_stmt 1 view .LVU220
 524:/home/smartth/STM32Cube/Repository/STM32Cube_FW_F1_V1.8.4//Middlewares/ST/STM32_USB_Device_Library/Class/CDC/Src/usbd_cdc.c **** 
 756              		.loc 1 524 19 is_stmt 0 view .LVU221
 757 0058 C5F81832 		str	r3, [r5, #536]
 526:/home/smartth/STM32Cube/Repository/STM32Cube_FW_F1_V1.8.4//Middlewares/ST/STM32_USB_Device_Library/Class/CDC/Src/usbd_cdc.c ****     {
 758              		.loc 1 526 5 is_stmt 1 view .LVU222
 526:/home/smartth/STM32Cube/Repository/STM32Cube_FW_F1_V1.8.4//Middlewares/ST/STM32_USB_Device_Library/Class/CDC/Src/usbd_cdc.c ****     {
 759              		.loc 1 526 13 is_stmt 0 view .LVU223
 760 005c 267C     		ldrb	r6, [r4, #16]	@ zero_extendqisi2
 526:/home/smartth/STM32Cube/Repository/STM32Cube_FW_F1_V1.8.4//Middlewares/ST/STM32_USB_Device_Library/Class/CDC/Src/usbd_cdc.c ****     {
 761              		.loc 1 526 8 view .LVU224
 762 005e CEB9     		cbnz	r6, .L49
 529:/home/smartth/STM32Cube/Repository/STM32Cube_FW_F1_V1.8.4//Middlewares/ST/STM32_USB_Device_Library/Class/CDC/Src/usbd_cdc.c ****                              CDC_DATA_HS_OUT_PACKET_SIZE);
 763              		.loc 1 529 7 is_stmt 1 view .LVU225
 764 0060 4FF40073 		mov	r3, #512
 765 0064 D5F80422 		ldr	r2, [r5, #516]
 766 0068 0121     		movs	r1, #1
 767 006a 2046     		mov	r0, r4
 768 006c FFF7FEFF 		bl	USBD_LL_PrepareReceive
 769              	.LVL76:
 770              	.L48:
 539:/home/smartth/STM32Cube/Repository/STM32Cube_FW_F1_V1.8.4//Middlewares/ST/STM32_USB_Device_Library/Class/CDC/Src/usbd_cdc.c **** }
 771              		.loc 1 539 3 view .LVU226
 540:/home/smartth/STM32Cube/Repository/STM32Cube_FW_F1_V1.8.4//Middlewares/ST/STM32_USB_Device_Library/Class/CDC/Src/usbd_cdc.c **** 
 772              		.loc 1 540 1 is_stmt 0 view .LVU227
 773 0070 3046     		mov	r0, r6
 774 0072 70BD     		pop	{r4, r5, r6, pc}
 775              	.LVL77:
 776              	.L46:
 494:/home/smartth/STM32Cube/Repository/STM32Cube_FW_F1_V1.8.4//Middlewares/ST/STM32_USB_Device_Library/Class/CDC/Src/usbd_cdc.c ****                    CDC_DATA_FS_IN_PACKET_SIZE);
 777              		.loc 1 494 5 is_stmt 1 view .LVU228
 778 0074 4023     		movs	r3, #64
 779 0076 0222     		movs	r2, #2
 780 0078 8121     		movs	r1, #129
 781              	.LVL78:
 494:/home/smartth/STM32Cube/Repository/STM32Cube_FW_F1_V1.8.4//Middlewares/ST/STM32_USB_Device_Library/Class/CDC/Src/usbd_cdc.c ****                    CDC_DATA_FS_IN_PACKET_SIZE);
 782              		.loc 1 494 5 is_stmt 0 view .LVU229
 783 007a FFF7FEFF 		bl	USBD_LL_OpenEP
 784              	.LVL79:
 497:/home/smartth/STM32Cube/Repository/STM32Cube_FW_F1_V1.8.4//Middlewares/ST/STM32_USB_Device_Library/Class/CDC/Src/usbd_cdc.c **** 
 785              		.loc 1 497 5 is_stmt 1 view .LVU230
 497:/home/smartth/STM32Cube/Repository/STM32Cube_FW_F1_V1.8.4//Middlewares/ST/STM32_USB_Device_Library/Class/CDC/Src/usbd_cdc.c **** 
 786              		.loc 1 497 43 is_stmt 0 view .LVU231
 787 007e 0125     		movs	r5, #1
 788 0080 E562     		str	r5, [r4, #44]
 500:/home/smartth/STM32Cube/Repository/STM32Cube_FW_F1_V1.8.4//Middlewares/ST/STM32_USB_Device_Library/Class/CDC/Src/usbd_cdc.c ****                    CDC_DATA_FS_OUT_PACKET_SIZE);
 789              		.loc 1 500 5 is_stmt 1 view .LVU232
 790 0082 4023     		movs	r3, #64
 791 0084 0222     		movs	r2, #2
 792 0086 2946     		mov	r1, r5
ARM GAS  /tmp/ccSzjua7.s 			page 32


 793 0088 2046     		mov	r0, r4
 794 008a FFF7FEFF 		bl	USBD_LL_OpenEP
 795              	.LVL80:
 503:/home/smartth/STM32Cube/Repository/STM32Cube_FW_F1_V1.8.4//Middlewares/ST/STM32_USB_Device_Library/Class/CDC/Src/usbd_cdc.c ****   }
 796              		.loc 1 503 5 view .LVU233
 503:/home/smartth/STM32Cube/Repository/STM32Cube_FW_F1_V1.8.4//Middlewares/ST/STM32_USB_Device_Library/Class/CDC/Src/usbd_cdc.c ****   }
 797              		.loc 1 503 45 is_stmt 0 view .LVU234
 798 008e C4F86C51 		str	r5, [r4, #364]
 799 0092 CAE7     		b	.L47
 800              	.LVL81:
 801              	.L49:
 535:/home/smartth/STM32Cube/Repository/STM32Cube_FW_F1_V1.8.4//Middlewares/ST/STM32_USB_Device_Library/Class/CDC/Src/usbd_cdc.c ****                              CDC_DATA_FS_OUT_PACKET_SIZE);
 802              		.loc 1 535 7 is_stmt 1 view .LVU235
 803 0094 4023     		movs	r3, #64
 804 0096 D5F80422 		ldr	r2, [r5, #516]
 805 009a 0121     		movs	r1, #1
 806 009c 2046     		mov	r0, r4
 807 009e FFF7FEFF 		bl	USBD_LL_PrepareReceive
 808              	.LVL82:
 473:/home/smartth/STM32Cube/Repository/STM32Cube_FW_F1_V1.8.4//Middlewares/ST/STM32_USB_Device_Library/Class/CDC/Src/usbd_cdc.c ****   USBD_CDC_HandleTypeDef   *hcdc;
 809              		.loc 1 473 11 is_stmt 0 view .LVU236
 810 00a2 0026     		movs	r6, #0
 811 00a4 E4E7     		b	.L48
 812              	.LVL83:
 813              	.L50:
 513:/home/smartth/STM32Cube/Repository/STM32Cube_FW_F1_V1.8.4//Middlewares/ST/STM32_USB_Device_Library/Class/CDC/Src/usbd_cdc.c ****   }
 814              		.loc 1 513 9 view .LVU237
 815 00a6 0126     		movs	r6, #1
 816 00a8 E2E7     		b	.L48
 817              		.cfi_endproc
 818              	.LFE197:
 820              		.section	.text.USBD_CDC_RegisterInterface,"ax",%progbits
 821              		.align	1
 822              		.global	USBD_CDC_RegisterInterface
 823              		.syntax unified
 824              		.thumb
 825              		.thumb_func
 826              		.fpu softvfp
 828              	USBD_CDC_RegisterInterface:
 829              	.LVL84:
 830              	.LFB207:
 803:/home/smartth/STM32Cube/Repository/STM32Cube_FW_F1_V1.8.4//Middlewares/ST/STM32_USB_Device_Library/Class/CDC/Src/usbd_cdc.c **** 
 804:/home/smartth/STM32Cube/Repository/STM32Cube_FW_F1_V1.8.4//Middlewares/ST/STM32_USB_Device_Library/Class/CDC/Src/usbd_cdc.c **** /**
 805:/home/smartth/STM32Cube/Repository/STM32Cube_FW_F1_V1.8.4//Middlewares/ST/STM32_USB_Device_Library/Class/CDC/Src/usbd_cdc.c **** * @brief  USBD_CDC_RegisterInterface
 806:/home/smartth/STM32Cube/Repository/STM32Cube_FW_F1_V1.8.4//Middlewares/ST/STM32_USB_Device_Library/Class/CDC/Src/usbd_cdc.c ****   * @param  pdev: device instance
 807:/home/smartth/STM32Cube/Repository/STM32Cube_FW_F1_V1.8.4//Middlewares/ST/STM32_USB_Device_Library/Class/CDC/Src/usbd_cdc.c ****   * @param  fops: CD  Interface callback
 808:/home/smartth/STM32Cube/Repository/STM32Cube_FW_F1_V1.8.4//Middlewares/ST/STM32_USB_Device_Library/Class/CDC/Src/usbd_cdc.c ****   * @retval status
 809:/home/smartth/STM32Cube/Repository/STM32Cube_FW_F1_V1.8.4//Middlewares/ST/STM32_USB_Device_Library/Class/CDC/Src/usbd_cdc.c ****   */
 810:/home/smartth/STM32Cube/Repository/STM32Cube_FW_F1_V1.8.4//Middlewares/ST/STM32_USB_Device_Library/Class/CDC/Src/usbd_cdc.c **** uint8_t  USBD_CDC_RegisterInterface(USBD_HandleTypeDef   *pdev,
 811:/home/smartth/STM32Cube/Repository/STM32Cube_FW_F1_V1.8.4//Middlewares/ST/STM32_USB_Device_Library/Class/CDC/Src/usbd_cdc.c ****                                     USBD_CDC_ItfTypeDef *fops)
 812:/home/smartth/STM32Cube/Repository/STM32Cube_FW_F1_V1.8.4//Middlewares/ST/STM32_USB_Device_Library/Class/CDC/Src/usbd_cdc.c **** {
 831              		.loc 1 812 1 is_stmt 1 view -0
 832              		.cfi_startproc
 833              		@ args = 0, pretend = 0, frame = 0
 834              		@ frame_needed = 0, uses_anonymous_args = 0
 835              		@ link register save eliminated.
 813:/home/smartth/STM32Cube/Repository/STM32Cube_FW_F1_V1.8.4//Middlewares/ST/STM32_USB_Device_Library/Class/CDC/Src/usbd_cdc.c ****   uint8_t  ret = USBD_FAIL;
ARM GAS  /tmp/ccSzjua7.s 			page 33


 836              		.loc 1 813 3 view .LVU239
 814:/home/smartth/STM32Cube/Repository/STM32Cube_FW_F1_V1.8.4//Middlewares/ST/STM32_USB_Device_Library/Class/CDC/Src/usbd_cdc.c **** 
 815:/home/smartth/STM32Cube/Repository/STM32Cube_FW_F1_V1.8.4//Middlewares/ST/STM32_USB_Device_Library/Class/CDC/Src/usbd_cdc.c ****   if (fops != NULL)
 837              		.loc 1 815 3 view .LVU240
 838              		.loc 1 815 6 is_stmt 0 view .LVU241
 839 0000 19B1     		cbz	r1, .L54
 816:/home/smartth/STM32Cube/Repository/STM32Cube_FW_F1_V1.8.4//Middlewares/ST/STM32_USB_Device_Library/Class/CDC/Src/usbd_cdc.c ****   {
 817:/home/smartth/STM32Cube/Repository/STM32Cube_FW_F1_V1.8.4//Middlewares/ST/STM32_USB_Device_Library/Class/CDC/Src/usbd_cdc.c ****     pdev->pUserData = fops;
 840              		.loc 1 817 5 is_stmt 1 view .LVU242
 841              		.loc 1 817 21 is_stmt 0 view .LVU243
 842 0002 C0F8BC12 		str	r1, [r0, #700]
 818:/home/smartth/STM32Cube/Repository/STM32Cube_FW_F1_V1.8.4//Middlewares/ST/STM32_USB_Device_Library/Class/CDC/Src/usbd_cdc.c ****     ret = USBD_OK;
 843              		.loc 1 818 5 is_stmt 1 view .LVU244
 844              	.LVL85:
 845              		.loc 1 818 9 is_stmt 0 view .LVU245
 846 0006 0020     		movs	r0, #0
 847              	.LVL86:
 848              		.loc 1 818 9 view .LVU246
 849 0008 7047     		bx	lr
 850              	.LVL87:
 851              	.L54:
 813:/home/smartth/STM32Cube/Repository/STM32Cube_FW_F1_V1.8.4//Middlewares/ST/STM32_USB_Device_Library/Class/CDC/Src/usbd_cdc.c **** 
 852              		.loc 1 813 12 view .LVU247
 853 000a 0220     		movs	r0, #2
 854              	.LVL88:
 819:/home/smartth/STM32Cube/Repository/STM32Cube_FW_F1_V1.8.4//Middlewares/ST/STM32_USB_Device_Library/Class/CDC/Src/usbd_cdc.c ****   }
 820:/home/smartth/STM32Cube/Repository/STM32Cube_FW_F1_V1.8.4//Middlewares/ST/STM32_USB_Device_Library/Class/CDC/Src/usbd_cdc.c **** 
 821:/home/smartth/STM32Cube/Repository/STM32Cube_FW_F1_V1.8.4//Middlewares/ST/STM32_USB_Device_Library/Class/CDC/Src/usbd_cdc.c ****   return ret;
 855              		.loc 1 821 3 is_stmt 1 view .LVU248
 822:/home/smartth/STM32Cube/Repository/STM32Cube_FW_F1_V1.8.4//Middlewares/ST/STM32_USB_Device_Library/Class/CDC/Src/usbd_cdc.c **** }
 856              		.loc 1 822 1 is_stmt 0 view .LVU249
 857 000c 7047     		bx	lr
 858              		.cfi_endproc
 859              	.LFE207:
 861              		.section	.text.USBD_CDC_SetTxBuffer,"ax",%progbits
 862              		.align	1
 863              		.global	USBD_CDC_SetTxBuffer
 864              		.syntax unified
 865              		.thumb
 866              		.thumb_func
 867              		.fpu softvfp
 869              	USBD_CDC_SetTxBuffer:
 870              	.LVL89:
 871              	.LFB208:
 823:/home/smartth/STM32Cube/Repository/STM32Cube_FW_F1_V1.8.4//Middlewares/ST/STM32_USB_Device_Library/Class/CDC/Src/usbd_cdc.c **** 
 824:/home/smartth/STM32Cube/Repository/STM32Cube_FW_F1_V1.8.4//Middlewares/ST/STM32_USB_Device_Library/Class/CDC/Src/usbd_cdc.c **** /**
 825:/home/smartth/STM32Cube/Repository/STM32Cube_FW_F1_V1.8.4//Middlewares/ST/STM32_USB_Device_Library/Class/CDC/Src/usbd_cdc.c ****   * @brief  USBD_CDC_SetTxBuffer
 826:/home/smartth/STM32Cube/Repository/STM32Cube_FW_F1_V1.8.4//Middlewares/ST/STM32_USB_Device_Library/Class/CDC/Src/usbd_cdc.c ****   * @param  pdev: device instance
 827:/home/smartth/STM32Cube/Repository/STM32Cube_FW_F1_V1.8.4//Middlewares/ST/STM32_USB_Device_Library/Class/CDC/Src/usbd_cdc.c ****   * @param  pbuff: Tx Buffer
 828:/home/smartth/STM32Cube/Repository/STM32Cube_FW_F1_V1.8.4//Middlewares/ST/STM32_USB_Device_Library/Class/CDC/Src/usbd_cdc.c ****   * @retval status
 829:/home/smartth/STM32Cube/Repository/STM32Cube_FW_F1_V1.8.4//Middlewares/ST/STM32_USB_Device_Library/Class/CDC/Src/usbd_cdc.c ****   */
 830:/home/smartth/STM32Cube/Repository/STM32Cube_FW_F1_V1.8.4//Middlewares/ST/STM32_USB_Device_Library/Class/CDC/Src/usbd_cdc.c **** uint8_t  USBD_CDC_SetTxBuffer(USBD_HandleTypeDef   *pdev,
 831:/home/smartth/STM32Cube/Repository/STM32Cube_FW_F1_V1.8.4//Middlewares/ST/STM32_USB_Device_Library/Class/CDC/Src/usbd_cdc.c ****                               uint8_t  *pbuff,
 832:/home/smartth/STM32Cube/Repository/STM32Cube_FW_F1_V1.8.4//Middlewares/ST/STM32_USB_Device_Library/Class/CDC/Src/usbd_cdc.c ****                               uint16_t length)
 833:/home/smartth/STM32Cube/Repository/STM32Cube_FW_F1_V1.8.4//Middlewares/ST/STM32_USB_Device_Library/Class/CDC/Src/usbd_cdc.c **** {
 872              		.loc 1 833 1 is_stmt 1 view -0
 873              		.cfi_startproc
ARM GAS  /tmp/ccSzjua7.s 			page 34


 874              		@ args = 0, pretend = 0, frame = 0
 875              		@ frame_needed = 0, uses_anonymous_args = 0
 876              		@ link register save eliminated.
 834:/home/smartth/STM32Cube/Repository/STM32Cube_FW_F1_V1.8.4//Middlewares/ST/STM32_USB_Device_Library/Class/CDC/Src/usbd_cdc.c ****   USBD_CDC_HandleTypeDef   *hcdc = (USBD_CDC_HandleTypeDef *) pdev->pClassData;
 877              		.loc 1 834 3 view .LVU251
 878              		.loc 1 834 29 is_stmt 0 view .LVU252
 879 0000 D0F8B832 		ldr	r3, [r0, #696]
 880              	.LVL90:
 835:/home/smartth/STM32Cube/Repository/STM32Cube_FW_F1_V1.8.4//Middlewares/ST/STM32_USB_Device_Library/Class/CDC/Src/usbd_cdc.c **** 
 836:/home/smartth/STM32Cube/Repository/STM32Cube_FW_F1_V1.8.4//Middlewares/ST/STM32_USB_Device_Library/Class/CDC/Src/usbd_cdc.c ****   hcdc->TxBuffer = pbuff;
 881              		.loc 1 836 3 is_stmt 1 view .LVU253
 882              		.loc 1 836 18 is_stmt 0 view .LVU254
 883 0004 C3F80812 		str	r1, [r3, #520]
 837:/home/smartth/STM32Cube/Repository/STM32Cube_FW_F1_V1.8.4//Middlewares/ST/STM32_USB_Device_Library/Class/CDC/Src/usbd_cdc.c ****   hcdc->TxLength = length;
 884              		.loc 1 837 3 is_stmt 1 view .LVU255
 885              		.loc 1 837 18 is_stmt 0 view .LVU256
 886 0008 C3F81022 		str	r2, [r3, #528]
 838:/home/smartth/STM32Cube/Repository/STM32Cube_FW_F1_V1.8.4//Middlewares/ST/STM32_USB_Device_Library/Class/CDC/Src/usbd_cdc.c **** 
 839:/home/smartth/STM32Cube/Repository/STM32Cube_FW_F1_V1.8.4//Middlewares/ST/STM32_USB_Device_Library/Class/CDC/Src/usbd_cdc.c ****   return USBD_OK;
 887              		.loc 1 839 3 is_stmt 1 view .LVU257
 840:/home/smartth/STM32Cube/Repository/STM32Cube_FW_F1_V1.8.4//Middlewares/ST/STM32_USB_Device_Library/Class/CDC/Src/usbd_cdc.c **** }
 888              		.loc 1 840 1 is_stmt 0 view .LVU258
 889 000c 0020     		movs	r0, #0
 890              	.LVL91:
 891              		.loc 1 840 1 view .LVU259
 892 000e 7047     		bx	lr
 893              		.cfi_endproc
 894              	.LFE208:
 896              		.section	.text.USBD_CDC_SetRxBuffer,"ax",%progbits
 897              		.align	1
 898              		.global	USBD_CDC_SetRxBuffer
 899              		.syntax unified
 900              		.thumb
 901              		.thumb_func
 902              		.fpu softvfp
 904              	USBD_CDC_SetRxBuffer:
 905              	.LVL92:
 906              	.LFB209:
 841:/home/smartth/STM32Cube/Repository/STM32Cube_FW_F1_V1.8.4//Middlewares/ST/STM32_USB_Device_Library/Class/CDC/Src/usbd_cdc.c **** 
 842:/home/smartth/STM32Cube/Repository/STM32Cube_FW_F1_V1.8.4//Middlewares/ST/STM32_USB_Device_Library/Class/CDC/Src/usbd_cdc.c **** 
 843:/home/smartth/STM32Cube/Repository/STM32Cube_FW_F1_V1.8.4//Middlewares/ST/STM32_USB_Device_Library/Class/CDC/Src/usbd_cdc.c **** /**
 844:/home/smartth/STM32Cube/Repository/STM32Cube_FW_F1_V1.8.4//Middlewares/ST/STM32_USB_Device_Library/Class/CDC/Src/usbd_cdc.c ****   * @brief  USBD_CDC_SetRxBuffer
 845:/home/smartth/STM32Cube/Repository/STM32Cube_FW_F1_V1.8.4//Middlewares/ST/STM32_USB_Device_Library/Class/CDC/Src/usbd_cdc.c ****   * @param  pdev: device instance
 846:/home/smartth/STM32Cube/Repository/STM32Cube_FW_F1_V1.8.4//Middlewares/ST/STM32_USB_Device_Library/Class/CDC/Src/usbd_cdc.c ****   * @param  pbuff: Rx Buffer
 847:/home/smartth/STM32Cube/Repository/STM32Cube_FW_F1_V1.8.4//Middlewares/ST/STM32_USB_Device_Library/Class/CDC/Src/usbd_cdc.c ****   * @retval status
 848:/home/smartth/STM32Cube/Repository/STM32Cube_FW_F1_V1.8.4//Middlewares/ST/STM32_USB_Device_Library/Class/CDC/Src/usbd_cdc.c ****   */
 849:/home/smartth/STM32Cube/Repository/STM32Cube_FW_F1_V1.8.4//Middlewares/ST/STM32_USB_Device_Library/Class/CDC/Src/usbd_cdc.c **** uint8_t  USBD_CDC_SetRxBuffer(USBD_HandleTypeDef   *pdev,
 850:/home/smartth/STM32Cube/Repository/STM32Cube_FW_F1_V1.8.4//Middlewares/ST/STM32_USB_Device_Library/Class/CDC/Src/usbd_cdc.c ****                               uint8_t  *pbuff)
 851:/home/smartth/STM32Cube/Repository/STM32Cube_FW_F1_V1.8.4//Middlewares/ST/STM32_USB_Device_Library/Class/CDC/Src/usbd_cdc.c **** {
 907              		.loc 1 851 1 is_stmt 1 view -0
 908              		.cfi_startproc
 909              		@ args = 0, pretend = 0, frame = 0
 910              		@ frame_needed = 0, uses_anonymous_args = 0
 911              		@ link register save eliminated.
 852:/home/smartth/STM32Cube/Repository/STM32Cube_FW_F1_V1.8.4//Middlewares/ST/STM32_USB_Device_Library/Class/CDC/Src/usbd_cdc.c ****   USBD_CDC_HandleTypeDef   *hcdc = (USBD_CDC_HandleTypeDef *) pdev->pClassData;
 912              		.loc 1 852 3 view .LVU261
 913              		.loc 1 852 29 is_stmt 0 view .LVU262
ARM GAS  /tmp/ccSzjua7.s 			page 35


 914 0000 D0F8B832 		ldr	r3, [r0, #696]
 915              	.LVL93:
 853:/home/smartth/STM32Cube/Repository/STM32Cube_FW_F1_V1.8.4//Middlewares/ST/STM32_USB_Device_Library/Class/CDC/Src/usbd_cdc.c **** 
 854:/home/smartth/STM32Cube/Repository/STM32Cube_FW_F1_V1.8.4//Middlewares/ST/STM32_USB_Device_Library/Class/CDC/Src/usbd_cdc.c ****   hcdc->RxBuffer = pbuff;
 916              		.loc 1 854 3 is_stmt 1 view .LVU263
 917              		.loc 1 854 18 is_stmt 0 view .LVU264
 918 0004 C3F80412 		str	r1, [r3, #516]
 855:/home/smartth/STM32Cube/Repository/STM32Cube_FW_F1_V1.8.4//Middlewares/ST/STM32_USB_Device_Library/Class/CDC/Src/usbd_cdc.c **** 
 856:/home/smartth/STM32Cube/Repository/STM32Cube_FW_F1_V1.8.4//Middlewares/ST/STM32_USB_Device_Library/Class/CDC/Src/usbd_cdc.c ****   return USBD_OK;
 919              		.loc 1 856 3 is_stmt 1 view .LVU265
 857:/home/smartth/STM32Cube/Repository/STM32Cube_FW_F1_V1.8.4//Middlewares/ST/STM32_USB_Device_Library/Class/CDC/Src/usbd_cdc.c **** }
 920              		.loc 1 857 1 is_stmt 0 view .LVU266
 921 0008 0020     		movs	r0, #0
 922              	.LVL94:
 923              		.loc 1 857 1 view .LVU267
 924 000a 7047     		bx	lr
 925              		.cfi_endproc
 926              	.LFE209:
 928              		.section	.text.USBD_CDC_TransmitPacket,"ax",%progbits
 929              		.align	1
 930              		.global	USBD_CDC_TransmitPacket
 931              		.syntax unified
 932              		.thumb
 933              		.thumb_func
 934              		.fpu softvfp
 936              	USBD_CDC_TransmitPacket:
 937              	.LVL95:
 938              	.LFB210:
 858:/home/smartth/STM32Cube/Repository/STM32Cube_FW_F1_V1.8.4//Middlewares/ST/STM32_USB_Device_Library/Class/CDC/Src/usbd_cdc.c **** 
 859:/home/smartth/STM32Cube/Repository/STM32Cube_FW_F1_V1.8.4//Middlewares/ST/STM32_USB_Device_Library/Class/CDC/Src/usbd_cdc.c **** /**
 860:/home/smartth/STM32Cube/Repository/STM32Cube_FW_F1_V1.8.4//Middlewares/ST/STM32_USB_Device_Library/Class/CDC/Src/usbd_cdc.c ****   * @brief  USBD_CDC_TransmitPacket
 861:/home/smartth/STM32Cube/Repository/STM32Cube_FW_F1_V1.8.4//Middlewares/ST/STM32_USB_Device_Library/Class/CDC/Src/usbd_cdc.c ****   *         Transmit packet on IN endpoint
 862:/home/smartth/STM32Cube/Repository/STM32Cube_FW_F1_V1.8.4//Middlewares/ST/STM32_USB_Device_Library/Class/CDC/Src/usbd_cdc.c ****   * @param  pdev: device instance
 863:/home/smartth/STM32Cube/Repository/STM32Cube_FW_F1_V1.8.4//Middlewares/ST/STM32_USB_Device_Library/Class/CDC/Src/usbd_cdc.c ****   * @retval status
 864:/home/smartth/STM32Cube/Repository/STM32Cube_FW_F1_V1.8.4//Middlewares/ST/STM32_USB_Device_Library/Class/CDC/Src/usbd_cdc.c ****   */
 865:/home/smartth/STM32Cube/Repository/STM32Cube_FW_F1_V1.8.4//Middlewares/ST/STM32_USB_Device_Library/Class/CDC/Src/usbd_cdc.c **** uint8_t  USBD_CDC_TransmitPacket(USBD_HandleTypeDef *pdev)
 866:/home/smartth/STM32Cube/Repository/STM32Cube_FW_F1_V1.8.4//Middlewares/ST/STM32_USB_Device_Library/Class/CDC/Src/usbd_cdc.c **** {
 939              		.loc 1 866 1 is_stmt 1 view -0
 940              		.cfi_startproc
 941              		@ args = 0, pretend = 0, frame = 0
 942              		@ frame_needed = 0, uses_anonymous_args = 0
 867:/home/smartth/STM32Cube/Repository/STM32Cube_FW_F1_V1.8.4//Middlewares/ST/STM32_USB_Device_Library/Class/CDC/Src/usbd_cdc.c ****   USBD_CDC_HandleTypeDef   *hcdc = (USBD_CDC_HandleTypeDef *) pdev->pClassData;
 943              		.loc 1 867 3 view .LVU269
 944              		.loc 1 867 29 is_stmt 0 view .LVU270
 945 0000 D0F8B822 		ldr	r2, [r0, #696]
 946              	.LVL96:
 868:/home/smartth/STM32Cube/Repository/STM32Cube_FW_F1_V1.8.4//Middlewares/ST/STM32_USB_Device_Library/Class/CDC/Src/usbd_cdc.c **** 
 869:/home/smartth/STM32Cube/Repository/STM32Cube_FW_F1_V1.8.4//Middlewares/ST/STM32_USB_Device_Library/Class/CDC/Src/usbd_cdc.c ****   if (pdev->pClassData != NULL)
 947              		.loc 1 869 3 is_stmt 1 view .LVU271
 948              		.loc 1 869 6 is_stmt 0 view .LVU272
 949 0004 A2B1     		cbz	r2, .L59
 866:/home/smartth/STM32Cube/Repository/STM32Cube_FW_F1_V1.8.4//Middlewares/ST/STM32_USB_Device_Library/Class/CDC/Src/usbd_cdc.c ****   USBD_CDC_HandleTypeDef   *hcdc = (USBD_CDC_HandleTypeDef *) pdev->pClassData;
 950              		.loc 1 866 1 view .LVU273
 951 0006 08B5     		push	{r3, lr}
 952              	.LCFI8:
 953              		.cfi_def_cfa_offset 8
 954              		.cfi_offset 3, -8
ARM GAS  /tmp/ccSzjua7.s 			page 36


 955              		.cfi_offset 14, -4
 870:/home/smartth/STM32Cube/Repository/STM32Cube_FW_F1_V1.8.4//Middlewares/ST/STM32_USB_Device_Library/Class/CDC/Src/usbd_cdc.c ****   {
 871:/home/smartth/STM32Cube/Repository/STM32Cube_FW_F1_V1.8.4//Middlewares/ST/STM32_USB_Device_Library/Class/CDC/Src/usbd_cdc.c ****     if (hcdc->TxState == 0U)
 956              		.loc 1 871 5 is_stmt 1 view .LVU274
 957              		.loc 1 871 13 is_stmt 0 view .LVU275
 958 0008 D2F81432 		ldr	r3, [r2, #532]
 959              		.loc 1 871 8 view .LVU276
 960 000c 0BB1     		cbz	r3, .L65
 872:/home/smartth/STM32Cube/Repository/STM32Cube_FW_F1_V1.8.4//Middlewares/ST/STM32_USB_Device_Library/Class/CDC/Src/usbd_cdc.c ****     {
 873:/home/smartth/STM32Cube/Repository/STM32Cube_FW_F1_V1.8.4//Middlewares/ST/STM32_USB_Device_Library/Class/CDC/Src/usbd_cdc.c ****       /* Tx Transfer in progress */
 874:/home/smartth/STM32Cube/Repository/STM32Cube_FW_F1_V1.8.4//Middlewares/ST/STM32_USB_Device_Library/Class/CDC/Src/usbd_cdc.c ****       hcdc->TxState = 1U;
 875:/home/smartth/STM32Cube/Repository/STM32Cube_FW_F1_V1.8.4//Middlewares/ST/STM32_USB_Device_Library/Class/CDC/Src/usbd_cdc.c **** 
 876:/home/smartth/STM32Cube/Repository/STM32Cube_FW_F1_V1.8.4//Middlewares/ST/STM32_USB_Device_Library/Class/CDC/Src/usbd_cdc.c ****       /* Update the packet total length */
 877:/home/smartth/STM32Cube/Repository/STM32Cube_FW_F1_V1.8.4//Middlewares/ST/STM32_USB_Device_Library/Class/CDC/Src/usbd_cdc.c ****       pdev->ep_in[CDC_IN_EP & 0xFU].total_length = hcdc->TxLength;
 878:/home/smartth/STM32Cube/Repository/STM32Cube_FW_F1_V1.8.4//Middlewares/ST/STM32_USB_Device_Library/Class/CDC/Src/usbd_cdc.c **** 
 879:/home/smartth/STM32Cube/Repository/STM32Cube_FW_F1_V1.8.4//Middlewares/ST/STM32_USB_Device_Library/Class/CDC/Src/usbd_cdc.c ****       /* Transmit next packet */
 880:/home/smartth/STM32Cube/Repository/STM32Cube_FW_F1_V1.8.4//Middlewares/ST/STM32_USB_Device_Library/Class/CDC/Src/usbd_cdc.c ****       USBD_LL_Transmit(pdev, CDC_IN_EP, hcdc->TxBuffer,
 881:/home/smartth/STM32Cube/Repository/STM32Cube_FW_F1_V1.8.4//Middlewares/ST/STM32_USB_Device_Library/Class/CDC/Src/usbd_cdc.c ****                        (uint16_t)hcdc->TxLength);
 882:/home/smartth/STM32Cube/Repository/STM32Cube_FW_F1_V1.8.4//Middlewares/ST/STM32_USB_Device_Library/Class/CDC/Src/usbd_cdc.c **** 
 883:/home/smartth/STM32Cube/Repository/STM32Cube_FW_F1_V1.8.4//Middlewares/ST/STM32_USB_Device_Library/Class/CDC/Src/usbd_cdc.c ****       return USBD_OK;
 884:/home/smartth/STM32Cube/Repository/STM32Cube_FW_F1_V1.8.4//Middlewares/ST/STM32_USB_Device_Library/Class/CDC/Src/usbd_cdc.c ****     }
 885:/home/smartth/STM32Cube/Repository/STM32Cube_FW_F1_V1.8.4//Middlewares/ST/STM32_USB_Device_Library/Class/CDC/Src/usbd_cdc.c ****     else
 886:/home/smartth/STM32Cube/Repository/STM32Cube_FW_F1_V1.8.4//Middlewares/ST/STM32_USB_Device_Library/Class/CDC/Src/usbd_cdc.c ****     {
 887:/home/smartth/STM32Cube/Repository/STM32Cube_FW_F1_V1.8.4//Middlewares/ST/STM32_USB_Device_Library/Class/CDC/Src/usbd_cdc.c ****       return USBD_BUSY;
 961              		.loc 1 887 14 view .LVU277
 962 000e 0120     		movs	r0, #1
 963              	.LVL97:
 964              	.L58:
 888:/home/smartth/STM32Cube/Repository/STM32Cube_FW_F1_V1.8.4//Middlewares/ST/STM32_USB_Device_Library/Class/CDC/Src/usbd_cdc.c ****     }
 889:/home/smartth/STM32Cube/Repository/STM32Cube_FW_F1_V1.8.4//Middlewares/ST/STM32_USB_Device_Library/Class/CDC/Src/usbd_cdc.c ****   }
 890:/home/smartth/STM32Cube/Repository/STM32Cube_FW_F1_V1.8.4//Middlewares/ST/STM32_USB_Device_Library/Class/CDC/Src/usbd_cdc.c ****   else
 891:/home/smartth/STM32Cube/Repository/STM32Cube_FW_F1_V1.8.4//Middlewares/ST/STM32_USB_Device_Library/Class/CDC/Src/usbd_cdc.c ****   {
 892:/home/smartth/STM32Cube/Repository/STM32Cube_FW_F1_V1.8.4//Middlewares/ST/STM32_USB_Device_Library/Class/CDC/Src/usbd_cdc.c ****     return USBD_FAIL;
 893:/home/smartth/STM32Cube/Repository/STM32Cube_FW_F1_V1.8.4//Middlewares/ST/STM32_USB_Device_Library/Class/CDC/Src/usbd_cdc.c ****   }
 894:/home/smartth/STM32Cube/Repository/STM32Cube_FW_F1_V1.8.4//Middlewares/ST/STM32_USB_Device_Library/Class/CDC/Src/usbd_cdc.c **** }
 965              		.loc 1 894 1 view .LVU278
 966 0010 08BD     		pop	{r3, pc}
 967              	.LVL98:
 968              	.L65:
 874:/home/smartth/STM32Cube/Repository/STM32Cube_FW_F1_V1.8.4//Middlewares/ST/STM32_USB_Device_Library/Class/CDC/Src/usbd_cdc.c **** 
 969              		.loc 1 874 7 is_stmt 1 view .LVU279
 874:/home/smartth/STM32Cube/Repository/STM32Cube_FW_F1_V1.8.4//Middlewares/ST/STM32_USB_Device_Library/Class/CDC/Src/usbd_cdc.c **** 
 970              		.loc 1 874 21 is_stmt 0 view .LVU280
 971 0012 0123     		movs	r3, #1
 972 0014 C2F81432 		str	r3, [r2, #532]
 877:/home/smartth/STM32Cube/Repository/STM32Cube_FW_F1_V1.8.4//Middlewares/ST/STM32_USB_Device_Library/Class/CDC/Src/usbd_cdc.c **** 
 973              		.loc 1 877 7 is_stmt 1 view .LVU281
 877:/home/smartth/STM32Cube/Repository/STM32Cube_FW_F1_V1.8.4//Middlewares/ST/STM32_USB_Device_Library/Class/CDC/Src/usbd_cdc.c **** 
 974              		.loc 1 877 56 is_stmt 0 view .LVU282
 975 0018 D2F81032 		ldr	r3, [r2, #528]
 877:/home/smartth/STM32Cube/Repository/STM32Cube_FW_F1_V1.8.4//Middlewares/ST/STM32_USB_Device_Library/Class/CDC/Src/usbd_cdc.c **** 
 976              		.loc 1 877 50 view .LVU283
 977 001c 0363     		str	r3, [r0, #48]
 880:/home/smartth/STM32Cube/Repository/STM32Cube_FW_F1_V1.8.4//Middlewares/ST/STM32_USB_Device_Library/Class/CDC/Src/usbd_cdc.c ****                        (uint16_t)hcdc->TxLength);
 978              		.loc 1 880 7 is_stmt 1 view .LVU284
 979 001e B2F81032 		ldrh	r3, [r2, #528]
 980 0022 D2F80822 		ldr	r2, [r2, #520]
ARM GAS  /tmp/ccSzjua7.s 			page 37


 981              	.LVL99:
 880:/home/smartth/STM32Cube/Repository/STM32Cube_FW_F1_V1.8.4//Middlewares/ST/STM32_USB_Device_Library/Class/CDC/Src/usbd_cdc.c ****                        (uint16_t)hcdc->TxLength);
 982              		.loc 1 880 7 is_stmt 0 view .LVU285
 983 0026 8121     		movs	r1, #129
 984 0028 FFF7FEFF 		bl	USBD_LL_Transmit
 985              	.LVL100:
 883:/home/smartth/STM32Cube/Repository/STM32Cube_FW_F1_V1.8.4//Middlewares/ST/STM32_USB_Device_Library/Class/CDC/Src/usbd_cdc.c ****     }
 986              		.loc 1 883 7 is_stmt 1 view .LVU286
 883:/home/smartth/STM32Cube/Repository/STM32Cube_FW_F1_V1.8.4//Middlewares/ST/STM32_USB_Device_Library/Class/CDC/Src/usbd_cdc.c ****     }
 987              		.loc 1 883 14 is_stmt 0 view .LVU287
 988 002c 0020     		movs	r0, #0
 989 002e EFE7     		b	.L58
 990              	.LVL101:
 991              	.L59:
 992              	.LCFI9:
 993              		.cfi_def_cfa_offset 0
 994              		.cfi_restore 3
 995              		.cfi_restore 14
 892:/home/smartth/STM32Cube/Repository/STM32Cube_FW_F1_V1.8.4//Middlewares/ST/STM32_USB_Device_Library/Class/CDC/Src/usbd_cdc.c ****   }
 996              		.loc 1 892 12 view .LVU288
 997 0030 0220     		movs	r0, #2
 998              	.LVL102:
 999              		.loc 1 894 1 view .LVU289
 1000 0032 7047     		bx	lr
 1001              		.cfi_endproc
 1002              	.LFE210:
 1004              		.section	.text.USBD_CDC_ReceivePacket,"ax",%progbits
 1005              		.align	1
 1006              		.global	USBD_CDC_ReceivePacket
 1007              		.syntax unified
 1008              		.thumb
 1009              		.thumb_func
 1010              		.fpu softvfp
 1012              	USBD_CDC_ReceivePacket:
 1013              	.LVL103:
 1014              	.LFB211:
 895:/home/smartth/STM32Cube/Repository/STM32Cube_FW_F1_V1.8.4//Middlewares/ST/STM32_USB_Device_Library/Class/CDC/Src/usbd_cdc.c **** 
 896:/home/smartth/STM32Cube/Repository/STM32Cube_FW_F1_V1.8.4//Middlewares/ST/STM32_USB_Device_Library/Class/CDC/Src/usbd_cdc.c **** 
 897:/home/smartth/STM32Cube/Repository/STM32Cube_FW_F1_V1.8.4//Middlewares/ST/STM32_USB_Device_Library/Class/CDC/Src/usbd_cdc.c **** /**
 898:/home/smartth/STM32Cube/Repository/STM32Cube_FW_F1_V1.8.4//Middlewares/ST/STM32_USB_Device_Library/Class/CDC/Src/usbd_cdc.c ****   * @brief  USBD_CDC_ReceivePacket
 899:/home/smartth/STM32Cube/Repository/STM32Cube_FW_F1_V1.8.4//Middlewares/ST/STM32_USB_Device_Library/Class/CDC/Src/usbd_cdc.c ****   *         prepare OUT Endpoint for reception
 900:/home/smartth/STM32Cube/Repository/STM32Cube_FW_F1_V1.8.4//Middlewares/ST/STM32_USB_Device_Library/Class/CDC/Src/usbd_cdc.c ****   * @param  pdev: device instance
 901:/home/smartth/STM32Cube/Repository/STM32Cube_FW_F1_V1.8.4//Middlewares/ST/STM32_USB_Device_Library/Class/CDC/Src/usbd_cdc.c ****   * @retval status
 902:/home/smartth/STM32Cube/Repository/STM32Cube_FW_F1_V1.8.4//Middlewares/ST/STM32_USB_Device_Library/Class/CDC/Src/usbd_cdc.c ****   */
 903:/home/smartth/STM32Cube/Repository/STM32Cube_FW_F1_V1.8.4//Middlewares/ST/STM32_USB_Device_Library/Class/CDC/Src/usbd_cdc.c **** uint8_t  USBD_CDC_ReceivePacket(USBD_HandleTypeDef *pdev)
 904:/home/smartth/STM32Cube/Repository/STM32Cube_FW_F1_V1.8.4//Middlewares/ST/STM32_USB_Device_Library/Class/CDC/Src/usbd_cdc.c **** {
 1015              		.loc 1 904 1 is_stmt 1 view -0
 1016              		.cfi_startproc
 1017              		@ args = 0, pretend = 0, frame = 0
 1018              		@ frame_needed = 0, uses_anonymous_args = 0
 905:/home/smartth/STM32Cube/Repository/STM32Cube_FW_F1_V1.8.4//Middlewares/ST/STM32_USB_Device_Library/Class/CDC/Src/usbd_cdc.c ****   USBD_CDC_HandleTypeDef   *hcdc = (USBD_CDC_HandleTypeDef *) pdev->pClassData;
 1019              		.loc 1 905 3 view .LVU291
 1020              		.loc 1 905 29 is_stmt 0 view .LVU292
 1021 0000 D0F8B822 		ldr	r2, [r0, #696]
 1022              	.LVL104:
 906:/home/smartth/STM32Cube/Repository/STM32Cube_FW_F1_V1.8.4//Middlewares/ST/STM32_USB_Device_Library/Class/CDC/Src/usbd_cdc.c **** 
 907:/home/smartth/STM32Cube/Repository/STM32Cube_FW_F1_V1.8.4//Middlewares/ST/STM32_USB_Device_Library/Class/CDC/Src/usbd_cdc.c ****   /* Suspend or Resume USB Out process */
ARM GAS  /tmp/ccSzjua7.s 			page 38


 908:/home/smartth/STM32Cube/Repository/STM32Cube_FW_F1_V1.8.4//Middlewares/ST/STM32_USB_Device_Library/Class/CDC/Src/usbd_cdc.c ****   if (pdev->pClassData != NULL)
 1023              		.loc 1 908 3 is_stmt 1 view .LVU293
 1024              		.loc 1 908 6 is_stmt 0 view .LVU294
 1025 0004 92B1     		cbz	r2, .L70
 904:/home/smartth/STM32Cube/Repository/STM32Cube_FW_F1_V1.8.4//Middlewares/ST/STM32_USB_Device_Library/Class/CDC/Src/usbd_cdc.c ****   USBD_CDC_HandleTypeDef   *hcdc = (USBD_CDC_HandleTypeDef *) pdev->pClassData;
 1026              		.loc 1 904 1 view .LVU295
 1027 0006 08B5     		push	{r3, lr}
 1028              	.LCFI10:
 1029              		.cfi_def_cfa_offset 8
 1030              		.cfi_offset 3, -8
 1031              		.cfi_offset 14, -4
 909:/home/smartth/STM32Cube/Repository/STM32Cube_FW_F1_V1.8.4//Middlewares/ST/STM32_USB_Device_Library/Class/CDC/Src/usbd_cdc.c ****   {
 910:/home/smartth/STM32Cube/Repository/STM32Cube_FW_F1_V1.8.4//Middlewares/ST/STM32_USB_Device_Library/Class/CDC/Src/usbd_cdc.c ****     if (pdev->dev_speed == USBD_SPEED_HIGH)
 1032              		.loc 1 910 5 is_stmt 1 view .LVU296
 1033              		.loc 1 910 13 is_stmt 0 view .LVU297
 1034 0008 037C     		ldrb	r3, [r0, #16]	@ zero_extendqisi2
 1035              		.loc 1 910 8 view .LVU298
 1036 000a 43B9     		cbnz	r3, .L68
 911:/home/smartth/STM32Cube/Repository/STM32Cube_FW_F1_V1.8.4//Middlewares/ST/STM32_USB_Device_Library/Class/CDC/Src/usbd_cdc.c ****     {
 912:/home/smartth/STM32Cube/Repository/STM32Cube_FW_F1_V1.8.4//Middlewares/ST/STM32_USB_Device_Library/Class/CDC/Src/usbd_cdc.c ****       /* Prepare Out endpoint to receive next packet */
 913:/home/smartth/STM32Cube/Repository/STM32Cube_FW_F1_V1.8.4//Middlewares/ST/STM32_USB_Device_Library/Class/CDC/Src/usbd_cdc.c ****       USBD_LL_PrepareReceive(pdev,
 1037              		.loc 1 913 7 is_stmt 1 view .LVU299
 1038 000c 4FF40073 		mov	r3, #512
 1039 0010 D2F80422 		ldr	r2, [r2, #516]
 1040              	.LVL105:
 1041              		.loc 1 913 7 is_stmt 0 view .LVU300
 1042 0014 0121     		movs	r1, #1
 1043 0016 FFF7FEFF 		bl	USBD_LL_PrepareReceive
 1044              	.LVL106:
 1045              	.L69:
 914:/home/smartth/STM32Cube/Repository/STM32Cube_FW_F1_V1.8.4//Middlewares/ST/STM32_USB_Device_Library/Class/CDC/Src/usbd_cdc.c ****                              CDC_OUT_EP,
 915:/home/smartth/STM32Cube/Repository/STM32Cube_FW_F1_V1.8.4//Middlewares/ST/STM32_USB_Device_Library/Class/CDC/Src/usbd_cdc.c ****                              hcdc->RxBuffer,
 916:/home/smartth/STM32Cube/Repository/STM32Cube_FW_F1_V1.8.4//Middlewares/ST/STM32_USB_Device_Library/Class/CDC/Src/usbd_cdc.c ****                              CDC_DATA_HS_OUT_PACKET_SIZE);
 917:/home/smartth/STM32Cube/Repository/STM32Cube_FW_F1_V1.8.4//Middlewares/ST/STM32_USB_Device_Library/Class/CDC/Src/usbd_cdc.c ****     }
 918:/home/smartth/STM32Cube/Repository/STM32Cube_FW_F1_V1.8.4//Middlewares/ST/STM32_USB_Device_Library/Class/CDC/Src/usbd_cdc.c ****     else
 919:/home/smartth/STM32Cube/Repository/STM32Cube_FW_F1_V1.8.4//Middlewares/ST/STM32_USB_Device_Library/Class/CDC/Src/usbd_cdc.c ****     {
 920:/home/smartth/STM32Cube/Repository/STM32Cube_FW_F1_V1.8.4//Middlewares/ST/STM32_USB_Device_Library/Class/CDC/Src/usbd_cdc.c ****       /* Prepare Out endpoint to receive next packet */
 921:/home/smartth/STM32Cube/Repository/STM32Cube_FW_F1_V1.8.4//Middlewares/ST/STM32_USB_Device_Library/Class/CDC/Src/usbd_cdc.c ****       USBD_LL_PrepareReceive(pdev,
 922:/home/smartth/STM32Cube/Repository/STM32Cube_FW_F1_V1.8.4//Middlewares/ST/STM32_USB_Device_Library/Class/CDC/Src/usbd_cdc.c ****                              CDC_OUT_EP,
 923:/home/smartth/STM32Cube/Repository/STM32Cube_FW_F1_V1.8.4//Middlewares/ST/STM32_USB_Device_Library/Class/CDC/Src/usbd_cdc.c ****                              hcdc->RxBuffer,
 924:/home/smartth/STM32Cube/Repository/STM32Cube_FW_F1_V1.8.4//Middlewares/ST/STM32_USB_Device_Library/Class/CDC/Src/usbd_cdc.c ****                              CDC_DATA_FS_OUT_PACKET_SIZE);
 925:/home/smartth/STM32Cube/Repository/STM32Cube_FW_F1_V1.8.4//Middlewares/ST/STM32_USB_Device_Library/Class/CDC/Src/usbd_cdc.c ****     }
 926:/home/smartth/STM32Cube/Repository/STM32Cube_FW_F1_V1.8.4//Middlewares/ST/STM32_USB_Device_Library/Class/CDC/Src/usbd_cdc.c ****     return USBD_OK;
 1046              		.loc 1 926 5 is_stmt 1 view .LVU301
 1047              		.loc 1 926 12 is_stmt 0 view .LVU302
 1048 001a 0020     		movs	r0, #0
 927:/home/smartth/STM32Cube/Repository/STM32Cube_FW_F1_V1.8.4//Middlewares/ST/STM32_USB_Device_Library/Class/CDC/Src/usbd_cdc.c ****   }
 928:/home/smartth/STM32Cube/Repository/STM32Cube_FW_F1_V1.8.4//Middlewares/ST/STM32_USB_Device_Library/Class/CDC/Src/usbd_cdc.c ****   else
 929:/home/smartth/STM32Cube/Repository/STM32Cube_FW_F1_V1.8.4//Middlewares/ST/STM32_USB_Device_Library/Class/CDC/Src/usbd_cdc.c ****   {
 930:/home/smartth/STM32Cube/Repository/STM32Cube_FW_F1_V1.8.4//Middlewares/ST/STM32_USB_Device_Library/Class/CDC/Src/usbd_cdc.c ****     return USBD_FAIL;
 931:/home/smartth/STM32Cube/Repository/STM32Cube_FW_F1_V1.8.4//Middlewares/ST/STM32_USB_Device_Library/Class/CDC/Src/usbd_cdc.c ****   }
 932:/home/smartth/STM32Cube/Repository/STM32Cube_FW_F1_V1.8.4//Middlewares/ST/STM32_USB_Device_Library/Class/CDC/Src/usbd_cdc.c **** }
 1049              		.loc 1 932 1 view .LVU303
 1050 001c 08BD     		pop	{r3, pc}
 1051              	.LVL107:
 1052              	.L68:
 921:/home/smartth/STM32Cube/Repository/STM32Cube_FW_F1_V1.8.4//Middlewares/ST/STM32_USB_Device_Library/Class/CDC/Src/usbd_cdc.c ****                              CDC_OUT_EP,
ARM GAS  /tmp/ccSzjua7.s 			page 39


 1053              		.loc 1 921 7 is_stmt 1 view .LVU304
 1054 001e 4023     		movs	r3, #64
 1055 0020 D2F80422 		ldr	r2, [r2, #516]
 1056              	.LVL108:
 921:/home/smartth/STM32Cube/Repository/STM32Cube_FW_F1_V1.8.4//Middlewares/ST/STM32_USB_Device_Library/Class/CDC/Src/usbd_cdc.c ****                              CDC_OUT_EP,
 1057              		.loc 1 921 7 is_stmt 0 view .LVU305
 1058 0024 0121     		movs	r1, #1
 1059 0026 FFF7FEFF 		bl	USBD_LL_PrepareReceive
 1060              	.LVL109:
 921:/home/smartth/STM32Cube/Repository/STM32Cube_FW_F1_V1.8.4//Middlewares/ST/STM32_USB_Device_Library/Class/CDC/Src/usbd_cdc.c ****                              CDC_OUT_EP,
 1061              		.loc 1 921 7 view .LVU306
 1062 002a F6E7     		b	.L69
 1063              	.LVL110:
 1064              	.L70:
 1065              	.LCFI11:
 1066              		.cfi_def_cfa_offset 0
 1067              		.cfi_restore 3
 1068              		.cfi_restore 14
 930:/home/smartth/STM32Cube/Repository/STM32Cube_FW_F1_V1.8.4//Middlewares/ST/STM32_USB_Device_Library/Class/CDC/Src/usbd_cdc.c ****   }
 1069              		.loc 1 930 12 view .LVU307
 1070 002c 0220     		movs	r0, #2
 1071              	.LVL111:
 1072              		.loc 1 932 1 view .LVU308
 1073 002e 7047     		bx	lr
 1074              		.cfi_endproc
 1075              	.LFE211:
 1077              		.global	USBD_CDC_OtherSpeedCfgDesc
 1078              		.global	USBD_CDC_CfgFSDesc
 1079              		.global	USBD_CDC_CfgHSDesc
 1080              		.global	USBD_CDC
 1081              		.section	.data.USBD_CDC,"aw"
 1082              		.align	2
 1085              	USBD_CDC:
 1086 0000 00000000 		.word	USBD_CDC_Init
 1087 0004 00000000 		.word	USBD_CDC_DeInit
 1088 0008 00000000 		.word	USBD_CDC_Setup
 1089 000c 00000000 		.word	0
 1090 0010 00000000 		.word	USBD_CDC_EP0_RxReady
 1091 0014 00000000 		.word	USBD_CDC_DataIn
 1092 0018 00000000 		.word	USBD_CDC_DataOut
 1093 001c 00000000 		.word	0
 1094 0020 00000000 		.word	0
 1095 0024 00000000 		.word	0
 1096 0028 00000000 		.word	USBD_CDC_GetHSCfgDesc
 1097 002c 00000000 		.word	USBD_CDC_GetFSCfgDesc
 1098 0030 00000000 		.word	USBD_CDC_GetOtherSpeedCfgDesc
 1099 0034 00000000 		.word	USBD_CDC_GetDeviceQualifierDescriptor
 1100              		.section	.data.USBD_CDC_CfgFSDesc,"aw"
 1101              		.align	2
 1102              		.set	.LANCHOR0,. + 0
 1105              	USBD_CDC_CfgFSDesc:
 1106 0000 09024300 		.ascii	"\011\002C\000\002\001\000\3002\011\004\000\000\001\002"
 1106      020100C0 
 1106      32090400 
 1106      000102
 1107 000f 02010005 		.ascii	"\002\001\000\005$\000\020\001\005$\001\000\001\004$"
 1107      24001001 
ARM GAS  /tmp/ccSzjua7.s 			page 40


 1107      05240100 
 1107      010424
 1108 001e 02020524 		.ascii	"\002\002\005$\006\000\001\007\005\202\003\010\000\020"
 1108      06000107 
 1108      05820308 
 1108      0010
 1109 002c 09040100 		.ascii	"\011\004\001\000\002\012\000\000\000\007\005\001\002"
 1109      020A0000 
 1109      00070501 
 1109      02
 1110 0039 40000007 		.ascii	"@\000\000\007\005\201\002@\000\000"
 1110      05810240 
 1110      0000
 1111              		.section	.data.USBD_CDC_CfgHSDesc,"aw"
 1112              		.align	2
 1113              		.set	.LANCHOR1,. + 0
 1116              	USBD_CDC_CfgHSDesc:
 1117 0000 09024300 		.ascii	"\011\002C\000\002\001\000\3002\011\004\000\000\001\002"
 1117      020100C0 
 1117      32090400 
 1117      000102
 1118 000f 02010005 		.ascii	"\002\001\000\005$\000\020\001\005$\001\000\001\004$"
 1118      24001001 
 1118      05240100 
 1118      010424
 1119 001e 02020524 		.ascii	"\002\002\005$\006\000\001\007\005\202\003\010\000\020"
 1119      06000107 
 1119      05820308 
 1119      0010
 1120 002c 09040100 		.ascii	"\011\004\001\000\002\012\000\000\000\007\005\001\002"
 1120      020A0000 
 1120      00070501 
 1120      02
 1121 0039 00020007 		.ascii	"\000\002\000\007\005\201\002\000\002\000"
 1121      05810200 
 1121      0200
 1122              		.section	.data.USBD_CDC_DeviceQualifierDesc,"aw"
 1123              		.align	2
 1124              		.set	.LANCHOR3,. + 0
 1127              	USBD_CDC_DeviceQualifierDesc:
 1128 0000 0A060002 		.ascii	"\012\006\000\002\000\000\000@\001\000"
 1128      00000040 
 1128      0100
 1129              		.section	.data.USBD_CDC_OtherSpeedCfgDesc,"aw"
 1130              		.align	2
 1131              		.set	.LANCHOR2,. + 0
 1134              	USBD_CDC_OtherSpeedCfgDesc:
 1135 0000 09074300 		.ascii	"\011\007C\000\002\001\004\3002\011\004\000\000\001\002"
 1135      020104C0 
 1135      32090400 
 1135      000102
 1136 000f 02010005 		.ascii	"\002\001\000\005$\000\020\001\005$\001\000\001\004$"
 1136      24001001 
 1136      05240100 
 1136      010424
 1137 001e 02020524 		.ascii	"\002\002\005$\006\000\001\007\005\202\003\010\000\020"
 1137      06000107 
ARM GAS  /tmp/ccSzjua7.s 			page 41


 1137      05820308 
 1137      0010
 1138 002c 09040100 		.ascii	"\011\004\001\000\002\012\000\000\000\007\005\001\002"
 1138      020A0000 
 1138      00070501 
 1138      02
 1139 0039 40000007 		.ascii	"@\000\000\007\005\201\002@\000\000"
 1139      05810240 
 1139      0000
 1140              		.text
 1141              	.Letext0:
 1142              		.file 2 "/usr/include/newlib/machine/_default_types.h"
 1143              		.file 3 "/usr/include/newlib/sys/_stdint.h"
 1144              		.file 4 "/home/smartth/STM32Cube/Repository/STM32Cube_FW_F1_V1.8.4//Drivers/CMSIS/Device/ST/STM32F
 1145              		.file 5 "/home/smartth/STM32Cube/Repository/STM32Cube_FW_F1_V1.8.4//Drivers/STM32F1xx_HAL_Driver/I
 1146              		.file 6 "/home/smartth/STM32Cube/Repository/STM32Cube_FW_F1_V1.8.4//Drivers/STM32F1xx_HAL_Driver/I
 1147              		.file 7 "/home/smartth/STM32Cube/Repository/STM32Cube_FW_F1_V1.8.4//Drivers/STM32F1xx_HAL_Driver/I
 1148              		.file 8 "/home/smartth/STM32Cube/Repository/STM32Cube_FW_F1_V1.8.4//Middlewares/ST/STM32_USB_Devic
 1149              		.file 9 "/home/smartth/STM32Cube/Repository/STM32Cube_FW_F1_V1.8.4//Middlewares/ST/STM32_USB_Devic
 1150              		.file 10 "/home/smartth/STM32Cube/Repository/STM32Cube_FW_F1_V1.8.4//Middlewares/ST/STM32_USB_Devi
 1151              		.file 11 "/home/smartth/STM32Cube/Repository/STM32Cube_FW_F1_V1.8.4//Middlewares/ST/STM32_USB_Devi
 1152              		.file 12 "/home/smartth/STM32Cube/Repository/STM32Cube_FW_F1_V1.8.4//Middlewares/ST/STM32_USB_Devi
 1153              		.file 13 "User/USB/usbd_conf.h"
ARM GAS  /tmp/ccSzjua7.s 			page 42


DEFINED SYMBOLS
                            *ABS*:0000000000000000 usbd_cdc.c
     /tmp/ccSzjua7.s:16     .text.USBD_CDC_EP0_RxReady:0000000000000000 $t
     /tmp/ccSzjua7.s:23     .text.USBD_CDC_EP0_RxReady:0000000000000000 USBD_CDC_EP0_RxReady
     /tmp/ccSzjua7.s:74     .text.USBD_CDC_GetFSCfgDesc:0000000000000000 $t
     /tmp/ccSzjua7.s:80     .text.USBD_CDC_GetFSCfgDesc:0000000000000000 USBD_CDC_GetFSCfgDesc
     /tmp/ccSzjua7.s:101    .text.USBD_CDC_GetFSCfgDesc:0000000000000008 $d
     /tmp/ccSzjua7.s:106    .text.USBD_CDC_GetHSCfgDesc:0000000000000000 $t
     /tmp/ccSzjua7.s:112    .text.USBD_CDC_GetHSCfgDesc:0000000000000000 USBD_CDC_GetHSCfgDesc
     /tmp/ccSzjua7.s:133    .text.USBD_CDC_GetHSCfgDesc:0000000000000008 $d
     /tmp/ccSzjua7.s:138    .text.USBD_CDC_GetOtherSpeedCfgDesc:0000000000000000 $t
     /tmp/ccSzjua7.s:144    .text.USBD_CDC_GetOtherSpeedCfgDesc:0000000000000000 USBD_CDC_GetOtherSpeedCfgDesc
     /tmp/ccSzjua7.s:165    .text.USBD_CDC_GetOtherSpeedCfgDesc:0000000000000008 $d
     /tmp/ccSzjua7.s:170    .text.USBD_CDC_GetDeviceQualifierDescriptor:0000000000000000 $t
     /tmp/ccSzjua7.s:177    .text.USBD_CDC_GetDeviceQualifierDescriptor:0000000000000000 USBD_CDC_GetDeviceQualifierDescriptor
     /tmp/ccSzjua7.s:198    .text.USBD_CDC_GetDeviceQualifierDescriptor:0000000000000008 $d
     /tmp/ccSzjua7.s:203    .text.USBD_CDC_DataOut:0000000000000000 $t
     /tmp/ccSzjua7.s:209    .text.USBD_CDC_DataOut:0000000000000000 USBD_CDC_DataOut
     /tmp/ccSzjua7.s:265    .text.USBD_CDC_DataIn:0000000000000000 $t
     /tmp/ccSzjua7.s:271    .text.USBD_CDC_DataIn:0000000000000000 USBD_CDC_DataIn
     /tmp/ccSzjua7.s:354    .text.USBD_CDC_Setup:0000000000000000 $t
     /tmp/ccSzjua7.s:360    .text.USBD_CDC_Setup:0000000000000000 USBD_CDC_Setup
     /tmp/ccSzjua7.s:586    .text.USBD_CDC_DeInit:0000000000000000 $t
     /tmp/ccSzjua7.s:592    .text.USBD_CDC_DeInit:0000000000000000 USBD_CDC_DeInit
     /tmp/ccSzjua7.s:666    .text.USBD_CDC_Init:0000000000000000 $t
     /tmp/ccSzjua7.s:672    .text.USBD_CDC_Init:0000000000000000 USBD_CDC_Init
     /tmp/ccSzjua7.s:821    .text.USBD_CDC_RegisterInterface:0000000000000000 $t
     /tmp/ccSzjua7.s:828    .text.USBD_CDC_RegisterInterface:0000000000000000 USBD_CDC_RegisterInterface
     /tmp/ccSzjua7.s:862    .text.USBD_CDC_SetTxBuffer:0000000000000000 $t
     /tmp/ccSzjua7.s:869    .text.USBD_CDC_SetTxBuffer:0000000000000000 USBD_CDC_SetTxBuffer
     /tmp/ccSzjua7.s:897    .text.USBD_CDC_SetRxBuffer:0000000000000000 $t
     /tmp/ccSzjua7.s:904    .text.USBD_CDC_SetRxBuffer:0000000000000000 USBD_CDC_SetRxBuffer
     /tmp/ccSzjua7.s:929    .text.USBD_CDC_TransmitPacket:0000000000000000 $t
     /tmp/ccSzjua7.s:936    .text.USBD_CDC_TransmitPacket:0000000000000000 USBD_CDC_TransmitPacket
     /tmp/ccSzjua7.s:1005   .text.USBD_CDC_ReceivePacket:0000000000000000 $t
     /tmp/ccSzjua7.s:1012   .text.USBD_CDC_ReceivePacket:0000000000000000 USBD_CDC_ReceivePacket
     /tmp/ccSzjua7.s:1134   .data.USBD_CDC_OtherSpeedCfgDesc:0000000000000000 USBD_CDC_OtherSpeedCfgDesc
     /tmp/ccSzjua7.s:1105   .data.USBD_CDC_CfgFSDesc:0000000000000000 USBD_CDC_CfgFSDesc
     /tmp/ccSzjua7.s:1116   .data.USBD_CDC_CfgHSDesc:0000000000000000 USBD_CDC_CfgHSDesc
     /tmp/ccSzjua7.s:1085   .data.USBD_CDC:0000000000000000 USBD_CDC
     /tmp/ccSzjua7.s:1082   .data.USBD_CDC:0000000000000000 $d
     /tmp/ccSzjua7.s:1101   .data.USBD_CDC_CfgFSDesc:0000000000000000 $d
     /tmp/ccSzjua7.s:1112   .data.USBD_CDC_CfgHSDesc:0000000000000000 $d
     /tmp/ccSzjua7.s:1123   .data.USBD_CDC_DeviceQualifierDesc:0000000000000000 $d
     /tmp/ccSzjua7.s:1127   .data.USBD_CDC_DeviceQualifierDesc:0000000000000000 USBD_CDC_DeviceQualifierDesc
     /tmp/ccSzjua7.s:1130   .data.USBD_CDC_OtherSpeedCfgDesc:0000000000000000 $d

UNDEFINED SYMBOLS
USBD_LL_GetRxDataSize
USBD_LL_Transmit
USBD_CtlSendData
USBD_CtlPrepareRx
USBD_CtlError
USBD_LL_CloseEP
USBD_static_free
USBD_LL_OpenEP
USBD_static_malloc
ARM GAS  /tmp/ccSzjua7.s 			page 43


USBD_LL_PrepareReceive
